   1              		.syntax unified
   2              		.cpu cortex-m4
   3              		.eabi_attribute 27, 3
   4              		.fpu fpv4-sp-d16
   5              		.eabi_attribute 20, 1
   6              		.eabi_attribute 21, 1
   7              		.eabi_attribute 23, 3
   8              		.eabi_attribute 24, 1
   9              		.eabi_attribute 25, 1
  10              		.eabi_attribute 26, 1
  11              		.eabi_attribute 30, 1
  12              		.eabi_attribute 34, 1
  13              		.eabi_attribute 18, 4
  14              		.thumb
  15              		.file	"croutine.c"
  16              		.text
  17              	.Ltext0:
  18              		.cfi_sections	.debug_frame
  19              		.section	.text.prvInitialiseCoRoutineLists,"ax",%progbits
  20              		.align	2
  21              		.thumb
  22              		.thumb_func
  24              	prvInitialiseCoRoutineLists:
  25              	.LFB115:
  26              		.file 1 "FreeRTOS/Source/croutine.c"
   1:FreeRTOS/Source/croutine.c **** /*
   2:FreeRTOS/Source/croutine.c ****     FreeRTOS V7.0.2 - Copyright (C) 2011 Real Time Engineers Ltd.
   3:FreeRTOS/Source/croutine.c **** 
   4:FreeRTOS/Source/croutine.c **** 
   5:FreeRTOS/Source/croutine.c ****     ***************************************************************************
   6:FreeRTOS/Source/croutine.c ****      *                                                                       *
   7:FreeRTOS/Source/croutine.c ****      *    FreeRTOS tutorial books are available in pdf and paperback.        *
   8:FreeRTOS/Source/croutine.c ****      *    Complete, revised, and edited pdf reference manuals are also       *
   9:FreeRTOS/Source/croutine.c ****      *    available.                                                         *
  10:FreeRTOS/Source/croutine.c ****      *                                                                       *
  11:FreeRTOS/Source/croutine.c ****      *    Purchasing FreeRTOS documentation will not only help you, by       *
  12:FreeRTOS/Source/croutine.c ****      *    ensuring you get running as quickly as possible and with an        *
  13:FreeRTOS/Source/croutine.c ****      *    in-depth knowledge of how to use FreeRTOS, it will also help       *
  14:FreeRTOS/Source/croutine.c ****      *    the FreeRTOS project to continue with its mission of providing     *
  15:FreeRTOS/Source/croutine.c ****      *    professional grade, cross platform, de facto standard solutions    *
  16:FreeRTOS/Source/croutine.c ****      *    for microcontrollers - completely free of charge!                  *
  17:FreeRTOS/Source/croutine.c ****      *                                                                       *
  18:FreeRTOS/Source/croutine.c ****      *    >>> See http://www.FreeRTOS.org/Documentation for details. <<<     *
  19:FreeRTOS/Source/croutine.c ****      *                                                                       *
  20:FreeRTOS/Source/croutine.c ****      *    Thank you for using FreeRTOS, and thank you for your support!      *
  21:FreeRTOS/Source/croutine.c ****      *                                                                       *
  22:FreeRTOS/Source/croutine.c ****     ***************************************************************************
  23:FreeRTOS/Source/croutine.c **** 
  24:FreeRTOS/Source/croutine.c **** 
  25:FreeRTOS/Source/croutine.c ****     This file is part of the FreeRTOS distribution.
  26:FreeRTOS/Source/croutine.c **** 
  27:FreeRTOS/Source/croutine.c ****     FreeRTOS is free software; you can redistribute it and/or modify it under
  28:FreeRTOS/Source/croutine.c ****     the terms of the GNU General Public License (version 2) as published by the
  29:FreeRTOS/Source/croutine.c ****     Free Software Foundation AND MODIFIED BY the FreeRTOS exception.
  30:FreeRTOS/Source/croutine.c ****     >>>NOTE<<< The modification to the GPL is included to allow you to
  31:FreeRTOS/Source/croutine.c ****     distribute a combined work that includes FreeRTOS without being obliged to
  32:FreeRTOS/Source/croutine.c ****     provide the source code for proprietary components outside of the FreeRTOS
  33:FreeRTOS/Source/croutine.c ****     kernel.  FreeRTOS is distributed in the hope that it will be useful, but
  34:FreeRTOS/Source/croutine.c ****     WITHOUT ANY WARRANTY; without even the implied warranty of MERCHANTABILITY
  35:FreeRTOS/Source/croutine.c ****     or FITNESS FOR A PARTICULAR PURPOSE.  See the GNU General Public License for
  36:FreeRTOS/Source/croutine.c ****     more details. You should have received a copy of the GNU General Public
  37:FreeRTOS/Source/croutine.c ****     License and the FreeRTOS license exception along with FreeRTOS; if not it
  38:FreeRTOS/Source/croutine.c ****     can be viewed here: http://www.freertos.org/a00114.html and also obtained
  39:FreeRTOS/Source/croutine.c ****     by writing to Richard Barry, contact details for whom are available on the
  40:FreeRTOS/Source/croutine.c ****     FreeRTOS WEB site.
  41:FreeRTOS/Source/croutine.c **** 
  42:FreeRTOS/Source/croutine.c ****     1 tab == 4 spaces!
  43:FreeRTOS/Source/croutine.c **** 
  44:FreeRTOS/Source/croutine.c ****     http://www.FreeRTOS.org - Documentation, latest information, license and
  45:FreeRTOS/Source/croutine.c ****     contact details.
  46:FreeRTOS/Source/croutine.c **** 
  47:FreeRTOS/Source/croutine.c ****     http://www.SafeRTOS.com - A version that is certified for use in safety
  48:FreeRTOS/Source/croutine.c ****     critical systems.
  49:FreeRTOS/Source/croutine.c **** 
  50:FreeRTOS/Source/croutine.c ****     http://www.OpenRTOS.com - Commercial support, development, porting,
  51:FreeRTOS/Source/croutine.c ****     licensing and training services.
  52:FreeRTOS/Source/croutine.c **** */
  53:FreeRTOS/Source/croutine.c **** 
  54:FreeRTOS/Source/croutine.c **** #include "FreeRTOS.h"
  55:FreeRTOS/Source/croutine.c **** #include "task.h"
  56:FreeRTOS/Source/croutine.c **** #include "croutine.h"
  57:FreeRTOS/Source/croutine.c **** 
  58:FreeRTOS/Source/croutine.c **** /*
  59:FreeRTOS/Source/croutine.c ****  * Some kernel aware debuggers require data to be viewed to be global, rather
  60:FreeRTOS/Source/croutine.c ****  * than file scope.
  61:FreeRTOS/Source/croutine.c ****  */
  62:FreeRTOS/Source/croutine.c **** #ifdef portREMOVE_STATIC_QUALIFIER
  63:FreeRTOS/Source/croutine.c **** 	#define static
  64:FreeRTOS/Source/croutine.c **** #endif
  65:FreeRTOS/Source/croutine.c **** 
  66:FreeRTOS/Source/croutine.c **** 
  67:FreeRTOS/Source/croutine.c **** /* Lists for ready and blocked co-routines. --------------------*/
  68:FreeRTOS/Source/croutine.c **** static xList pxReadyCoRoutineLists[ configMAX_CO_ROUTINE_PRIORITIES ];	/*< Prioritised ready co-rou
  69:FreeRTOS/Source/croutine.c **** static xList xDelayedCoRoutineList1;									/*< Delayed co-routines. */
  70:FreeRTOS/Source/croutine.c **** static xList xDelayedCoRoutineList2;									/*< Delayed co-routines (two lists are used - one for 
  71:FreeRTOS/Source/croutine.c **** static xList * pxDelayedCoRoutineList;									/*< Points to the delayed co-routine list currently 
  72:FreeRTOS/Source/croutine.c **** static xList * pxOverflowDelayedCoRoutineList;							/*< Points to the delayed co-routine list curr
  73:FreeRTOS/Source/croutine.c **** static xList xPendingReadyCoRoutineList;											/*< Holds co-routines that have been readied by 
  74:FreeRTOS/Source/croutine.c **** 
  75:FreeRTOS/Source/croutine.c **** /* Other file private variables. --------------------------------*/
  76:FreeRTOS/Source/croutine.c **** corCRCB * pxCurrentCoRoutine = NULL;
  77:FreeRTOS/Source/croutine.c **** static unsigned portBASE_TYPE uxTopCoRoutineReadyPriority = 0;
  78:FreeRTOS/Source/croutine.c **** static portTickType xCoRoutineTickCount = 0, xLastTickCount = 0, xPassedTicks = 0;
  79:FreeRTOS/Source/croutine.c **** 
  80:FreeRTOS/Source/croutine.c **** /* The initial state of the co-routine when it is created. */
  81:FreeRTOS/Source/croutine.c **** #define corINITIAL_STATE	( 0 )
  82:FreeRTOS/Source/croutine.c **** 
  83:FreeRTOS/Source/croutine.c **** /*
  84:FreeRTOS/Source/croutine.c ****  * Place the co-routine represented by pxCRCB into the appropriate ready queue
  85:FreeRTOS/Source/croutine.c ****  * for the priority.  It is inserted at the end of the list.
  86:FreeRTOS/Source/croutine.c ****  *
  87:FreeRTOS/Source/croutine.c ****  * This macro accesses the co-routine ready lists and therefore must not be
  88:FreeRTOS/Source/croutine.c ****  * used from within an ISR.
  89:FreeRTOS/Source/croutine.c ****  */
  90:FreeRTOS/Source/croutine.c **** #define prvAddCoRoutineToReadyQueue( pxCRCB )																		\
  91:FreeRTOS/Source/croutine.c **** {																													\
  92:FreeRTOS/Source/croutine.c **** 	if( pxCRCB->uxPriority > uxTopCoRoutineReadyPriority )															\
  93:FreeRTOS/Source/croutine.c **** 	{																												\
  94:FreeRTOS/Source/croutine.c **** 		uxTopCoRoutineReadyPriority = pxCRCB->uxPriority;															\
  95:FreeRTOS/Source/croutine.c **** 	}																												\
  96:FreeRTOS/Source/croutine.c **** 	vListInsertEnd( ( xList * ) &( pxReadyCoRoutineLists[ pxCRCB->uxPriority ] ), &( pxCRCB->xGenericL
  97:FreeRTOS/Source/croutine.c **** }	
  98:FreeRTOS/Source/croutine.c **** 
  99:FreeRTOS/Source/croutine.c **** /*
 100:FreeRTOS/Source/croutine.c ****  * Utility to ready all the lists used by the scheduler.  This is called
 101:FreeRTOS/Source/croutine.c ****  * automatically upon the creation of the first co-routine.
 102:FreeRTOS/Source/croutine.c ****  */
 103:FreeRTOS/Source/croutine.c **** static void prvInitialiseCoRoutineLists( void );
 104:FreeRTOS/Source/croutine.c **** 
 105:FreeRTOS/Source/croutine.c **** /*
 106:FreeRTOS/Source/croutine.c ****  * Co-routines that are readied by an interrupt cannot be placed directly into
 107:FreeRTOS/Source/croutine.c ****  * the ready lists (there is no mutual exclusion).  Instead they are placed in
 108:FreeRTOS/Source/croutine.c ****  * in the pending ready list in order that they can later be moved to the ready
 109:FreeRTOS/Source/croutine.c ****  * list by the co-routine scheduler.
 110:FreeRTOS/Source/croutine.c ****  */
 111:FreeRTOS/Source/croutine.c **** static void prvCheckPendingReadyList( void );
 112:FreeRTOS/Source/croutine.c **** 
 113:FreeRTOS/Source/croutine.c **** /*
 114:FreeRTOS/Source/croutine.c ****  * Macro that looks at the list of co-routines that are currently delayed to
 115:FreeRTOS/Source/croutine.c ****  * see if any require waking.
 116:FreeRTOS/Source/croutine.c ****  *
 117:FreeRTOS/Source/croutine.c ****  * Co-routines are stored in the queue in the order of their wake time -
 118:FreeRTOS/Source/croutine.c ****  * meaning once one co-routine has been found whose timer has not expired
 119:FreeRTOS/Source/croutine.c ****  * we need not look any further down the list.
 120:FreeRTOS/Source/croutine.c ****  */
 121:FreeRTOS/Source/croutine.c **** static void prvCheckDelayedList( void );
 122:FreeRTOS/Source/croutine.c **** 
 123:FreeRTOS/Source/croutine.c **** /*-----------------------------------------------------------*/
 124:FreeRTOS/Source/croutine.c **** 
 125:FreeRTOS/Source/croutine.c **** signed portBASE_TYPE xCoRoutineCreate( crCOROUTINE_CODE pxCoRoutineCode, unsigned portBASE_TYPE uxP
 126:FreeRTOS/Source/croutine.c **** {
 127:FreeRTOS/Source/croutine.c **** signed portBASE_TYPE xReturn;
 128:FreeRTOS/Source/croutine.c **** corCRCB *pxCoRoutine;
 129:FreeRTOS/Source/croutine.c **** 
 130:FreeRTOS/Source/croutine.c **** 	/* Allocate the memory that will store the co-routine control block. */
 131:FreeRTOS/Source/croutine.c **** 	pxCoRoutine = ( corCRCB * ) pvPortMalloc( sizeof( corCRCB ) );
 132:FreeRTOS/Source/croutine.c **** 	if( pxCoRoutine )
 133:FreeRTOS/Source/croutine.c **** 	{
 134:FreeRTOS/Source/croutine.c **** 		/* If pxCurrentCoRoutine is NULL then this is the first co-routine to
 135:FreeRTOS/Source/croutine.c **** 		be created and the co-routine data structures need initialising. */
 136:FreeRTOS/Source/croutine.c **** 		if( pxCurrentCoRoutine == NULL )
 137:FreeRTOS/Source/croutine.c **** 		{
 138:FreeRTOS/Source/croutine.c **** 			pxCurrentCoRoutine = pxCoRoutine;
 139:FreeRTOS/Source/croutine.c **** 			prvInitialiseCoRoutineLists();
 140:FreeRTOS/Source/croutine.c **** 		}
 141:FreeRTOS/Source/croutine.c **** 
 142:FreeRTOS/Source/croutine.c **** 		/* Check the priority is within limits. */
 143:FreeRTOS/Source/croutine.c **** 		if( uxPriority >= configMAX_CO_ROUTINE_PRIORITIES )
 144:FreeRTOS/Source/croutine.c **** 		{
 145:FreeRTOS/Source/croutine.c **** 			uxPriority = configMAX_CO_ROUTINE_PRIORITIES - 1;
 146:FreeRTOS/Source/croutine.c **** 		}
 147:FreeRTOS/Source/croutine.c **** 
 148:FreeRTOS/Source/croutine.c **** 		/* Fill out the co-routine control block from the function parameters. */
 149:FreeRTOS/Source/croutine.c **** 		pxCoRoutine->uxState = corINITIAL_STATE;
 150:FreeRTOS/Source/croutine.c **** 		pxCoRoutine->uxPriority = uxPriority;
 151:FreeRTOS/Source/croutine.c **** 		pxCoRoutine->uxIndex = uxIndex;
 152:FreeRTOS/Source/croutine.c **** 		pxCoRoutine->pxCoRoutineFunction = pxCoRoutineCode;
 153:FreeRTOS/Source/croutine.c **** 
 154:FreeRTOS/Source/croutine.c **** 		/* Initialise all the other co-routine control block parameters. */
 155:FreeRTOS/Source/croutine.c **** 		vListInitialiseItem( &( pxCoRoutine->xGenericListItem ) );
 156:FreeRTOS/Source/croutine.c **** 		vListInitialiseItem( &( pxCoRoutine->xEventListItem ) );
 157:FreeRTOS/Source/croutine.c **** 
 158:FreeRTOS/Source/croutine.c **** 		/* Set the co-routine control block as a link back from the xListItem.
 159:FreeRTOS/Source/croutine.c **** 		This is so we can get back to the containing CRCB from a generic item
 160:FreeRTOS/Source/croutine.c **** 		in a list. */
 161:FreeRTOS/Source/croutine.c **** 		listSET_LIST_ITEM_OWNER( &( pxCoRoutine->xGenericListItem ), pxCoRoutine );
 162:FreeRTOS/Source/croutine.c **** 		listSET_LIST_ITEM_OWNER( &( pxCoRoutine->xEventListItem ), pxCoRoutine );
 163:FreeRTOS/Source/croutine.c **** 	
 164:FreeRTOS/Source/croutine.c **** 		/* Event lists are always in priority order. */
 165:FreeRTOS/Source/croutine.c **** 		listSET_LIST_ITEM_VALUE( &( pxCoRoutine->xEventListItem ), configMAX_PRIORITIES - ( portTickType 
 166:FreeRTOS/Source/croutine.c **** 		
 167:FreeRTOS/Source/croutine.c **** 		/* Now the co-routine has been initialised it can be added to the ready
 168:FreeRTOS/Source/croutine.c **** 		list at the correct priority. */
 169:FreeRTOS/Source/croutine.c **** 		prvAddCoRoutineToReadyQueue( pxCoRoutine );
 170:FreeRTOS/Source/croutine.c **** 
 171:FreeRTOS/Source/croutine.c **** 		xReturn = pdPASS;
 172:FreeRTOS/Source/croutine.c **** 	}
 173:FreeRTOS/Source/croutine.c **** 	else
 174:FreeRTOS/Source/croutine.c **** 	{		
 175:FreeRTOS/Source/croutine.c **** 		xReturn = errCOULD_NOT_ALLOCATE_REQUIRED_MEMORY;
 176:FreeRTOS/Source/croutine.c **** 	}
 177:FreeRTOS/Source/croutine.c **** 	
 178:FreeRTOS/Source/croutine.c **** 	return xReturn;	
 179:FreeRTOS/Source/croutine.c **** }
 180:FreeRTOS/Source/croutine.c **** /*-----------------------------------------------------------*/
 181:FreeRTOS/Source/croutine.c **** 
 182:FreeRTOS/Source/croutine.c **** void vCoRoutineAddToDelayedList( portTickType xTicksToDelay, xList *pxEventList )
 183:FreeRTOS/Source/croutine.c **** {
 184:FreeRTOS/Source/croutine.c **** portTickType xTimeToWake;
 185:FreeRTOS/Source/croutine.c **** 
 186:FreeRTOS/Source/croutine.c **** 	/* Calculate the time to wake - this may overflow but this is
 187:FreeRTOS/Source/croutine.c **** 	not a problem. */
 188:FreeRTOS/Source/croutine.c **** 	xTimeToWake = xCoRoutineTickCount + xTicksToDelay;
 189:FreeRTOS/Source/croutine.c **** 
 190:FreeRTOS/Source/croutine.c **** 	/* We must remove ourselves from the ready list before adding
 191:FreeRTOS/Source/croutine.c **** 	ourselves to the blocked list as the same list item is used for
 192:FreeRTOS/Source/croutine.c **** 	both lists. */
 193:FreeRTOS/Source/croutine.c **** 	vListRemove( ( xListItem * ) &( pxCurrentCoRoutine->xGenericListItem ) );
 194:FreeRTOS/Source/croutine.c **** 
 195:FreeRTOS/Source/croutine.c **** 	/* The list item will be inserted in wake time order. */
 196:FreeRTOS/Source/croutine.c **** 	listSET_LIST_ITEM_VALUE( &( pxCurrentCoRoutine->xGenericListItem ), xTimeToWake );
 197:FreeRTOS/Source/croutine.c **** 
 198:FreeRTOS/Source/croutine.c **** 	if( xTimeToWake < xCoRoutineTickCount )
 199:FreeRTOS/Source/croutine.c **** 	{
 200:FreeRTOS/Source/croutine.c **** 		/* Wake time has overflowed.  Place this item in the
 201:FreeRTOS/Source/croutine.c **** 		overflow list. */
 202:FreeRTOS/Source/croutine.c **** 		vListInsert( ( xList * ) pxOverflowDelayedCoRoutineList, ( xListItem * ) &( pxCurrentCoRoutine->x
 203:FreeRTOS/Source/croutine.c **** 	}
 204:FreeRTOS/Source/croutine.c **** 	else
 205:FreeRTOS/Source/croutine.c **** 	{
 206:FreeRTOS/Source/croutine.c **** 		/* The wake time has not overflowed, so we can use the
 207:FreeRTOS/Source/croutine.c **** 		current block list. */
 208:FreeRTOS/Source/croutine.c **** 		vListInsert( ( xList * ) pxDelayedCoRoutineList, ( xListItem * ) &( pxCurrentCoRoutine->xGenericL
 209:FreeRTOS/Source/croutine.c **** 	}
 210:FreeRTOS/Source/croutine.c **** 
 211:FreeRTOS/Source/croutine.c **** 	if( pxEventList )
 212:FreeRTOS/Source/croutine.c **** 	{
 213:FreeRTOS/Source/croutine.c **** 		/* Also add the co-routine to an event list.  If this is done then the
 214:FreeRTOS/Source/croutine.c **** 		function must be called with interrupts disabled. */
 215:FreeRTOS/Source/croutine.c **** 		vListInsert( pxEventList, &( pxCurrentCoRoutine->xEventListItem ) );
 216:FreeRTOS/Source/croutine.c **** 	}
 217:FreeRTOS/Source/croutine.c **** }
 218:FreeRTOS/Source/croutine.c **** /*-----------------------------------------------------------*/
 219:FreeRTOS/Source/croutine.c **** 
 220:FreeRTOS/Source/croutine.c **** static void prvCheckPendingReadyList( void )
 221:FreeRTOS/Source/croutine.c **** {
 222:FreeRTOS/Source/croutine.c **** 	/* Are there any co-routines waiting to get moved to the ready list?  These
 223:FreeRTOS/Source/croutine.c **** 	are co-routines that have been readied by an ISR.  The ISR cannot access
 224:FreeRTOS/Source/croutine.c **** 	the	ready lists itself. */
 225:FreeRTOS/Source/croutine.c **** 	while( listLIST_IS_EMPTY( &xPendingReadyCoRoutineList ) == pdFALSE )
 226:FreeRTOS/Source/croutine.c **** 	{
 227:FreeRTOS/Source/croutine.c **** 		corCRCB *pxUnblockedCRCB;
 228:FreeRTOS/Source/croutine.c **** 
 229:FreeRTOS/Source/croutine.c **** 		/* The pending ready list can be accessed by an ISR. */
 230:FreeRTOS/Source/croutine.c **** 		portDISABLE_INTERRUPTS();
 231:FreeRTOS/Source/croutine.c **** 		{	
 232:FreeRTOS/Source/croutine.c **** 			pxUnblockedCRCB = ( corCRCB * ) listGET_OWNER_OF_HEAD_ENTRY( (&xPendingReadyCoRoutineList) );			
 233:FreeRTOS/Source/croutine.c **** 			vListRemove( &( pxUnblockedCRCB->xEventListItem ) );
 234:FreeRTOS/Source/croutine.c **** 		}
 235:FreeRTOS/Source/croutine.c **** 		portENABLE_INTERRUPTS();
 236:FreeRTOS/Source/croutine.c **** 
 237:FreeRTOS/Source/croutine.c **** 		vListRemove( &( pxUnblockedCRCB->xGenericListItem ) );
 238:FreeRTOS/Source/croutine.c **** 		prvAddCoRoutineToReadyQueue( pxUnblockedCRCB );	
 239:FreeRTOS/Source/croutine.c **** 	}
 240:FreeRTOS/Source/croutine.c **** }
 241:FreeRTOS/Source/croutine.c **** /*-----------------------------------------------------------*/
 242:FreeRTOS/Source/croutine.c **** 
 243:FreeRTOS/Source/croutine.c **** static void prvCheckDelayedList( void )
 244:FreeRTOS/Source/croutine.c **** {
 245:FreeRTOS/Source/croutine.c **** corCRCB *pxCRCB;
 246:FreeRTOS/Source/croutine.c **** 
 247:FreeRTOS/Source/croutine.c **** 	xPassedTicks = xTaskGetTickCount() - xLastTickCount;
 248:FreeRTOS/Source/croutine.c **** 	while( xPassedTicks )
 249:FreeRTOS/Source/croutine.c **** 	{
 250:FreeRTOS/Source/croutine.c **** 		xCoRoutineTickCount++;
 251:FreeRTOS/Source/croutine.c **** 		xPassedTicks--;
 252:FreeRTOS/Source/croutine.c **** 
 253:FreeRTOS/Source/croutine.c **** 		/* If the tick count has overflowed we need to swap the ready lists. */
 254:FreeRTOS/Source/croutine.c **** 		if( xCoRoutineTickCount == 0 )
 255:FreeRTOS/Source/croutine.c **** 		{
 256:FreeRTOS/Source/croutine.c **** 			xList * pxTemp;
 257:FreeRTOS/Source/croutine.c **** 
 258:FreeRTOS/Source/croutine.c **** 			/* Tick count has overflowed so we need to swap the delay lists.  If there are
 259:FreeRTOS/Source/croutine.c **** 			any items in pxDelayedCoRoutineList here then there is an error! */
 260:FreeRTOS/Source/croutine.c **** 			pxTemp = pxDelayedCoRoutineList;
 261:FreeRTOS/Source/croutine.c **** 			pxDelayedCoRoutineList = pxOverflowDelayedCoRoutineList;
 262:FreeRTOS/Source/croutine.c **** 			pxOverflowDelayedCoRoutineList = pxTemp;
 263:FreeRTOS/Source/croutine.c **** 		}
 264:FreeRTOS/Source/croutine.c **** 
 265:FreeRTOS/Source/croutine.c **** 		/* See if this tick has made a timeout expire. */
 266:FreeRTOS/Source/croutine.c **** 		while( listLIST_IS_EMPTY( pxDelayedCoRoutineList ) == pdFALSE )
 267:FreeRTOS/Source/croutine.c **** 		{
 268:FreeRTOS/Source/croutine.c **** 			pxCRCB = ( corCRCB * ) listGET_OWNER_OF_HEAD_ENTRY( pxDelayedCoRoutineList );
 269:FreeRTOS/Source/croutine.c **** 
 270:FreeRTOS/Source/croutine.c **** 			if( xCoRoutineTickCount < listGET_LIST_ITEM_VALUE( &( pxCRCB->xGenericListItem ) ) )				
 271:FreeRTOS/Source/croutine.c **** 			{			
 272:FreeRTOS/Source/croutine.c **** 				/* Timeout not yet expired. */																			
 273:FreeRTOS/Source/croutine.c **** 				break;																				
 274:FreeRTOS/Source/croutine.c **** 			}																						
 275:FreeRTOS/Source/croutine.c **** 
 276:FreeRTOS/Source/croutine.c **** 			portDISABLE_INTERRUPTS();
 277:FreeRTOS/Source/croutine.c **** 			{
 278:FreeRTOS/Source/croutine.c **** 				/* The event could have occurred just before this critical
 279:FreeRTOS/Source/croutine.c **** 				section.  If this is the case then the generic list item will
 280:FreeRTOS/Source/croutine.c **** 				have been moved to the pending ready list and the following
 281:FreeRTOS/Source/croutine.c **** 				line is still valid.  Also the pvContainer parameter will have
 282:FreeRTOS/Source/croutine.c **** 				been set to NULL so the following lines are also valid. */
 283:FreeRTOS/Source/croutine.c **** 				vListRemove( &( pxCRCB->xGenericListItem ) );											
 284:FreeRTOS/Source/croutine.c **** 
 285:FreeRTOS/Source/croutine.c **** 				/* Is the co-routine waiting on an event also? */												
 286:FreeRTOS/Source/croutine.c **** 				if( pxCRCB->xEventListItem.pvContainer )													
 287:FreeRTOS/Source/croutine.c **** 				{															
 288:FreeRTOS/Source/croutine.c **** 					vListRemove( &( pxCRCB->xEventListItem ) );											
 289:FreeRTOS/Source/croutine.c **** 				}
 290:FreeRTOS/Source/croutine.c **** 			}
 291:FreeRTOS/Source/croutine.c **** 			portENABLE_INTERRUPTS();
 292:FreeRTOS/Source/croutine.c **** 
 293:FreeRTOS/Source/croutine.c **** 			prvAddCoRoutineToReadyQueue( pxCRCB );													
 294:FreeRTOS/Source/croutine.c **** 		}																									
 295:FreeRTOS/Source/croutine.c **** 	}
 296:FreeRTOS/Source/croutine.c **** 
 297:FreeRTOS/Source/croutine.c **** 	xLastTickCount = xCoRoutineTickCount;
 298:FreeRTOS/Source/croutine.c **** }
 299:FreeRTOS/Source/croutine.c **** /*-----------------------------------------------------------*/
 300:FreeRTOS/Source/croutine.c **** 
 301:FreeRTOS/Source/croutine.c **** void vCoRoutineSchedule( void )
 302:FreeRTOS/Source/croutine.c **** {
 303:FreeRTOS/Source/croutine.c **** 	/* See if any co-routines readied by events need moving to the ready lists. */
 304:FreeRTOS/Source/croutine.c **** 	prvCheckPendingReadyList();
 305:FreeRTOS/Source/croutine.c **** 
 306:FreeRTOS/Source/croutine.c **** 	/* See if any delayed co-routines have timed out. */
 307:FreeRTOS/Source/croutine.c **** 	prvCheckDelayedList();
 308:FreeRTOS/Source/croutine.c **** 
 309:FreeRTOS/Source/croutine.c **** 	/* Find the highest priority queue that contains ready co-routines. */
 310:FreeRTOS/Source/croutine.c **** 	while( listLIST_IS_EMPTY( &( pxReadyCoRoutineLists[ uxTopCoRoutineReadyPriority ] ) ) )
 311:FreeRTOS/Source/croutine.c **** 	{
 312:FreeRTOS/Source/croutine.c **** 		if( uxTopCoRoutineReadyPriority == 0 )
 313:FreeRTOS/Source/croutine.c **** 		{
 314:FreeRTOS/Source/croutine.c **** 			/* No more co-routines to check. */
 315:FreeRTOS/Source/croutine.c **** 			return;
 316:FreeRTOS/Source/croutine.c **** 		}
 317:FreeRTOS/Source/croutine.c **** 		--uxTopCoRoutineReadyPriority;
 318:FreeRTOS/Source/croutine.c **** 	}
 319:FreeRTOS/Source/croutine.c **** 
 320:FreeRTOS/Source/croutine.c **** 	/* listGET_OWNER_OF_NEXT_ENTRY walks through the list, so the co-routines
 321:FreeRTOS/Source/croutine.c **** 	 of the	same priority get an equal share of the processor time. */
 322:FreeRTOS/Source/croutine.c **** 	listGET_OWNER_OF_NEXT_ENTRY( pxCurrentCoRoutine, &( pxReadyCoRoutineLists[ uxTopCoRoutineReadyPrio
 323:FreeRTOS/Source/croutine.c **** 
 324:FreeRTOS/Source/croutine.c **** 	/* Call the co-routine. */
 325:FreeRTOS/Source/croutine.c **** 	( pxCurrentCoRoutine->pxCoRoutineFunction )( pxCurrentCoRoutine, pxCurrentCoRoutine->uxIndex );
 326:FreeRTOS/Source/croutine.c **** 
 327:FreeRTOS/Source/croutine.c **** 	return;
 328:FreeRTOS/Source/croutine.c **** }
 329:FreeRTOS/Source/croutine.c **** /*-----------------------------------------------------------*/
 330:FreeRTOS/Source/croutine.c **** 
 331:FreeRTOS/Source/croutine.c **** static void prvInitialiseCoRoutineLists( void )
 332:FreeRTOS/Source/croutine.c **** {
  27              		.loc 1 332 0
  28              		.cfi_startproc
  29              		@ args = 0, pretend = 0, frame = 0
  30              		@ frame_needed = 0, uses_anonymous_args = 0
  31 0000 38B5     		push	{r3, r4, r5, lr}
  32              	.LCFI0:
  33              		.cfi_def_cfa_offset 16
  34              		.cfi_offset 3, -16
  35              		.cfi_offset 4, -12
  36              		.cfi_offset 5, -8
  37              		.cfi_offset 14, -4
  38              	.LVL0:
 333:FreeRTOS/Source/croutine.c **** unsigned portBASE_TYPE uxPriority;
 334:FreeRTOS/Source/croutine.c **** 
 335:FreeRTOS/Source/croutine.c **** 	for( uxPriority = 0; uxPriority < configMAX_CO_ROUTINE_PRIORITIES; uxPriority++ )
  39              		.loc 1 335 0
  40 0002 0024     		movs	r4, #0
 336:FreeRTOS/Source/croutine.c **** 	{
 337:FreeRTOS/Source/croutine.c **** 		vListInitialise( ( xList * ) &( pxReadyCoRoutineLists[ uxPriority ] ) );
  41              		.loc 1 337 0
  42 0004 40F20005 		movw	r5, #:lower16:.LANCHOR0
  43 0008 C0F20005 		movt	r5, #:upper16:.LANCHOR0
 335:FreeRTOS/Source/croutine.c **** 	{
  44              		.loc 1 335 0
  45 000c 06E0     		b	.L2
  46              	.LVL1:
  47              	.L3:
  48              		.loc 1 337 0 discriminator 2
  49 000e 04EB8400 		add	r0, r4, r4, lsl #2
  50 0012 05EB8000 		add	r0, r5, r0, lsl #2
  51 0016 FFF7FEFF 		bl	vListInitialise
  52              	.LVL2:
 335:FreeRTOS/Source/croutine.c **** 	{
  53              		.loc 1 335 0 discriminator 2
  54 001a 0134     		adds	r4, r4, #1
  55              	.LVL3:
  56              	.L2:
 335:FreeRTOS/Source/croutine.c **** 	{
  57              		.loc 1 335 0 is_stmt 0 discriminator 1
  58 001c 012C     		cmp	r4, #1
  59 001e F6D9     		bls	.L3
 338:FreeRTOS/Source/croutine.c **** 	}
 339:FreeRTOS/Source/croutine.c **** 
 340:FreeRTOS/Source/croutine.c **** 	vListInitialise( ( xList * ) &xDelayedCoRoutineList1 );
  60              		.loc 1 340 0 is_stmt 1
  61 0020 40F20005 		movw	r5, #:lower16:.LANCHOR1
  62 0024 C0F20005 		movt	r5, #:upper16:.LANCHOR1
  63 0028 2846     		mov	r0, r5
  64 002a FFF7FEFF 		bl	vListInitialise
  65              	.LVL4:
 341:FreeRTOS/Source/croutine.c **** 	vListInitialise( ( xList * ) &xDelayedCoRoutineList2 );
  66              		.loc 1 341 0
  67 002e 40F20004 		movw	r4, #:lower16:.LANCHOR2
  68              	.LVL5:
  69 0032 C0F20004 		movt	r4, #:upper16:.LANCHOR2
  70 0036 2046     		mov	r0, r4
  71 0038 FFF7FEFF 		bl	vListInitialise
  72              	.LVL6:
 342:FreeRTOS/Source/croutine.c **** 	vListInitialise( ( xList * ) &xPendingReadyCoRoutineList );
  73              		.loc 1 342 0
  74 003c 40F20000 		movw	r0, #:lower16:.LANCHOR3
  75 0040 C0F20000 		movt	r0, #:upper16:.LANCHOR3
  76 0044 FFF7FEFF 		bl	vListInitialise
  77              	.LVL7:
 343:FreeRTOS/Source/croutine.c **** 
 344:FreeRTOS/Source/croutine.c **** 	/* Start with pxDelayedCoRoutineList using list1 and the
 345:FreeRTOS/Source/croutine.c **** 	pxOverflowDelayedCoRoutineList using list2. */
 346:FreeRTOS/Source/croutine.c **** 	pxDelayedCoRoutineList = &xDelayedCoRoutineList1;
  78              		.loc 1 346 0
  79 0048 40F20003 		movw	r3, #:lower16:.LANCHOR4
  80 004c C0F20003 		movt	r3, #:upper16:.LANCHOR4
  81 0050 1D60     		str	r5, [r3]
 347:FreeRTOS/Source/croutine.c **** 	pxOverflowDelayedCoRoutineList = &xDelayedCoRoutineList2;
  82              		.loc 1 347 0
  83 0052 40F20003 		movw	r3, #:lower16:.LANCHOR5
  84 0056 C0F20003 		movt	r3, #:upper16:.LANCHOR5
  85 005a 1C60     		str	r4, [r3]
  86 005c 38BD     		pop	{r3, r4, r5, pc}
  87              		.cfi_endproc
  88              	.LFE115:
  90 005e 00BF     		.section	.text.prvCheckPendingReadyList,"ax",%progbits
  91              		.align	2
  92              		.thumb
  93              		.thumb_func
  95              	prvCheckPendingReadyList:
  96              	.LFB112:
 221:FreeRTOS/Source/croutine.c **** 	/* Are there any co-routines waiting to get moved to the ready list?  These
  97              		.loc 1 221 0
  98              		.cfi_startproc
  99              		@ args = 0, pretend = 0, frame = 0
 100              		@ frame_needed = 0, uses_anonymous_args = 0
 101 0000 2DE9F041 		push	{r4, r5, r6, r7, r8, lr}
 102              	.LCFI1:
 103              		.cfi_def_cfa_offset 24
 104              		.cfi_offset 4, -24
 105              		.cfi_offset 5, -20
 106              		.cfi_offset 6, -16
 107              		.cfi_offset 7, -12
 108              		.cfi_offset 8, -8
 109              		.cfi_offset 14, -4
 225:FreeRTOS/Source/croutine.c **** 	{
 110              		.loc 1 225 0
 111 0004 40F20006 		movw	r6, #:lower16:.LANCHOR3
 112 0008 C0F20006 		movt	r6, #:upper16:.LANCHOR3
 113              	.LBB2:
 238:FreeRTOS/Source/croutine.c **** 	}
 114              		.loc 1 238 0
 115 000c 40F20007 		movw	r7, #:lower16:.LANCHOR6
 116 0010 C0F20007 		movt	r7, #:upper16:.LANCHOR6
 117 0014 40F20008 		movw	r8, #:lower16:.LANCHOR0
 118 0018 C0F20008 		movt	r8, #:upper16:.LANCHOR0
 119              	.LBE2:
 225:FreeRTOS/Source/croutine.c **** 	{
 120              		.loc 1 225 0
 121 001c 1DE0     		b	.L5
 122              	.L7:
 123              	.LBB3:
 230:FreeRTOS/Source/croutine.c **** 		{	
 124              		.loc 1 230 0
 125              	@ 230 "FreeRTOS/Source/croutine.c" 1
 126 001e 4FF0BF00 			mov r0, #191								
 127 0022 80F31188 		msr basepri, r0							
 128              	
 129              	@ 0 "" 2
 232:FreeRTOS/Source/croutine.c **** 			vListRemove( &( pxUnblockedCRCB->xEventListItem ) );
 130              		.loc 1 232 0
 131              		.thumb
 132 0026 F368     		ldr	r3, [r6, #12]
 133 0028 DC68     		ldr	r4, [r3, #12]
 134              	.LVL8:
 233:FreeRTOS/Source/croutine.c **** 		}
 135              		.loc 1 233 0
 136 002a 04F11800 		add	r0, r4, #24
 137 002e FFF7FEFF 		bl	vListRemove
 138              	.LVL9:
 235:FreeRTOS/Source/croutine.c **** 
 139              		.loc 1 235 0
 140              	@ 235 "FreeRTOS/Source/croutine.c" 1
 141 0032 4FF00000 			mov r0, #0					
 142 0036 80F31188 		msr basepri, r0				
 143              	
 144              	@ 0 "" 2
 237:FreeRTOS/Source/croutine.c **** 		prvAddCoRoutineToReadyQueue( pxUnblockedCRCB );	
 145              		.loc 1 237 0
 146              		.thumb
 147 003a 251D     		adds	r5, r4, #4
 148 003c 2846     		mov	r0, r5
 149 003e FFF7FEFF 		bl	vListRemove
 150              	.LVL10:
 238:FreeRTOS/Source/croutine.c **** 	}
 151              		.loc 1 238 0
 152 0042 E36A     		ldr	r3, [r4, #44]
 153 0044 3A68     		ldr	r2, [r7]
 154 0046 9342     		cmp	r3, r2
 155 0048 88BF     		it	hi
 156 004a 3B60     		strhi	r3, [r7]
 157 004c 03EB8300 		add	r0, r3, r3, lsl #2
 158 0050 08EB8000 		add	r0, r8, r0, lsl #2
 159 0054 2946     		mov	r1, r5
 160 0056 FFF7FEFF 		bl	vListInsertEnd
 161              	.LVL11:
 162              	.L5:
 163              	.LBE3:
 225:FreeRTOS/Source/croutine.c **** 	{
 164              		.loc 1 225 0 discriminator 1
 165 005a 3368     		ldr	r3, [r6]
 166 005c 002B     		cmp	r3, #0
 167 005e DED1     		bne	.L7
 240:FreeRTOS/Source/croutine.c **** /*-----------------------------------------------------------*/
 168              		.loc 1 240 0
 169 0060 BDE8F081 		pop	{r4, r5, r6, r7, r8, pc}
 170              		.cfi_endproc
 171              	.LFE112:
 173              		.section	.text.prvCheckDelayedList,"ax",%progbits
 174              		.align	2
 175              		.thumb
 176              		.thumb_func
 178              	prvCheckDelayedList:
 179              	.LFB113:
 244:FreeRTOS/Source/croutine.c **** corCRCB *pxCRCB;
 180              		.loc 1 244 0
 181              		.cfi_startproc
 182              		@ args = 0, pretend = 0, frame = 0
 183              		@ frame_needed = 0, uses_anonymous_args = 0
 184 0000 2DE9F84F 		push	{r3, r4, r5, r6, r7, r8, r9, r10, fp, lr}
 185              	.LCFI2:
 186              		.cfi_def_cfa_offset 40
 187              		.cfi_offset 3, -40
 188              		.cfi_offset 4, -36
 189              		.cfi_offset 5, -32
 190              		.cfi_offset 6, -28
 191              		.cfi_offset 7, -24
 192              		.cfi_offset 8, -20
 193              		.cfi_offset 9, -16
 194              		.cfi_offset 10, -12
 195              		.cfi_offset 11, -8
 196              		.cfi_offset 14, -4
 247:FreeRTOS/Source/croutine.c **** 	while( xPassedTicks )
 197              		.loc 1 247 0
 198 0004 FFF7FEFF 		bl	xTaskGetTickCount
 199              	.LVL12:
 200 0008 40F20003 		movw	r3, #:lower16:.LANCHOR7
 201 000c C0F20003 		movt	r3, #:upper16:.LANCHOR7
 202 0010 1B68     		ldr	r3, [r3]
 203 0012 C01A     		subs	r0, r0, r3
 204 0014 40F20003 		movw	r3, #:lower16:.LANCHOR8
 205 0018 C0F20003 		movt	r3, #:upper16:.LANCHOR8
 206 001c 1860     		str	r0, [r3]
 248:FreeRTOS/Source/croutine.c **** 	{
 207              		.loc 1 248 0
 208 001e 9A46     		mov	r10, r3
 250:FreeRTOS/Source/croutine.c **** 		xPassedTicks--;
 209              		.loc 1 250 0
 210 0020 40F20007 		movw	r7, #:lower16:.LANCHOR9
 211 0024 C0F20007 		movt	r7, #:upper16:.LANCHOR9
 212              	.LBB4:
 260:FreeRTOS/Source/croutine.c **** 			pxDelayedCoRoutineList = pxOverflowDelayedCoRoutineList;
 213              		.loc 1 260 0
 214 0028 40F20008 		movw	r8, #:lower16:.LANCHOR4
 215 002c C0F20008 		movt	r8, #:upper16:.LANCHOR4
 261:FreeRTOS/Source/croutine.c **** 			pxOverflowDelayedCoRoutineList = pxTemp;
 216              		.loc 1 261 0
 217 0030 40F2000B 		movw	fp, #:lower16:.LANCHOR5
 218 0034 C0F2000B 		movt	fp, #:upper16:.LANCHOR5
 219              	.LBE4:
 293:FreeRTOS/Source/croutine.c **** 		}																									
 220              		.loc 1 293 0
 221 0038 40F20006 		movw	r6, #:lower16:.LANCHOR6
 222 003c C0F20006 		movt	r6, #:upper16:.LANCHOR6
 223 0040 40F20009 		movw	r9, #:lower16:.LANCHOR0
 224 0044 C0F20009 		movt	r9, #:upper16:.LANCHOR0
 248:FreeRTOS/Source/croutine.c **** 	{
 225              		.loc 1 248 0
 226 0048 38E0     		b	.L16
 227              	.L15:
 250:FreeRTOS/Source/croutine.c **** 		xPassedTicks--;
 228              		.loc 1 250 0
 229 004a 3A68     		ldr	r2, [r7]
 230 004c 0132     		adds	r2, r2, #1
 231 004e 3A60     		str	r2, [r7]
 251:FreeRTOS/Source/croutine.c **** 
 232              		.loc 1 251 0
 233 0050 013B     		subs	r3, r3, #1
 234 0052 CAF80030 		str	r3, [r10]
 254:FreeRTOS/Source/croutine.c **** 		{
 235              		.loc 1 254 0
 236 0056 62BB     		cbnz	r2, .L17
 237              	.LBB5:
 260:FreeRTOS/Source/croutine.c **** 			pxDelayedCoRoutineList = pxOverflowDelayedCoRoutineList;
 238              		.loc 1 260 0
 239 0058 D8F80020 		ldr	r2, [r8]
 240              	.LVL13:
 261:FreeRTOS/Source/croutine.c **** 			pxOverflowDelayedCoRoutineList = pxTemp;
 241              		.loc 1 261 0
 242 005c DBF80030 		ldr	r3, [fp]
 243 0060 C8F80030 		str	r3, [r8]
 262:FreeRTOS/Source/croutine.c **** 		}
 244              		.loc 1 262 0
 245 0064 CBF80020 		str	r2, [fp]
 246 0068 23E0     		b	.L17
 247              	.LVL14:
 248              	.L14:
 249              	.LBE5:
 268:FreeRTOS/Source/croutine.c **** 
 250              		.loc 1 268 0
 251 006a DB68     		ldr	r3, [r3, #12]
 252 006c DC68     		ldr	r4, [r3, #12]
 253              	.LVL15:
 270:FreeRTOS/Source/croutine.c **** 			{			
 254              		.loc 1 270 0
 255 006e 6268     		ldr	r2, [r4, #4]
 256 0070 3B68     		ldr	r3, [r7]
 257 0072 9A42     		cmp	r2, r3
 258 0074 22D8     		bhi	.L16
 276:FreeRTOS/Source/croutine.c **** 			{
 259              		.loc 1 276 0
 260              	@ 276 "FreeRTOS/Source/croutine.c" 1
 261 0076 4FF0BF00 			mov r0, #191								
 262 007a 80F31188 		msr basepri, r0							
 263              	
 264              	@ 0 "" 2
 283:FreeRTOS/Source/croutine.c **** 
 265              		.loc 1 283 0
 266              		.thumb
 267 007e 251D     		adds	r5, r4, #4
 268 0080 2846     		mov	r0, r5
 269 0082 FFF7FEFF 		bl	vListRemove
 270              	.LVL16:
 286:FreeRTOS/Source/croutine.c **** 				{															
 271              		.loc 1 286 0
 272 0086 A36A     		ldr	r3, [r4, #40]
 273 0088 1BB1     		cbz	r3, .L12
 288:FreeRTOS/Source/croutine.c **** 				}
 274              		.loc 1 288 0
 275 008a 04F11800 		add	r0, r4, #24
 276 008e FFF7FEFF 		bl	vListRemove
 277              	.LVL17:
 278              	.L12:
 291:FreeRTOS/Source/croutine.c **** 
 279              		.loc 1 291 0
 280              	@ 291 "FreeRTOS/Source/croutine.c" 1
 281 0092 4FF00000 			mov r0, #0					
 282 0096 80F31188 		msr basepri, r0				
 283              	
 284              	@ 0 "" 2
 293:FreeRTOS/Source/croutine.c **** 		}																									
 285              		.loc 1 293 0
 286              		.thumb
 287 009a E06A     		ldr	r0, [r4, #44]
 288 009c 3368     		ldr	r3, [r6]
 289 009e 9842     		cmp	r0, r3
 290 00a0 88BF     		it	hi
 291 00a2 3060     		strhi	r0, [r6]
 292 00a4 00EB8000 		add	r0, r0, r0, lsl #2
 293 00a8 09EB8000 		add	r0, r9, r0, lsl #2
 294 00ac 2946     		mov	r1, r5
 295 00ae FFF7FEFF 		bl	vListInsertEnd
 296              	.LVL18:
 297              	.L17:
 266:FreeRTOS/Source/croutine.c **** 		{
 298              		.loc 1 266 0 discriminator 1
 299 00b2 D8F80030 		ldr	r3, [r8]
 300 00b6 1A68     		ldr	r2, [r3]
 301 00b8 002A     		cmp	r2, #0
 302 00ba D6D1     		bne	.L14
 303              	.L16:
 248:FreeRTOS/Source/croutine.c **** 	{
 304              		.loc 1 248 0 discriminator 1
 305 00bc DAF80030 		ldr	r3, [r10]
 306 00c0 002B     		cmp	r3, #0
 307 00c2 C2D1     		bne	.L15
 297:FreeRTOS/Source/croutine.c **** }
 308              		.loc 1 297 0
 309 00c4 40F20003 		movw	r3, #:lower16:.LANCHOR7
 310 00c8 C0F20003 		movt	r3, #:upper16:.LANCHOR7
 311 00cc 40F20002 		movw	r2, #:lower16:.LANCHOR9
 312 00d0 C0F20002 		movt	r2, #:upper16:.LANCHOR9
 313 00d4 1268     		ldr	r2, [r2]
 314 00d6 1A60     		str	r2, [r3]
 315 00d8 BDE8F88F 		pop	{r3, r4, r5, r6, r7, r8, r9, r10, fp, pc}
 316              		.cfi_endproc
 317              	.LFE113:
 319              		.section	.text.xCoRoutineCreate,"ax",%progbits
 320              		.align	2
 321              		.global	xCoRoutineCreate
 322              		.thumb
 323              		.thumb_func
 325              	xCoRoutineCreate:
 326              	.LFB110:
 126:FreeRTOS/Source/croutine.c **** signed portBASE_TYPE xReturn;
 327              		.loc 1 126 0
 328              		.cfi_startproc
 329              		@ args = 0, pretend = 0, frame = 0
 330              		@ frame_needed = 0, uses_anonymous_args = 0
 331              	.LVL19:
 332 0000 F8B5     		push	{r3, r4, r5, r6, r7, lr}
 333              	.LCFI3:
 334              		.cfi_def_cfa_offset 24
 335              		.cfi_offset 3, -24
 336              		.cfi_offset 4, -20
 337              		.cfi_offset 5, -16
 338              		.cfi_offset 6, -12
 339              		.cfi_offset 7, -8
 340              		.cfi_offset 14, -4
 341 0002 0746     		mov	r7, r0
 342 0004 0D46     		mov	r5, r1
 343 0006 1646     		mov	r6, r2
 131:FreeRTOS/Source/croutine.c **** 	if( pxCoRoutine )
 344              		.loc 1 131 0
 345 0008 3820     		movs	r0, #56
 346              	.LVL20:
 347 000a FFF7FEFF 		bl	malloc
 348              	.LVL21:
 132:FreeRTOS/Source/croutine.c **** 	{
 349              		.loc 1 132 0
 350 000e 0446     		mov	r4, r0
 351 0010 0028     		cmp	r0, #0
 352 0012 3CD0     		beq	.L23
 136:FreeRTOS/Source/croutine.c **** 		{
 353              		.loc 1 136 0
 354 0014 40F20003 		movw	r3, #:lower16:.LANCHOR10
 355 0018 C0F20003 		movt	r3, #:upper16:.LANCHOR10
 356 001c 1B68     		ldr	r3, [r3]
 357 001e 33B9     		cbnz	r3, .L20
 138:FreeRTOS/Source/croutine.c **** 			prvInitialiseCoRoutineLists();
 358              		.loc 1 138 0
 359 0020 40F20003 		movw	r3, #:lower16:.LANCHOR10
 360 0024 C0F20003 		movt	r3, #:upper16:.LANCHOR10
 361 0028 1860     		str	r0, [r3]
 139:FreeRTOS/Source/croutine.c **** 		}
 362              		.loc 1 139 0
 363 002a FFF7FEFF 		bl	prvInitialiseCoRoutineLists
 364              	.LVL22:
 365              	.L20:
 145:FreeRTOS/Source/croutine.c **** 		}
 366              		.loc 1 145 0
 367 002e 012D     		cmp	r5, #1
 368 0030 28BF     		it	cs
 369 0032 0125     		movcs	r5, #1
 370              	.LVL23:
 149:FreeRTOS/Source/croutine.c **** 		pxCoRoutine->uxPriority = uxPriority;
 371              		.loc 1 149 0
 372 0034 0023     		movs	r3, #0
 373 0036 A386     		strh	r3, [r4, #52]	@ movhi
 150:FreeRTOS/Source/croutine.c **** 		pxCoRoutine->uxIndex = uxIndex;
 374              		.loc 1 150 0
 375 0038 E562     		str	r5, [r4, #44]
 151:FreeRTOS/Source/croutine.c **** 		pxCoRoutine->pxCoRoutineFunction = pxCoRoutineCode;
 376              		.loc 1 151 0
 377 003a 2663     		str	r6, [r4, #48]
 152:FreeRTOS/Source/croutine.c **** 
 378              		.loc 1 152 0
 379 003c 2646     		mov	r6, r4
 380              	.LVL24:
 381 003e 46F8047B 		str	r7, [r6], #4
 382              	.LVL25:
 155:FreeRTOS/Source/croutine.c **** 		vListInitialiseItem( &( pxCoRoutine->xEventListItem ) );
 383              		.loc 1 155 0
 384 0042 3046     		mov	r0, r6
 385 0044 FFF7FEFF 		bl	vListInitialiseItem
 386              	.LVL26:
 156:FreeRTOS/Source/croutine.c **** 
 387              		.loc 1 156 0
 388 0048 04F11800 		add	r0, r4, #24
 389 004c FFF7FEFF 		bl	vListInitialiseItem
 390              	.LVL27:
 161:FreeRTOS/Source/croutine.c **** 		listSET_LIST_ITEM_OWNER( &( pxCoRoutine->xEventListItem ), pxCoRoutine );
 391              		.loc 1 161 0
 392 0050 2461     		str	r4, [r4, #16]
 162:FreeRTOS/Source/croutine.c **** 	
 393              		.loc 1 162 0
 394 0052 6462     		str	r4, [r4, #36]
 165:FreeRTOS/Source/croutine.c **** 		
 395              		.loc 1 165 0
 396 0054 C5F10505 		rsb	r5, r5, #5
 397              	.LVL28:
 398 0058 A561     		str	r5, [r4, #24]
 169:FreeRTOS/Source/croutine.c **** 
 399              		.loc 1 169 0
 400 005a E36A     		ldr	r3, [r4, #44]
 401 005c 40F20002 		movw	r2, #:lower16:.LANCHOR6
 402 0060 C0F20002 		movt	r2, #:upper16:.LANCHOR6
 403 0064 1268     		ldr	r2, [r2]
 404 0066 9342     		cmp	r3, r2
 405 0068 82BF     		ittt	hi
 406 006a 40F20002 		movwhi	r2, #:lower16:.LANCHOR6
 407 006e C0F20002 		movthi	r2, #:upper16:.LANCHOR6
 408 0072 1360     		strhi	r3, [r2]
 409 0074 40F20000 		movw	r0, #:lower16:.LANCHOR0
 410 0078 C0F20000 		movt	r0, #:upper16:.LANCHOR0
 411 007c 03EB8303 		add	r3, r3, r3, lsl #2
 412 0080 00EB8300 		add	r0, r0, r3, lsl #2
 413 0084 3146     		mov	r1, r6
 414 0086 FFF7FEFF 		bl	vListInsertEnd
 415              	.LVL29:
 171:FreeRTOS/Source/croutine.c **** 	}
 416              		.loc 1 171 0
 417 008a 0120     		movs	r0, #1
 418 008c F8BD     		pop	{r3, r4, r5, r6, r7, pc}
 419              	.LVL30:
 420              	.L23:
 175:FreeRTOS/Source/croutine.c **** 	}
 421              		.loc 1 175 0
 422 008e 4FF0FF30 		mov	r0, #-1
 423              	.LVL31:
 179:FreeRTOS/Source/croutine.c **** /*-----------------------------------------------------------*/
 424              		.loc 1 179 0
 425 0092 F8BD     		pop	{r3, r4, r5, r6, r7, pc}
 426              		.cfi_endproc
 427              	.LFE110:
 429              		.section	.text.vCoRoutineAddToDelayedList,"ax",%progbits
 430              		.align	2
 431              		.global	vCoRoutineAddToDelayedList
 432              		.thumb
 433              		.thumb_func
 435              	vCoRoutineAddToDelayedList:
 436              	.LFB111:
 183:FreeRTOS/Source/croutine.c **** portTickType xTimeToWake;
 437              		.loc 1 183 0
 438              		.cfi_startproc
 439              		@ args = 0, pretend = 0, frame = 0
 440              		@ frame_needed = 0, uses_anonymous_args = 0
 441              	.LVL32:
 442 0000 F8B5     		push	{r3, r4, r5, r6, r7, lr}
 443              	.LCFI4:
 444              		.cfi_def_cfa_offset 24
 445              		.cfi_offset 3, -24
 446              		.cfi_offset 4, -20
 447              		.cfi_offset 5, -16
 448              		.cfi_offset 6, -12
 449              		.cfi_offset 7, -8
 450              		.cfi_offset 14, -4
 451 0002 0F46     		mov	r7, r1
 188:FreeRTOS/Source/croutine.c **** 
 452              		.loc 1 188 0
 453 0004 40F20004 		movw	r4, #:lower16:.LANCHOR9
 454 0008 C0F20004 		movt	r4, #:upper16:.LANCHOR9
 455 000c 2668     		ldr	r6, [r4]
 456 000e 0644     		add	r6, r6, r0
 457              	.LVL33:
 193:FreeRTOS/Source/croutine.c **** 
 458              		.loc 1 193 0
 459 0010 40F20005 		movw	r5, #:lower16:.LANCHOR10
 460 0014 C0F20005 		movt	r5, #:upper16:.LANCHOR10
 461 0018 2868     		ldr	r0, [r5]
 462              	.LVL34:
 463 001a 0430     		adds	r0, r0, #4
 464 001c FFF7FEFF 		bl	vListRemove
 465              	.LVL35:
 196:FreeRTOS/Source/croutine.c **** 
 466              		.loc 1 196 0
 467 0020 2968     		ldr	r1, [r5]
 468 0022 4E60     		str	r6, [r1, #4]
 198:FreeRTOS/Source/croutine.c **** 	{
 469              		.loc 1 198 0
 470 0024 2268     		ldr	r2, [r4]
 471 0026 9642     		cmp	r6, r2
 202:FreeRTOS/Source/croutine.c **** 	}
 472              		.loc 1 202 0
 473 0028 39BF     		ittee	cc
 474 002a 40F20002 		movwcc	r2, #:lower16:.LANCHOR5
 475 002e C0F20002 		movtcc	r2, #:upper16:.LANCHOR5
 208:FreeRTOS/Source/croutine.c **** 	}
 476              		.loc 1 208 0
 477 0032 40F20002 		movwcs	r2, #:lower16:.LANCHOR4
 478 0036 C0F20002 		movtcs	r2, #:upper16:.LANCHOR4
 479 003a 1068     		ldr	r0, [r2]
 480 003c 0431     		adds	r1, r1, #4
 481 003e FFF7FEFF 		bl	vListInsert
 482              	.LVL36:
 211:FreeRTOS/Source/croutine.c **** 	{
 483              		.loc 1 211 0
 484 0042 47B1     		cbz	r7, .L25
 215:FreeRTOS/Source/croutine.c **** 	}
 485              		.loc 1 215 0
 486 0044 40F20003 		movw	r3, #:lower16:.LANCHOR10
 487 0048 C0F20003 		movt	r3, #:upper16:.LANCHOR10
 488 004c 1968     		ldr	r1, [r3]
 489 004e 3846     		mov	r0, r7
 490 0050 1831     		adds	r1, r1, #24
 491 0052 FFF7FEFF 		bl	vListInsert
 492              	.LVL37:
 493              	.L25:
 494 0056 F8BD     		pop	{r3, r4, r5, r6, r7, pc}
 495              		.cfi_endproc
 496              	.LFE111:
 498              		.section	.text.vCoRoutineSchedule,"ax",%progbits
 499              		.align	2
 500              		.global	vCoRoutineSchedule
 501              		.thumb
 502              		.thumb_func
 504              	vCoRoutineSchedule:
 505              	.LFB114:
 302:FreeRTOS/Source/croutine.c **** 	/* See if any co-routines readied by events need moving to the ready lists. */
 506              		.loc 1 302 0
 507              		.cfi_startproc
 508              		@ args = 0, pretend = 0, frame = 0
 509              		@ frame_needed = 0, uses_anonymous_args = 0
 510 0000 08B5     		push	{r3, lr}
 511              	.LCFI5:
 512              		.cfi_def_cfa_offset 8
 513              		.cfi_offset 3, -8
 514              		.cfi_offset 14, -4
 304:FreeRTOS/Source/croutine.c **** 
 515              		.loc 1 304 0
 516 0002 FFF7FEFF 		bl	prvCheckPendingReadyList
 517              	.LVL38:
 307:FreeRTOS/Source/croutine.c **** 
 518              		.loc 1 307 0
 519 0006 FFF7FEFF 		bl	prvCheckDelayedList
 520              	.LVL39:
 310:FreeRTOS/Source/croutine.c **** 	{
 521              		.loc 1 310 0
 522 000a 40F20002 		movw	r2, #:lower16:.LANCHOR6
 523 000e C0F20002 		movt	r2, #:upper16:.LANCHOR6
 524 0012 40F20000 		movw	r0, #:lower16:.LANCHOR0
 525 0016 C0F20000 		movt	r0, #:upper16:.LANCHOR0
 526 001a 02E0     		b	.L30
 527              	.L32:
 312:FreeRTOS/Source/croutine.c **** 		{
 528              		.loc 1 312 0
 529 001c 23B3     		cbz	r3, .L29
 317:FreeRTOS/Source/croutine.c **** 	}
 530              		.loc 1 317 0
 531 001e 013B     		subs	r3, r3, #1
 532 0020 1360     		str	r3, [r2]
 533              	.L30:
 310:FreeRTOS/Source/croutine.c **** 	{
 534              		.loc 1 310 0 discriminator 1
 535 0022 1368     		ldr	r3, [r2]
 536 0024 03EB8301 		add	r1, r3, r3, lsl #2
 537 0028 50F82110 		ldr	r1, [r0, r1, lsl #2]
 538 002c 0029     		cmp	r1, #0
 539 002e F5D0     		beq	.L32
 540              	.LBB6:
 322:FreeRTOS/Source/croutine.c **** 
 541              		.loc 1 322 0
 542 0030 40F20002 		movw	r2, #:lower16:.LANCHOR0
 543 0034 C0F20002 		movt	r2, #:upper16:.LANCHOR0
 544 0038 03EB8303 		add	r3, r3, r3, lsl #2
 545 003c 02EB8303 		add	r3, r2, r3, lsl #2
 546              	.LVL40:
 547 0040 5A68     		ldr	r2, [r3, #4]
 548 0042 5268     		ldr	r2, [r2, #4]
 549 0044 5A60     		str	r2, [r3, #4]
 550 0046 03F10801 		add	r1, r3, #8
 551 004a 8A42     		cmp	r2, r1
 552 004c 04BF     		itt	eq
 553 004e 5268     		ldreq	r2, [r2, #4]
 554 0050 5A60     		streq	r2, [r3, #4]
 555 0052 5B68     		ldr	r3, [r3, #4]
 556              	.LVL41:
 557 0054 DB68     		ldr	r3, [r3, #12]
 558 0056 40F20002 		movw	r2, #:lower16:.LANCHOR10
 559 005a C0F20002 		movt	r2, #:upper16:.LANCHOR10
 560 005e 1360     		str	r3, [r2]
 561              	.LBE6:
 325:FreeRTOS/Source/croutine.c **** 
 562              		.loc 1 325 0
 563 0060 1A68     		ldr	r2, [r3]
 564 0062 1846     		mov	r0, r3
 565 0064 196B     		ldr	r1, [r3, #48]
 566              	.LVL42:
 567 0066 9047     		blx	r2
 568              	.LVL43:
 569              	.L29:
 570 0068 08BD     		pop	{r3, pc}
 571              		.cfi_endproc
 572              	.LFE114:
 574 006a 00BF     		.section	.text.xCoRoutineRemoveFromEventList,"ax",%progbits
 575              		.align	2
 576              		.global	xCoRoutineRemoveFromEventList
 577              		.thumb
 578              		.thumb_func
 580              	xCoRoutineRemoveFromEventList:
 581              	.LFB116:
 348:FreeRTOS/Source/croutine.c **** }
 349:FreeRTOS/Source/croutine.c **** /*-----------------------------------------------------------*/
 350:FreeRTOS/Source/croutine.c **** 
 351:FreeRTOS/Source/croutine.c **** signed portBASE_TYPE xCoRoutineRemoveFromEventList( const xList *pxEventList )
 352:FreeRTOS/Source/croutine.c **** {
 582              		.loc 1 352 0
 583              		.cfi_startproc
 584              		@ args = 0, pretend = 0, frame = 0
 585              		@ frame_needed = 0, uses_anonymous_args = 0
 586              	.LVL44:
 587 0000 38B5     		push	{r3, r4, r5, lr}
 588              	.LCFI6:
 589              		.cfi_def_cfa_offset 16
 590              		.cfi_offset 3, -16
 591              		.cfi_offset 4, -12
 592              		.cfi_offset 5, -8
 593              		.cfi_offset 14, -4
 353:FreeRTOS/Source/croutine.c **** corCRCB *pxUnblockedCRCB;
 354:FreeRTOS/Source/croutine.c **** signed portBASE_TYPE xReturn;
 355:FreeRTOS/Source/croutine.c **** 
 356:FreeRTOS/Source/croutine.c **** 	/* This function is called from within an interrupt.  It can only access
 357:FreeRTOS/Source/croutine.c **** 	event lists and the pending ready list.  This function assumes that a
 358:FreeRTOS/Source/croutine.c **** 	check has already been made to ensure pxEventList is not empty. */
 359:FreeRTOS/Source/croutine.c **** 	pxUnblockedCRCB = ( corCRCB * ) listGET_OWNER_OF_HEAD_ENTRY( pxEventList );
 594              		.loc 1 359 0
 595 0002 C368     		ldr	r3, [r0, #12]
 596 0004 DC68     		ldr	r4, [r3, #12]
 597              	.LVL45:
 360:FreeRTOS/Source/croutine.c **** 	vListRemove( &( pxUnblockedCRCB->xEventListItem ) );
 598              		.loc 1 360 0
 599 0006 04F11805 		add	r5, r4, #24
 600 000a 2846     		mov	r0, r5
 601              	.LVL46:
 602 000c FFF7FEFF 		bl	vListRemove
 603              	.LVL47:
 361:FreeRTOS/Source/croutine.c **** 	vListInsertEnd( ( xList * ) &( xPendingReadyCoRoutineList ), &( pxUnblockedCRCB->xEventListItem ) 
 604              		.loc 1 361 0
 605 0010 40F20000 		movw	r0, #:lower16:.LANCHOR3
 606 0014 C0F20000 		movt	r0, #:upper16:.LANCHOR3
 607 0018 2946     		mov	r1, r5
 608 001a FFF7FEFF 		bl	vListInsertEnd
 609              	.LVL48:
 362:FreeRTOS/Source/croutine.c **** 
 363:FreeRTOS/Source/croutine.c **** 	if( pxUnblockedCRCB->uxPriority >= pxCurrentCoRoutine->uxPriority )
 610              		.loc 1 363 0
 611 001e E06A     		ldr	r0, [r4, #44]
 612 0020 40F20003 		movw	r3, #:lower16:.LANCHOR10
 613 0024 C0F20003 		movt	r3, #:upper16:.LANCHOR10
 614 0028 1B68     		ldr	r3, [r3]
 615 002a DB6A     		ldr	r3, [r3, #44]
 616              	.LVL49:
 364:FreeRTOS/Source/croutine.c **** 	{
 365:FreeRTOS/Source/croutine.c **** 		xReturn = pdTRUE;
 366:FreeRTOS/Source/croutine.c **** 	}
 367:FreeRTOS/Source/croutine.c **** 	else
 368:FreeRTOS/Source/croutine.c **** 	{
 369:FreeRTOS/Source/croutine.c **** 		xReturn = pdFALSE;
 370:FreeRTOS/Source/croutine.c **** 	}
 371:FreeRTOS/Source/croutine.c **** 
 372:FreeRTOS/Source/croutine.c **** 	return xReturn;
 373:FreeRTOS/Source/croutine.c **** }
 617              		.loc 1 373 0
 618 002c 9842     		cmp	r0, r3
 619 002e 34BF     		ite	cc
 620 0030 0020     		movcc	r0, #0
 621              	.LVL50:
 622 0032 0120     		movcs	r0, #1
 623 0034 38BD     		pop	{r3, r4, r5, pc}
 624              		.cfi_endproc
 625              	.LFE116:
 627              		.global	pxCurrentCoRoutine
 628 0036 00BF     		.section	.bss.xDelayedCoRoutineList1,"aw",%nobits
 629              		.align	2
 630              		.set	.LANCHOR1,. + 0
 633              	xDelayedCoRoutineList1:
 634 0000 00000000 		.space	20
 634      00000000 
 634      00000000 
 634      00000000 
 634      00000000 
 635              		.section	.bss.xPassedTicks,"aw",%nobits
 636              		.align	2
 637              		.set	.LANCHOR8,. + 0
 640              	xPassedTicks:
 641 0000 00000000 		.space	4
 642              		.section	.bss.xPendingReadyCoRoutineList,"aw",%nobits
 643              		.align	2
 644              		.set	.LANCHOR3,. + 0
 647              	xPendingReadyCoRoutineList:
 648 0000 00000000 		.space	20
 648      00000000 
 648      00000000 
 648      00000000 
 648      00000000 
 649              		.section	.bss.pxCurrentCoRoutine,"aw",%nobits
 650              		.align	2
 651              		.set	.LANCHOR10,. + 0
 654              	pxCurrentCoRoutine:
 655 0000 00000000 		.space	4
 656              		.section	.bss.xDelayedCoRoutineList2,"aw",%nobits
 657              		.align	2
 658              		.set	.LANCHOR2,. + 0
 661              	xDelayedCoRoutineList2:
 662 0000 00000000 		.space	20
 662      00000000 
 662      00000000 
 662      00000000 
 662      00000000 
 663              		.section	.bss.xCoRoutineTickCount,"aw",%nobits
 664              		.align	2
 665              		.set	.LANCHOR9,. + 0
 668              	xCoRoutineTickCount:
 669 0000 00000000 		.space	4
 670              		.section	.bss.xLastTickCount,"aw",%nobits
 671              		.align	2
 672              		.set	.LANCHOR7,. + 0
 675              	xLastTickCount:
 676 0000 00000000 		.space	4
 677              		.section	.bss.pxDelayedCoRoutineList,"aw",%nobits
 678              		.align	2
 679              		.set	.LANCHOR4,. + 0
 682              	pxDelayedCoRoutineList:
 683 0000 00000000 		.space	4
 684              		.section	.bss.pxReadyCoRoutineLists,"aw",%nobits
 685              		.align	2
 686              		.set	.LANCHOR0,. + 0
 689              	pxReadyCoRoutineLists:
 690 0000 00000000 		.space	40
 690      00000000 
 690      00000000 
 690      00000000 
 690      00000000 
 691              		.section	.bss.uxTopCoRoutineReadyPriority,"aw",%nobits
 692              		.align	2
 693              		.set	.LANCHOR6,. + 0
 696              	uxTopCoRoutineReadyPriority:
 697 0000 00000000 		.space	4
 698              		.section	.bss.pxOverflowDelayedCoRoutineList,"aw",%nobits
 699              		.align	2
 700              		.set	.LANCHOR5,. + 0
 703              	pxOverflowDelayedCoRoutineList:
 704 0000 00000000 		.space	4
 705              		.text
 706              	.Letext0:
 707              		.file 2 "/usr/lib/gcc/arm-none-eabi/4.8.2/include/stddef.h"
 708              		.file 3 "/usr/include/newlib/machine/_default_types.h"
 709              		.file 4 "/usr/include/newlib/stdint.h"
 710              		.file 5 "FreeRTOS/Source/include/../../Source/portable/GCC/ARM_CM4F/portmacro.h"
 711              		.file 6 "FreeRTOS/Source/include/list.h"
 712              		.file 7 "FreeRTOS/Source/include/croutine.h"
 713              		.file 8 "libs/CMSIS/Include/core_cm4.h"
 714              		.file 9 "FreeRTOS/Source/include/task.h"
 715              		.file 10 "FreeRTOS/Source/include/portable.h"