   1              		.syntax unified
   2              		.cpu cortex-m4
   3              		.eabi_attribute 27, 3
   4              		.fpu fpv4-sp-d16
   5              		.eabi_attribute 20, 1
   6              		.eabi_attribute 21, 1
   7              		.eabi_attribute 23, 3
   8              		.eabi_attribute 24, 1
   9              		.eabi_attribute 25, 1
  10              		.eabi_attribute 26, 1
  11              		.eabi_attribute 30, 1
  12              		.eabi_attribute 34, 1
  13              		.eabi_attribute 18, 4
  14              		.thumb
  15              		.file	"hb_structs.c"
  16              		.text
  17              	.Ltext0:
  18              		.cfi_sections	.debug_frame
  19              		.section	.text.getSystemDay,"ax",%progbits
  20              		.align	2
  21              		.global	getSystemDay
  22              		.thumb
  23              		.thumb_func
  25              	getSystemDay:
  26              	.LFB110:
  27              		.file 1 "src/hb_structs.c"
   1:src/hb_structs.c **** #include "hb_structs.h"
   2:src/hb_structs.c **** /*
   3:src/hb_structs.c **** USART_rtos *USARTOutput_rtos; 
   4:src/hb_structs.c **** 
   5:src/hb_structs.c **** void setup_debug_struct_output(USART_rtos *USARTx_rtos) {
   6:src/hb_structs.c ****     USARTOutput_rtos = USARTx_rtos;
   7:src/hb_structs.c **** }
   8:src/hb_structs.c **** */
   9:src/hb_structs.c **** 
  10:src/hb_structs.c **** static unsigned int SYSTEM_DAY_COUNT; //private file var
  11:src/hb_structs.c **** 
  12:src/hb_structs.c **** unsigned getSystemDay() {
  28              		.loc 1 12 0
  29              		.cfi_startproc
  30              		@ args = 0, pretend = 0, frame = 0
  31              		@ frame_needed = 0, uses_anonymous_args = 0
  32              		@ link register save eliminated.
  13:src/hb_structs.c ****     return SYSTEM_DAY_COUNT;
  33              		.loc 1 13 0
  34 0000 40F20003 		movw	r3, #:lower16:.LANCHOR0
  35 0004 C0F20003 		movt	r3, #:upper16:.LANCHOR0
  14:src/hb_structs.c **** }
  36              		.loc 1 14 0
  37 0008 1868     		ldr	r0, [r3]
  38 000a 7047     		bx	lr
  39              		.cfi_endproc
  40              	.LFE110:
  42              		.section	.text.setSystemDay,"ax",%progbits
  43              		.align	2
  44              		.global	setSystemDay
  45              		.thumb
  46              		.thumb_func
  48              	setSystemDay:
  49              	.LFB111:
  15:src/hb_structs.c **** 
  16:src/hb_structs.c **** void setSystemDay(unsigned int day) {
  50              		.loc 1 16 0
  51              		.cfi_startproc
  52              		@ args = 0, pretend = 0, frame = 0
  53              		@ frame_needed = 0, uses_anonymous_args = 0
  54              		@ link register save eliminated.
  55              	.LVL0:
  17:src/hb_structs.c ****     SYSTEM_DAY_COUNT = day;
  56              		.loc 1 17 0
  57 0000 40F20003 		movw	r3, #:lower16:.LANCHOR0
  58 0004 C0F20003 		movt	r3, #:upper16:.LANCHOR0
  59 0008 1860     		str	r0, [r3]
  60 000a 7047     		bx	lr
  61              		.cfi_endproc
  62              	.LFE111:
  64              		.section	.text.correctTimeChangeOffset,"ax",%progbits
  65              		.align	2
  66              		.global	correctTimeChangeOffset
  67              		.thumb
  68              		.thumb_func
  70              	correctTimeChangeOffset:
  71              	.LFB112:
  18:src/hb_structs.c **** }
  19:src/hb_structs.c **** 
  20:src/hb_structs.c **** void correctTimeChangeOffset(unsigned int prev_epoch, Timer_node* timer_list_head) {
  72              		.loc 1 20 0
  73              		.cfi_startproc
  74              		@ args = 0, pretend = 0, frame = 8
  75              		@ frame_needed = 0, uses_anonymous_args = 0
  76              	.LVL1:
  77 0000 70B5     		push	{r4, r5, r6, lr}
  78              	.LCFI0:
  79              		.cfi_def_cfa_offset 16
  80              		.cfi_offset 4, -16
  81              		.cfi_offset 5, -12
  82              		.cfi_offset 6, -8
  83              		.cfi_offset 14, -4
  84 0002 82B0     		sub	sp, sp, #8
  85              	.LCFI1:
  86              		.cfi_def_cfa_offset 24
  87 0004 0546     		mov	r5, r0
  88 0006 0C46     		mov	r4, r1
  89              	.LVL2:
  90              	.LBB2:
  21:src/hb_structs.c ****     RTC_TimeTypeDef t;
  22:src/hb_structs.c **** 
  23:src/hb_structs.c **** 
  24:src/hb_structs.c ****     Timer_node* cursor = timer_list_head;
  25:src/hb_structs.c ****     while(cursor) {
  26:src/hb_structs.c ****         RTC_GetTime(RTC_Format_BIN, &t);
  91              		.loc 1 26 0
  92 0008 0026     		movs	r6, #0
  93              	.LBE2:
  25:src/hb_structs.c ****         RTC_GetTime(RTC_Format_BIN, &t);
  94              		.loc 1 25 0
  95 000a 10E0     		b	.L4
  96              	.LVL3:
  97              	.L5:
  98              	.LBB3:
  99              		.loc 1 26 0
 100 000c 3046     		mov	r0, r6
 101 000e 01A9     		add	r1, sp, #4
 102 0010 FFF7FEFF 		bl	RTC_GetTime
 103              	.LVL4:
  27:src/hb_structs.c ****         unsigned int current_epoch = getEpoch(&t, getSystemDay());
 104              		.loc 1 27 0
 105 0014 FFF7FEFF 		bl	getSystemDay
 106              	.LVL5:
 107 0018 0146     		mov	r1, r0
 108 001a 01A8     		add	r0, sp, #4
 109 001c FFF7FEFF 		bl	getEpoch
 110              	.LVL6:
  28:src/hb_structs.c ****         unsigned int offset = 0;
  29:src/hb_structs.c **** 
  30:src/hb_structs.c ****         //gets the absolute offset
  31:src/hb_structs.c ****         int missed = 0;
  32:src/hb_structs.c ****         offset = cursor->epoch - prev_epoch; 
 111              		.loc 1 32 0
 112 0020 A368     		ldr	r3, [r4, #8]
 113 0022 5B1B     		subs	r3, r3, r5
 114              	.LVL7:
  33:src/hb_structs.c ****         
  34:src/hb_structs.c ****         //cursor->debug2 = cursor->epoch; //prev timer epoch
  35:src/hb_structs.c ****         cursor->epoch = current_epoch + offset; //current timer epoch
 115              		.loc 1 35 0
 116 0024 0344     		add	r3, r3, r0
 117              	.LVL8:
 118 0026 A360     		str	r3, [r4, #8]
 119              	.LVL9:
  36:src/hb_structs.c ****         cursor->debug =  prev_epoch; // prev epoch
 120              		.loc 1 36 0
 121 0028 2561     		str	r5, [r4, #16]
  37:src/hb_structs.c ****         cursor->debug1 = current_epoch; //current epoch
 122              		.loc 1 37 0
 123 002a A061     		str	r0, [r4, #24]
  38:src/hb_structs.c ****         cursor = cursor->next;
 124              		.loc 1 38 0
 125 002c 6468     		ldr	r4, [r4, #4]
 126              	.LVL10:
 127              	.L4:
 128              	.LBE3:
  25:src/hb_structs.c ****         RTC_GetTime(RTC_Format_BIN, &t);
 129              		.loc 1 25 0 discriminator 1
 130 002e 002C     		cmp	r4, #0
 131 0030 ECD1     		bne	.L5
  39:src/hb_structs.c ****     }
  40:src/hb_structs.c **** }
 132              		.loc 1 40 0
 133 0032 02B0     		add	sp, sp, #8
 134              		@ sp needed
 135 0034 70BD     		pop	{r4, r5, r6, pc}
 136              		.cfi_endproc
 137              	.LFE112:
 139 0036 00BF     		.section	.text.FindTimerInterrupt,"ax",%progbits
 140              		.align	2
 141              		.global	FindTimerInterrupt
 142              		.thumb
 143              		.thumb_func
 145              	FindTimerInterrupt:
 146              	.LFB113:
  41:src/hb_structs.c **** 
  42:src/hb_structs.c **** Timer_node* FindTimerInterrupt(int id, Timer_node *timer_list_head) {
 147              		.loc 1 42 0
 148              		.cfi_startproc
 149              		@ args = 0, pretend = 0, frame = 0
 150              		@ frame_needed = 0, uses_anonymous_args = 0
 151              		@ link register save eliminated.
 152              	.LVL11:
  43:src/hb_structs.c ****     Timer_node* cursor = timer_list_head;
  44:src/hb_structs.c ****     while (cursor) {
 153              		.loc 1 44 0
 154 0000 03E0     		b	.L7
 155              	.LVL12:
 156              	.L9:
  45:src/hb_structs.c ****         if (cursor->id == id) return cursor;
 157              		.loc 1 45 0
 158 0002 0B7B     		ldrb	r3, [r1, #12]	@ zero_extendqisi2
 159 0004 8342     		cmp	r3, r0
 160 0006 04D0     		beq	.L10
  46:src/hb_structs.c ****         cursor = cursor->next;
 161              		.loc 1 46 0
 162 0008 4968     		ldr	r1, [r1, #4]
 163              	.LVL13:
 164              	.L7:
  44:src/hb_structs.c ****         if (cursor->id == id) return cursor;
 165              		.loc 1 44 0 discriminator 1
 166 000a 0029     		cmp	r1, #0
 167 000c F9D1     		bne	.L9
  47:src/hb_structs.c ****     }
  48:src/hb_structs.c ****     return NULL;
 168              		.loc 1 48 0
 169 000e 0020     		movs	r0, #0
 170              	.LVL14:
 171 0010 7047     		bx	lr
 172              	.LVL15:
 173              	.L10:
  45:src/hb_structs.c ****         cursor = cursor->next;
 174              		.loc 1 45 0
 175 0012 0846     		mov	r0, r1
 176              	.LVL16:
  49:src/hb_structs.c **** }
 177              		.loc 1 49 0
 178 0014 7047     		bx	lr
 179              		.cfi_endproc
 180              	.LFE113:
 182 0016 00BF     		.section	.text.addTimerInterrupt,"ax",%progbits
 183              		.align	2
 184              		.global	addTimerInterrupt
 185              		.thumb
 186              		.thumb_func
 188              	addTimerInterrupt:
 189              	.LFB114:
  50:src/hb_structs.c **** 
  51:src/hb_structs.c **** int addTimerInterrupt(Timer_node *timer, Timer_node **timer_list_head) {
 190              		.loc 1 51 0
 191              		.cfi_startproc
 192              		@ args = 0, pretend = 0, frame = 0
 193              		@ frame_needed = 0, uses_anonymous_args = 0
 194              	.LVL17:
 195 0000 38B5     		push	{r3, r4, r5, lr}
 196              	.LCFI2:
 197              		.cfi_def_cfa_offset 16
 198              		.cfi_offset 3, -16
 199              		.cfi_offset 4, -12
 200              		.cfi_offset 5, -8
 201              		.cfi_offset 14, -4
 202 0002 0446     		mov	r4, r0
 203 0004 0D46     		mov	r5, r1
  52:src/hb_structs.c ****     if (!timer->timer_mutex) timer->timer_mutex = xSemaphoreCreateMutex();
 204              		.loc 1 52 0
 205 0006 0368     		ldr	r3, [r0]
 206 0008 13B9     		cbnz	r3, .L12
 207              		.loc 1 52 0 is_stmt 0 discriminator 1
 208 000a FFF7FEFF 		bl	xQueueCreateMutex
 209              	.LVL18:
 210 000e 2060     		str	r0, [r4]
 211              	.L12:
  53:src/hb_structs.c ****     if (xSemaphoreTake(timer->timer_mutex, portMAX_DELAY) == pdTRUE) {
 212              		.loc 1 53 0 is_stmt 1
 213 0010 2068     		ldr	r0, [r4]
 214 0012 0021     		movs	r1, #0
 215 0014 4FF0FF32 		mov	r2, #-1
 216 0018 0B46     		mov	r3, r1
 217 001a FFF7FEFF 		bl	xQueueGenericReceive
 218              	.LVL19:
 219 001e 0128     		cmp	r0, #1
 220 0020 1ED1     		bne	.L16
 221              	.LBB4:
  54:src/hb_structs.c ****         Timer_node* cursor = *timer_list_head;
 222              		.loc 1 54 0
 223 0022 2A68     		ldr	r2, [r5]
 224              	.LVL20:
  55:src/hb_structs.c ****         timer->next = NULL;//safety
 225              		.loc 1 55 0
 226 0024 0023     		movs	r3, #0
 227 0026 6360     		str	r3, [r4, #4]
  56:src/hb_structs.c **** 
  57:src/hb_structs.c ****         if (cursor == NULL) {
 228              		.loc 1 57 0
 229 0028 12B9     		cbnz	r2, .L18
  58:src/hb_structs.c ****             *timer_list_head = timer; 
 230              		.loc 1 58 0
 231 002a 2C60     		str	r4, [r5]
  59:src/hb_structs.c ****             return 1;
 232              		.loc 1 59 0
 233 002c 38BD     		pop	{r3, r4, r5, pc}
 234              	.LVL21:
 235              	.L17:
  60:src/hb_structs.c ****         }
  61:src/hb_structs.c **** 
  62:src/hb_structs.c ****         while(cursor->next) cursor = cursor->next;
 236              		.loc 1 62 0
 237 002e 1A46     		mov	r2, r3
 238              	.LVL22:
 239              	.L18:
 240              		.loc 1 62 0 is_stmt 0 discriminator 1
 241 0030 5368     		ldr	r3, [r2, #4]
 242 0032 002B     		cmp	r3, #0
 243 0034 FBD1     		bne	.L17
  63:src/hb_structs.c ****         cursor->next = timer;
 244              		.loc 1 63 0 is_stmt 1
 245 0036 5460     		str	r4, [r2, #4]
  64:src/hb_structs.c **** 
  65:src/hb_structs.c ****         int r = (xSemaphoreTake(timer->timer_mutex, portMAX_DELAY) == pdTRUE);
 246              		.loc 1 65 0
 247 0038 2068     		ldr	r0, [r4]
 248 003a 0021     		movs	r1, #0
 249 003c 4FF0FF32 		mov	r2, #-1
 250              	.LVL23:
 251 0040 0B46     		mov	r3, r1
 252 0042 FFF7FEFF 		bl	xQueueGenericReceive
 253              	.LVL24:
 254 0046 0128     		cmp	r0, #1
 255 0048 14BF     		ite	ne
 256 004a 0025     		movne	r5, #0
 257              	.LVL25:
 258 004c 0125     		moveq	r5, #1
 259              	.LVL26:
  66:src/hb_structs.c ****         if (r) xSemaphoreGive(timer->timer_mutex);
 260              		.loc 1 66 0
 261 004e 2DB1     		cbz	r5, .L15
 262              		.loc 1 66 0 is_stmt 0 discriminator 1
 263 0050 2068     		ldr	r0, [r4]
 264 0052 0021     		movs	r1, #0
 265 0054 0A46     		mov	r2, r1
 266 0056 0B46     		mov	r3, r1
 267 0058 FFF7FEFF 		bl	xQueueGenericSend
 268              	.LVL27:
 269              	.L15:
  67:src/hb_structs.c ****         return r;
 270              		.loc 1 67 0 is_stmt 1
 271 005c 2846     		mov	r0, r5
 272 005e 38BD     		pop	{r3, r4, r5, pc}
 273              	.LVL28:
 274              	.L16:
 275              	.LBE4:
  68:src/hb_structs.c **** 
  69:src/hb_structs.c ****     }
  70:src/hb_structs.c **** 
  71:src/hb_structs.c ****     return 0;
 276              		.loc 1 71 0
 277 0060 0020     		movs	r0, #0
  72:src/hb_structs.c **** }
 278              		.loc 1 72 0
 279 0062 38BD     		pop	{r3, r4, r5, pc}
 280              		.cfi_endproc
 281              	.LFE114:
 283              		.section	.bss.SYSTEM_DAY_COUNT,"aw",%nobits
 284              		.align	2
 285              		.set	.LANCHOR0,. + 0
 288              	SYSTEM_DAY_COUNT:
 289 0000 00000000 		.space	4
 290              		.text
 291              	.Letext0:
 292              		.file 2 "/usr/include/newlib/machine/_default_types.h"
 293              		.file 3 "/usr/include/newlib/stdint.h"
 294              		.file 4 "libs/STM32F4xx_StdPeriph_Driver/inc/stm32f4xx_rtc.h"
 295              		.file 5 "FreeRTOS/Source/include/../../Source/portable/GCC/ARM_CM4F/portmacro.h"
 296              		.file 6 "FreeRTOS/Source/include/queue.h"
 297              		.file 7 "FreeRTOS/Source/include/semphr.h"
 298              		.file 8 "src/hb_structs.h"
 299              		.file 9 "src/hbfuncs.h"
 300              		.file 10 "libs/CMSIS/Include/core_cm4.h"