   1              		.syntax unified
   2              		.cpu cortex-m4
   3              		.eabi_attribute 27, 3
   4              		.fpu fpv4-sp-d16
   5              		.eabi_attribute 20, 1
   6              		.eabi_attribute 21, 1
   7              		.eabi_attribute 23, 3
   8              		.eabi_attribute 24, 1
   9              		.eabi_attribute 25, 1
  10              		.eabi_attribute 26, 1
  11              		.eabi_attribute 30, 1
  12              		.eabi_attribute 34, 1
  13              		.eabi_attribute 18, 4
  14              		.thumb
  15              		.file	"hbperiph.c"
  16              		.text
  17              	.Ltext0:
  18              		.cfi_sections	.debug_frame
  19              		.section	.text.ultrasonic_init,"ax",%progbits
  20              		.align	2
  21              		.global	ultrasonic_init
  22              		.thumb
  23              		.thumb_func
  25              	ultrasonic_init:
  26              	.LFB110:
  27              		.file 1 "src/hbperiph.c"
   1:src/hbperiph.c **** #include "hbperiph.h"
   2:src/hbperiph.c **** #include "stm32f4xx.h"
   3:src/hbperiph.c **** #include "delay.h"
   4:src/hbperiph.c **** 
   5:src/hbperiph.c **** 
   6:src/hbperiph.c **** 
   7:src/hbperiph.c **** void ultrasonic_init( Ultrasonic_Typedef *sensor, 
   8:src/hbperiph.c ****                       GPIO_TypeDef *port_in,
   9:src/hbperiph.c ****                       GPIO_TypeDef *port_out,
  10:src/hbperiph.c ****                       uint16_t pin_in,
  11:src/hbperiph.c ****                       uint16_t pin_out,
  12:src/hbperiph.c ****                       uint16_t timeout)
  13:src/hbperiph.c **** {
  28              		.loc 1 13 0
  29              		.cfi_startproc
  30              		@ args = 8, pretend = 0, frame = 0
  31              		@ frame_needed = 0, uses_anonymous_args = 0
  32              		@ link register save eliminated.
  33              	.LVL0:
  14:src/hbperiph.c ****     sensor->port_in = port_in;
  34              		.loc 1 14 0
  35 0000 0160     		str	r1, [r0]
  15:src/hbperiph.c ****     sensor->pin_in = pin_in;
  36              		.loc 1 15 0
  37 0002 8380     		strh	r3, [r0, #4]	@ movhi
  16:src/hbperiph.c ****     sensor->port_out = port_out;
  38              		.loc 1 16 0
  39 0004 8260     		str	r2, [r0, #8]
  17:src/hbperiph.c ****     sensor->pin_out = pin_out;
  40              		.loc 1 17 0
  41 0006 BDF80030 		ldrh	r3, [sp]
  42              	.LVL1:
  43 000a 8381     		strh	r3, [r0, #12]	@ movhi
  18:src/hbperiph.c **** 
  19:src/hbperiph.c ****     sensor->timeout = timeout;
  44              		.loc 1 19 0
  45 000c BDF80430 		ldrh	r3, [sp, #4]
  46 0010 C381     		strh	r3, [r0, #14]	@ movhi
  47 0012 7047     		bx	lr
  48              		.cfi_endproc
  49              	.LFE110:
  51              		.section	.text.ultrasonic_read_distance,"ax",%progbits
  52              		.align	2
  53              		.global	ultrasonic_read_distance
  54              		.thumb
  55              		.thumb_func
  57              	ultrasonic_read_distance:
  58              	.LFB111:
  20:src/hbperiph.c **** }
  21:src/hbperiph.c **** 
  22:src/hbperiph.c **** uint32_t ultrasonic_read_distance(Ultrasonic_Typedef *sensor) {
  59              		.loc 1 22 0
  60              		.cfi_startproc
  61              		@ args = 0, pretend = 0, frame = 8
  62              		@ frame_needed = 0, uses_anonymous_args = 0
  63              	.LVL2:
  64 0000 30B5     		push	{r4, r5, lr}
  65              	.LCFI0:
  66              		.cfi_def_cfa_offset 12
  67              		.cfi_offset 4, -12
  68              		.cfi_offset 5, -8
  69              		.cfi_offset 14, -4
  70 0002 83B0     		sub	sp, sp, #12
  71              	.LCFI1:
  72              		.cfi_def_cfa_offset 24
  73 0004 0446     		mov	r4, r0
  23:src/hbperiph.c ****   __IO uint8_t flag=0;
  74              		.loc 1 23 0
  75 0006 0023     		movs	r3, #0
  76 0008 8DF80730 		strb	r3, [sp, #7]
  24:src/hbperiph.c ****   __IO uint32_t disTime=0;
  77              		.loc 1 24 0
  78 000c 0093     		str	r3, [sp]
  25:src/hbperiph.c **** 
  26:src/hbperiph.c ****     GPIO_ResetBits(sensor->port_in, sensor->pin_in);
  79              		.loc 1 26 0
  80 000e 0068     		ldr	r0, [r0]
  81              	.LVL3:
  82 0010 A188     		ldrh	r1, [r4, #4]
  83 0012 FFF7FEFF 		bl	GPIO_ResetBits
  84              	.LVL4:
  27:src/hbperiph.c **** 
  28:src/hbperiph.c ****     GPIO_ResetBits(sensor->port_out, sensor->pin_out);
  85              		.loc 1 28 0
  86 0016 A068     		ldr	r0, [r4, #8]
  87 0018 A189     		ldrh	r1, [r4, #12]
  88 001a FFF7FEFF 		bl	GPIO_ResetBits
  89              	.LVL5:
  29:src/hbperiph.c ****     delay_us(2);
  90              		.loc 1 29 0
  91 001e 0220     		movs	r0, #2
  92 0020 FFF7FEFF 		bl	delay_us
  93              	.LVL6:
  30:src/hbperiph.c ****     GPIO_SetBits(sensor->port_out, sensor->pin_out);
  94              		.loc 1 30 0
  95 0024 A068     		ldr	r0, [r4, #8]
  96 0026 A189     		ldrh	r1, [r4, #12]
  97 0028 FFF7FEFF 		bl	GPIO_SetBits
  98              	.LVL7:
  31:src/hbperiph.c ****     delay_us(11);
  99              		.loc 1 31 0
 100 002c 0B20     		movs	r0, #11
 101 002e FFF7FEFF 		bl	delay_us
 102              	.LVL8:
  32:src/hbperiph.c ****     GPIO_ResetBits(sensor->port_out, sensor->pin_out);
 103              		.loc 1 32 0
 104 0032 A068     		ldr	r0, [r4, #8]
 105 0034 A189     		ldrh	r1, [r4, #12]
 106 0036 FFF7FEFF 		bl	GPIO_ResetBits
 107              	.LVL9:
  33:src/hbperiph.c **** 
  34:src/hbperiph.c ****   while(flag == 0) {
  35:src/hbperiph.c ****     while(GPIO_ReadInputDataBit(sensor->port_in, sensor->pin_in) == SET) {
  36:src/hbperiph.c ****         disTime++;
  37:src/hbperiph.c ****         flag = 1;
 108              		.loc 1 37 0
 109 003a 0125     		movs	r5, #1
  34:src/hbperiph.c ****     while(GPIO_ReadInputDataBit(sensor->port_in, sensor->pin_in) == SET) {
 110              		.loc 1 34 0
 111 003c 0DE0     		b	.L3
 112              	.L4:
  36:src/hbperiph.c ****         flag = 1;
 113              		.loc 1 36 0
 114 003e 009B     		ldr	r3, [sp]
 115 0040 0133     		adds	r3, r3, #1
 116 0042 0093     		str	r3, [sp]
 117              		.loc 1 37 0
 118 0044 8DF80750 		strb	r5, [sp, #7]
  38:src/hbperiph.c ****         delay_us(1);
 119              		.loc 1 38 0
 120 0048 2846     		mov	r0, r5
 121 004a FFF7FEFF 		bl	delay_us
 122              	.LVL10:
 123              	.L6:
  35:src/hbperiph.c ****         disTime++;
 124              		.loc 1 35 0 discriminator 1
 125 004e 2068     		ldr	r0, [r4]
 126 0050 A188     		ldrh	r1, [r4, #4]
 127 0052 FFF7FEFF 		bl	GPIO_ReadInputDataBit
 128              	.LVL11:
 129 0056 0128     		cmp	r0, #1
 130 0058 F1D0     		beq	.L4
 131              	.L3:
  34:src/hbperiph.c ****     while(GPIO_ReadInputDataBit(sensor->port_in, sensor->pin_in) == SET) {
 132              		.loc 1 34 0 discriminator 1
 133 005a 9DF80730 		ldrb	r3, [sp, #7]	@ zero_extendqisi2
 134 005e 13F0FF0F 		tst	r3, #255
 135 0062 F4D0     		beq	.L6
  39:src/hbperiph.c ****         //if (disTime == timeout) return 0;
  40:src/hbperiph.c ****     }
  41:src/hbperiph.c **** 
  42:src/hbperiph.c ****   }
  43:src/hbperiph.c ****     return disTime / CM_CONVERSION *2; //converts to centimeters
 136              		.loc 1 43 0
 137 0064 9DED007A 		flds	s14, [sp]	@ int
 138 0068 B8EE477A 		fuitos	s14, s14
 139 006c DFED057A 		flds	s15, .L7
 140 0070 C7EE277A 		fdivs	s15, s14, s15
 141 0074 77EEA77A 		fadds	s15, s15, s15
  44:src/hbperiph.c **** }
 142              		.loc 1 44 0
 143 0078 FCEEE77A 		ftouizs	s15, s15
 144 007c 17EE900A 		fmrs	r0, s15	@ int
 145 0080 03B0     		add	sp, sp, #12
 146              		@ sp needed
 147 0082 30BD     		pop	{r4, r5, pc}
 148              	.LVL12:
 149              	.L8:
 150              		.align	2
 151              	.L7:
 152 0084 CDCC6842 		.word	1114164429
 153              		.cfi_endproc
 154              	.LFE111:
 156              		.section	.text.servo_init,"ax",%progbits
 157              		.align	2
 158              		.global	servo_init
 159              		.thumb
 160              		.thumb_func
 162              	servo_init:
 163              	.LFB112:
  45:src/hbperiph.c **** 
  46:src/hbperiph.c **** void servo_init(Servo_Typedef *servo, volatile uint32_t *CCR, uint16_t offset, uint16_t range) {
 164              		.loc 1 46 0
 165              		.cfi_startproc
 166              		@ args = 0, pretend = 0, frame = 0
 167              		@ frame_needed = 0, uses_anonymous_args = 0
 168              		@ link register save eliminated.
 169              	.LVL13:
 170 0000 10B4     		push	{r4}
 171              	.LCFI2:
 172              		.cfi_def_cfa_offset 4
 173              		.cfi_offset 4, -4
  47:src/hbperiph.c ****     servo->CCR = CCR;
 174              		.loc 1 47 0
 175 0002 0160     		str	r1, [r0]
  48:src/hbperiph.c ****     servo->offset = offset;
 176              		.loc 1 48 0
 177 0004 8280     		strh	r2, [r0, #4]	@ movhi
  49:src/hbperiph.c ****     servo->ratio = range/180;
 178              		.loc 1 49 0
 179 0006 9B08     		lsrs	r3, r3, #2
 180              	.LVL14:
 181 0008 46F61742 		movw	r2, #27671
 182              	.LVL15:
 183 000c C1F2C162 		movt	r2, 5825
 184 0010 A2FB0342 		umull	r4, r2, r2, r3
 185 0014 9208     		lsrs	r2, r2, #2
 186 0016 8271     		strb	r2, [r0, #6]
  50:src/hbperiph.c ****     servo->last_pos = 0;
 187              		.loc 1 50 0
 188 0018 0023     		movs	r3, #0
 189 001a C371     		strb	r3, [r0, #7]
  51:src/hbperiph.c ****     servo->current_pos = 0;
 190              		.loc 1 51 0
 191 001c 0372     		strb	r3, [r0, #8]
  52:src/hbperiph.c **** 
  53:src/hbperiph.c ****     *(servo->CCR) = 0;
 192              		.loc 1 53 0
 193 001e 0B80     		strh	r3, [r1]	@ movhi
 194              	.LVL16:
  54:src/hbperiph.c **** }
 195              		.loc 1 54 0
 196 0020 5DF8044B 		ldr	r4, [sp], #4
 197 0024 7047     		bx	lr
 198              		.cfi_endproc
 199              	.LFE112:
 201 0026 00BF     		.section	.text.servo_set_degrees,"ax",%progbits
 202              		.align	2
 203              		.global	servo_set_degrees
 204              		.thumb
 205              		.thumb_func
 207              	servo_set_degrees:
 208              	.LFB113:
  55:src/hbperiph.c **** 
  56:src/hbperiph.c **** int servo_set_degrees(Servo_Typedef *servo, uint8_t degrees) {
 209              		.loc 1 56 0
 210              		.cfi_startproc
 211              		@ args = 0, pretend = 0, frame = 0
 212              		@ frame_needed = 0, uses_anonymous_args = 0
 213              		@ link register save eliminated.
 214              	.LVL17:
 215 0000 10B4     		push	{r4}
 216              	.LCFI3:
 217              		.cfi_def_cfa_offset 4
 218              		.cfi_offset 4, -4
  57:src/hbperiph.c ****     if (degrees==-1) *(servo->CCR) = -1;
  58:src/hbperiph.c ****     else {
  59:src/hbperiph.c ****         *(servo->CCR) = servo->offset+degrees*servo->ratio;
 219              		.loc 1 59 0
 220 0002 0368     		ldr	r3, [r0]
 221 0004 8288     		ldrh	r2, [r0, #4]
 222 0006 8479     		ldrb	r4, [r0, #6]	@ zero_extendqisi2
 223 0008 04FB0122 		mla	r2, r4, r1, r2
 224 000c 92B2     		uxth	r2, r2
 225 000e 1A80     		strh	r2, [r3]	@ movhi
  60:src/hbperiph.c ****         //int8_t offset = (10*(degrees - servo->current_pos));
  61:src/hbperiph.c ****         //if (offset<0) offset*-1;
  62:src/hbperiph.c **** 
  63:src/hbperiph.c ****         //*(servo->CCR) = 0;
  64:src/hbperiph.c **** 
  65:src/hbperiph.c ****         servo->last_pos = servo->current_pos;
 226              		.loc 1 65 0
 227 0010 037A     		ldrb	r3, [r0, #8]	@ zero_extendqisi2
 228 0012 C371     		strb	r3, [r0, #7]
  66:src/hbperiph.c ****         servo->current_pos = degrees;
 229              		.loc 1 66 0
 230 0014 0172     		strb	r1, [r0, #8]
  67:src/hbperiph.c ****         return servo->offset+degrees*servo->ratio;
 231              		.loc 1 67 0
 232 0016 8388     		ldrh	r3, [r0, #4]
 233 0018 8079     		ldrb	r0, [r0, #6]	@ zero_extendqisi2
 234              	.LVL18:
  68:src/hbperiph.c **** 
  69:src/hbperiph.c **** 
  70:src/hbperiph.c ****     }
  71:src/hbperiph.c **** }
 235              		.loc 1 71 0
 236 001a 00FB0130 		mla	r0, r0, r1, r3
 237 001e 5DF8044B 		ldr	r4, [sp], #4
 238 0022 7047     		bx	lr
 239              		.cfi_endproc
 240              	.LFE113:
 242              		.text
 243              	.Letext0:
 244              		.file 2 "/usr/include/newlib/machine/_default_types.h"
 245              		.file 3 "/usr/include/newlib/stdint.h"
 246              		.file 4 "libs/Device/STM32F4xx/Include/stm32f4xx.h"
 247              		.file 5 "src/hbperiph.h"
 248              		.file 6 "libs/STM32F4xx_StdPeriph_Driver/inc/stm32f4xx_gpio.h"
 249              		.file 7 "src/delay.h"
 250              		.file 8 "libs/CMSIS/Include/core_cm4.h"