   1              		.syntax unified
   2              		.cpu cortex-m4
   3              		.eabi_attribute 27, 3
   4              		.fpu fpv4-sp-d16
   5              		.eabi_attribute 20, 1
   6              		.eabi_attribute 21, 1
   7              		.eabi_attribute 23, 3
   8              		.eabi_attribute 24, 1
   9              		.eabi_attribute 25, 1
  10              		.eabi_attribute 26, 1
  11              		.eabi_attribute 30, 1
  12              		.eabi_attribute 34, 1
  13              		.eabi_attribute 18, 4
  14              		.thumb
  15              		.file	"list.c"
  16              		.text
  17              	.Ltext0:
  18              		.cfi_sections	.debug_frame
  19              		.section	.text.vListInitialise,"ax",%progbits
  20              		.align	2
  21              		.global	vListInitialise
  22              		.thumb
  23              		.thumb_func
  25              	vListInitialise:
  26              	.LFB110:
  27              		.file 1 "FreeRTOS/Source/list.c"
   1:FreeRTOS/Source/list.c **** /*
   2:FreeRTOS/Source/list.c ****     FreeRTOS V7.0.2 - Copyright (C) 2011 Real Time Engineers Ltd.
   3:FreeRTOS/Source/list.c **** 
   4:FreeRTOS/Source/list.c **** 
   5:FreeRTOS/Source/list.c ****     ***************************************************************************
   6:FreeRTOS/Source/list.c ****      *                                                                       *
   7:FreeRTOS/Source/list.c ****      *    FreeRTOS tutorial books are available in pdf and paperback.        *
   8:FreeRTOS/Source/list.c ****      *    Complete, revised, and edited pdf reference manuals are also       *
   9:FreeRTOS/Source/list.c ****      *    available.                                                         *
  10:FreeRTOS/Source/list.c ****      *                                                                       *
  11:FreeRTOS/Source/list.c ****      *    Purchasing FreeRTOS documentation will not only help you, by       *
  12:FreeRTOS/Source/list.c ****      *    ensuring you get running as quickly as possible and with an        *
  13:FreeRTOS/Source/list.c ****      *    in-depth knowledge of how to use FreeRTOS, it will also help       *
  14:FreeRTOS/Source/list.c ****      *    the FreeRTOS project to continue with its mission of providing     *
  15:FreeRTOS/Source/list.c ****      *    professional grade, cross platform, de facto standard solutions    *
  16:FreeRTOS/Source/list.c ****      *    for microcontrollers - completely free of charge!                  *
  17:FreeRTOS/Source/list.c ****      *                                                                       *
  18:FreeRTOS/Source/list.c ****      *    >>> See http://www.FreeRTOS.org/Documentation for details. <<<     *
  19:FreeRTOS/Source/list.c ****      *                                                                       *
  20:FreeRTOS/Source/list.c ****      *    Thank you for using FreeRTOS, and thank you for your support!      *
  21:FreeRTOS/Source/list.c ****      *                                                                       *
  22:FreeRTOS/Source/list.c ****     ***************************************************************************
  23:FreeRTOS/Source/list.c **** 
  24:FreeRTOS/Source/list.c **** 
  25:FreeRTOS/Source/list.c ****     This file is part of the FreeRTOS distribution.
  26:FreeRTOS/Source/list.c **** 
  27:FreeRTOS/Source/list.c ****     FreeRTOS is free software; you can redistribute it and/or modify it under
  28:FreeRTOS/Source/list.c ****     the terms of the GNU General Public License (version 2) as published by the
  29:FreeRTOS/Source/list.c ****     Free Software Foundation AND MODIFIED BY the FreeRTOS exception.
  30:FreeRTOS/Source/list.c ****     >>>NOTE<<< The modification to the GPL is included to allow you to
  31:FreeRTOS/Source/list.c ****     distribute a combined work that includes FreeRTOS without being obliged to
  32:FreeRTOS/Source/list.c ****     provide the source code for proprietary components outside of the FreeRTOS
  33:FreeRTOS/Source/list.c ****     kernel.  FreeRTOS is distributed in the hope that it will be useful, but
  34:FreeRTOS/Source/list.c ****     WITHOUT ANY WARRANTY; without even the implied warranty of MERCHANTABILITY
  35:FreeRTOS/Source/list.c ****     or FITNESS FOR A PARTICULAR PURPOSE.  See the GNU General Public License for
  36:FreeRTOS/Source/list.c ****     more details. You should have received a copy of the GNU General Public
  37:FreeRTOS/Source/list.c ****     License and the FreeRTOS license exception along with FreeRTOS; if not it
  38:FreeRTOS/Source/list.c ****     can be viewed here: http://www.freertos.org/a00114.html and also obtained
  39:FreeRTOS/Source/list.c ****     by writing to Richard Barry, contact details for whom are available on the
  40:FreeRTOS/Source/list.c ****     FreeRTOS WEB site.
  41:FreeRTOS/Source/list.c **** 
  42:FreeRTOS/Source/list.c ****     1 tab == 4 spaces!
  43:FreeRTOS/Source/list.c **** 
  44:FreeRTOS/Source/list.c ****     http://www.FreeRTOS.org - Documentation, latest information, license and
  45:FreeRTOS/Source/list.c ****     contact details.
  46:FreeRTOS/Source/list.c **** 
  47:FreeRTOS/Source/list.c ****     http://www.SafeRTOS.com - A version that is certified for use in safety
  48:FreeRTOS/Source/list.c ****     critical systems.
  49:FreeRTOS/Source/list.c **** 
  50:FreeRTOS/Source/list.c ****     http://www.OpenRTOS.com - Commercial support, development, porting,
  51:FreeRTOS/Source/list.c ****     licensing and training services.
  52:FreeRTOS/Source/list.c **** */
  53:FreeRTOS/Source/list.c **** 
  54:FreeRTOS/Source/list.c **** 
  55:FreeRTOS/Source/list.c **** #include <stdlib.h>
  56:FreeRTOS/Source/list.c **** #include "FreeRTOS.h"
  57:FreeRTOS/Source/list.c **** #include "list.h"
  58:FreeRTOS/Source/list.c **** 
  59:FreeRTOS/Source/list.c **** /*-----------------------------------------------------------
  60:FreeRTOS/Source/list.c ****  * PUBLIC LIST API documented in list.h
  61:FreeRTOS/Source/list.c ****  *----------------------------------------------------------*/
  62:FreeRTOS/Source/list.c **** 
  63:FreeRTOS/Source/list.c **** void vListInitialise( xList *pxList )
  64:FreeRTOS/Source/list.c **** {
  28              		.loc 1 64 0
  29              		.cfi_startproc
  30              		@ args = 0, pretend = 0, frame = 0
  31              		@ frame_needed = 0, uses_anonymous_args = 0
  32              		@ link register save eliminated.
  33              	.LVL0:
  65:FreeRTOS/Source/list.c **** 	/* The list structure contains a list item which is used to mark the
  66:FreeRTOS/Source/list.c **** 	end of the list.  To initialise the list the list end is inserted
  67:FreeRTOS/Source/list.c **** 	as the only list entry. */
  68:FreeRTOS/Source/list.c **** 	pxList->pxIndex = ( xListItem * ) &( pxList->xListEnd );
  34              		.loc 1 68 0
  35 0000 00F10803 		add	r3, r0, #8
  36 0004 4360     		str	r3, [r0, #4]
  69:FreeRTOS/Source/list.c **** 
  70:FreeRTOS/Source/list.c **** 	/* The list end value is the highest possible value in the list to
  71:FreeRTOS/Source/list.c **** 	ensure it remains at the end of the list. */
  72:FreeRTOS/Source/list.c **** 	pxList->xListEnd.xItemValue = portMAX_DELAY;
  37              		.loc 1 72 0
  38 0006 4FF0FF32 		mov	r2, #-1
  39 000a 8260     		str	r2, [r0, #8]
  73:FreeRTOS/Source/list.c **** 
  74:FreeRTOS/Source/list.c **** 	/* The list end next and previous pointers point to itself so we know
  75:FreeRTOS/Source/list.c **** 	when the list is empty. */
  76:FreeRTOS/Source/list.c **** 	pxList->xListEnd.pxNext = ( xListItem * ) &( pxList->xListEnd );
  40              		.loc 1 76 0
  41 000c C360     		str	r3, [r0, #12]
  77:FreeRTOS/Source/list.c **** 	pxList->xListEnd.pxPrevious = ( xListItem * ) &( pxList->xListEnd );
  42              		.loc 1 77 0
  43 000e 0361     		str	r3, [r0, #16]
  78:FreeRTOS/Source/list.c **** 
  79:FreeRTOS/Source/list.c **** 	pxList->uxNumberOfItems = ( unsigned portBASE_TYPE ) 0U;
  44              		.loc 1 79 0
  45 0010 0023     		movs	r3, #0
  46 0012 0360     		str	r3, [r0]
  47 0014 7047     		bx	lr
  48              		.cfi_endproc
  49              	.LFE110:
  51 0016 00BF     		.section	.text.vListInitialiseItem,"ax",%progbits
  52              		.align	2
  53              		.global	vListInitialiseItem
  54              		.thumb
  55              		.thumb_func
  57              	vListInitialiseItem:
  58              	.LFB111:
  80:FreeRTOS/Source/list.c **** }
  81:FreeRTOS/Source/list.c **** /*-----------------------------------------------------------*/
  82:FreeRTOS/Source/list.c **** 
  83:FreeRTOS/Source/list.c **** void vListInitialiseItem( xListItem *pxItem )
  84:FreeRTOS/Source/list.c **** {
  59              		.loc 1 84 0
  60              		.cfi_startproc
  61              		@ args = 0, pretend = 0, frame = 0
  62              		@ frame_needed = 0, uses_anonymous_args = 0
  63              		@ link register save eliminated.
  64              	.LVL1:
  85:FreeRTOS/Source/list.c **** 	/* Make sure the list item is not recorded as being on a list. */
  86:FreeRTOS/Source/list.c **** 	pxItem->pvContainer = NULL;
  65              		.loc 1 86 0
  66 0000 0023     		movs	r3, #0
  67 0002 0361     		str	r3, [r0, #16]
  68 0004 7047     		bx	lr
  69              		.cfi_endproc
  70              	.LFE111:
  72 0006 00BF     		.section	.text.vListInsertEnd,"ax",%progbits
  73              		.align	2
  74              		.global	vListInsertEnd
  75              		.thumb
  76              		.thumb_func
  78              	vListInsertEnd:
  79              	.LFB112:
  87:FreeRTOS/Source/list.c **** }
  88:FreeRTOS/Source/list.c **** /*-----------------------------------------------------------*/
  89:FreeRTOS/Source/list.c **** 
  90:FreeRTOS/Source/list.c **** void vListInsertEnd( xList *pxList, xListItem *pxNewListItem )
  91:FreeRTOS/Source/list.c **** {
  80              		.loc 1 91 0
  81              		.cfi_startproc
  82              		@ args = 0, pretend = 0, frame = 0
  83              		@ frame_needed = 0, uses_anonymous_args = 0
  84              		@ link register save eliminated.
  85              	.LVL2:
  92:FreeRTOS/Source/list.c **** volatile xListItem * pxIndex;
  93:FreeRTOS/Source/list.c **** 
  94:FreeRTOS/Source/list.c **** 	/* Insert a new list item into pxList, but rather than sort the list,
  95:FreeRTOS/Source/list.c **** 	makes the new list item the last item to be removed by a call to
  96:FreeRTOS/Source/list.c **** 	pvListGetOwnerOfNextEntry.  This means it has to be the item pointed to by
  97:FreeRTOS/Source/list.c **** 	the pxIndex member. */
  98:FreeRTOS/Source/list.c **** 	pxIndex = pxList->pxIndex;
  86              		.loc 1 98 0
  87 0000 4368     		ldr	r3, [r0, #4]
  88              	.LVL3:
  99:FreeRTOS/Source/list.c **** 
 100:FreeRTOS/Source/list.c **** 	pxNewListItem->pxNext = pxIndex->pxNext;
  89              		.loc 1 100 0
  90 0002 5A68     		ldr	r2, [r3, #4]
  91 0004 4A60     		str	r2, [r1, #4]
 101:FreeRTOS/Source/list.c **** 	pxNewListItem->pxPrevious = pxList->pxIndex;
  92              		.loc 1 101 0
  93 0006 4268     		ldr	r2, [r0, #4]
  94 0008 8A60     		str	r2, [r1, #8]
 102:FreeRTOS/Source/list.c **** 	pxIndex->pxNext->pxPrevious = ( volatile xListItem * ) pxNewListItem;
  95              		.loc 1 102 0
  96 000a 5A68     		ldr	r2, [r3, #4]
  97 000c 9160     		str	r1, [r2, #8]
 103:FreeRTOS/Source/list.c **** 	pxIndex->pxNext = ( volatile xListItem * ) pxNewListItem;
  98              		.loc 1 103 0
  99 000e 5960     		str	r1, [r3, #4]
 104:FreeRTOS/Source/list.c **** 	pxList->pxIndex = ( volatile xListItem * ) pxNewListItem;
 100              		.loc 1 104 0
 101 0010 4160     		str	r1, [r0, #4]
 105:FreeRTOS/Source/list.c **** 
 106:FreeRTOS/Source/list.c **** 	/* Remember which list the item is in. */
 107:FreeRTOS/Source/list.c **** 	pxNewListItem->pvContainer = ( void * ) pxList;
 102              		.loc 1 107 0
 103 0012 0861     		str	r0, [r1, #16]
 108:FreeRTOS/Source/list.c **** 
 109:FreeRTOS/Source/list.c **** 	( pxList->uxNumberOfItems )++;
 104              		.loc 1 109 0
 105 0014 0368     		ldr	r3, [r0]
 106              	.LVL4:
 107 0016 0133     		adds	r3, r3, #1
 108 0018 0360     		str	r3, [r0]
 109 001a 7047     		bx	lr
 110              		.cfi_endproc
 111              	.LFE112:
 113              		.section	.text.vListInsert,"ax",%progbits
 114              		.align	2
 115              		.global	vListInsert
 116              		.thumb
 117              		.thumb_func
 119              	vListInsert:
 120              	.LFB113:
 110:FreeRTOS/Source/list.c **** }
 111:FreeRTOS/Source/list.c **** /*-----------------------------------------------------------*/
 112:FreeRTOS/Source/list.c **** 
 113:FreeRTOS/Source/list.c **** void vListInsert( xList *pxList, xListItem *pxNewListItem )
 114:FreeRTOS/Source/list.c **** {
 121              		.loc 1 114 0
 122              		.cfi_startproc
 123              		@ args = 0, pretend = 0, frame = 0
 124              		@ frame_needed = 0, uses_anonymous_args = 0
 125              		@ link register save eliminated.
 126              	.LVL5:
 127 0000 10B4     		push	{r4}
 128              	.LCFI0:
 129              		.cfi_def_cfa_offset 4
 130              		.cfi_offset 4, -4
 115:FreeRTOS/Source/list.c **** volatile xListItem *pxIterator;
 116:FreeRTOS/Source/list.c **** portTickType xValueOfInsertion;
 117:FreeRTOS/Source/list.c **** 
 118:FreeRTOS/Source/list.c **** 	/* Insert the new list item into the list, sorted in ulListItem order. */
 119:FreeRTOS/Source/list.c **** 	xValueOfInsertion = pxNewListItem->xItemValue;
 131              		.loc 1 119 0
 132 0002 0C68     		ldr	r4, [r1]
 133              	.LVL6:
 120:FreeRTOS/Source/list.c **** 
 121:FreeRTOS/Source/list.c **** 	/* If the list already contains a list item with the same item value then
 122:FreeRTOS/Source/list.c **** 	the new list item should be placed after it.  This ensures that TCB's which
 123:FreeRTOS/Source/list.c **** 	are stored in ready lists (all of which have the same ulListItem value)
 124:FreeRTOS/Source/list.c **** 	get an equal share of the CPU.  However, if the xItemValue is the same as
 125:FreeRTOS/Source/list.c **** 	the back marker the iteration loop below will not end.  This means we need
 126:FreeRTOS/Source/list.c **** 	to guard against this by checking the value first and modifying the
 127:FreeRTOS/Source/list.c **** 	algorithm slightly if necessary. */
 128:FreeRTOS/Source/list.c **** 	if( xValueOfInsertion == portMAX_DELAY )
 134              		.loc 1 128 0
 135 0004 B4F1FF3F 		cmp	r4, #-1
 129:FreeRTOS/Source/list.c **** 	{
 130:FreeRTOS/Source/list.c **** 		pxIterator = pxList->xListEnd.pxPrevious;
 136              		.loc 1 130 0
 137 0008 0CBF     		ite	eq
 138 000a 0369     		ldreq	r3, [r0, #16]
 131:FreeRTOS/Source/list.c **** 	}
 132:FreeRTOS/Source/list.c **** 	else
 133:FreeRTOS/Source/list.c **** 	{
 134:FreeRTOS/Source/list.c **** 		/* *** NOTE ***********************************************************
 135:FreeRTOS/Source/list.c **** 		If you find your application is crashing here then likely causes are:
 136:FreeRTOS/Source/list.c **** 			1) Stack overflow -
 137:FreeRTOS/Source/list.c **** 			   see http://www.freertos.org/Stacks-and-stack-overflow-checking.html
 138:FreeRTOS/Source/list.c **** 			2) Incorrect interrupt priority assignment, especially on Cortex-M3
 139:FreeRTOS/Source/list.c **** 			   parts where numerically high priority values denote low actual
 140:FreeRTOS/Source/list.c **** 			   interrupt priories, which can seem counter intuitive.  See
 141:FreeRTOS/Source/list.c **** 			   configMAX_SYSCALL_INTERRUPT_PRIORITY on http://www.freertos.org/a00110.html
 142:FreeRTOS/Source/list.c **** 			3) Calling an API function from within a critical section or when
 143:FreeRTOS/Source/list.c **** 			   the scheduler is suspended.
 144:FreeRTOS/Source/list.c **** 			4) Using a queue or semaphore before it has been initialised or
 145:FreeRTOS/Source/list.c **** 			   before the scheduler has been started (are interrupts firing
 146:FreeRTOS/Source/list.c **** 			   before vTaskStartScheduler() has been called?).
 147:FreeRTOS/Source/list.c **** 		See http://www.freertos.org/FAQHelp.html for more tips.
 148:FreeRTOS/Source/list.c **** 		**********************************************************************/
 149:FreeRTOS/Source/list.c **** 		
 150:FreeRTOS/Source/list.c **** 		for( pxIterator = ( xListItem * ) &( pxList->xListEnd ); pxIterator->pxNext->xItemValue <= xValue
 139              		.loc 1 150 0
 140 000c 00F10803 		addne	r3, r0, #8
 128:FreeRTOS/Source/list.c **** 	{
 141              		.loc 1 128 0
 142 0010 01D1     		bne	.L7
 143 0012 04E0     		b	.L6
 144              	.LVL7:
 145              	.L8:
 146              		.loc 1 150 0 discriminator 2
 147 0014 5B68     		ldr	r3, [r3, #4]
 148              	.LVL8:
 149              	.L7:
 150              		.loc 1 150 0 is_stmt 0 discriminator 1
 151 0016 5A68     		ldr	r2, [r3, #4]
 152 0018 1268     		ldr	r2, [r2]
 153 001a A242     		cmp	r2, r4
 154 001c FAD9     		bls	.L8
 155              	.LVL9:
 156              	.L6:
 151:FreeRTOS/Source/list.c **** 		{
 152:FreeRTOS/Source/list.c **** 			/* There is nothing to do here, we are just iterating to the
 153:FreeRTOS/Source/list.c **** 			wanted insertion position. */
 154:FreeRTOS/Source/list.c **** 		}
 155:FreeRTOS/Source/list.c **** 	}
 156:FreeRTOS/Source/list.c **** 
 157:FreeRTOS/Source/list.c **** 	pxNewListItem->pxNext = pxIterator->pxNext;
 157              		.loc 1 157 0 is_stmt 1
 158 001e 5A68     		ldr	r2, [r3, #4]
 159 0020 4A60     		str	r2, [r1, #4]
 158:FreeRTOS/Source/list.c **** 	pxNewListItem->pxNext->pxPrevious = ( volatile xListItem * ) pxNewListItem;
 160              		.loc 1 158 0
 161 0022 9160     		str	r1, [r2, #8]
 159:FreeRTOS/Source/list.c **** 	pxNewListItem->pxPrevious = pxIterator;
 162              		.loc 1 159 0
 163 0024 8B60     		str	r3, [r1, #8]
 160:FreeRTOS/Source/list.c **** 	pxIterator->pxNext = ( volatile xListItem * ) pxNewListItem;
 164              		.loc 1 160 0
 165 0026 5960     		str	r1, [r3, #4]
 161:FreeRTOS/Source/list.c **** 
 162:FreeRTOS/Source/list.c **** 	/* Remember which list the item is in.  This allows fast removal of the
 163:FreeRTOS/Source/list.c **** 	item later. */
 164:FreeRTOS/Source/list.c **** 	pxNewListItem->pvContainer = ( void * ) pxList;
 166              		.loc 1 164 0
 167 0028 0861     		str	r0, [r1, #16]
 165:FreeRTOS/Source/list.c **** 
 166:FreeRTOS/Source/list.c **** 	( pxList->uxNumberOfItems )++;
 168              		.loc 1 166 0
 169 002a 0368     		ldr	r3, [r0]
 170              	.LVL10:
 171 002c 0133     		adds	r3, r3, #1
 172 002e 0360     		str	r3, [r0]
 167:FreeRTOS/Source/list.c **** }
 173              		.loc 1 167 0
 174 0030 5DF8044B 		ldr	r4, [sp], #4
 175              	.LVL11:
 176 0034 7047     		bx	lr
 177              		.cfi_endproc
 178              	.LFE113:
 180 0036 00BF     		.section	.text.vListRemove,"ax",%progbits
 181              		.align	2
 182              		.global	vListRemove
 183              		.thumb
 184              		.thumb_func
 186              	vListRemove:
 187              	.LFB114:
 168:FreeRTOS/Source/list.c **** /*-----------------------------------------------------------*/
 169:FreeRTOS/Source/list.c **** 
 170:FreeRTOS/Source/list.c **** void vListRemove( xListItem *pxItemToRemove )
 171:FreeRTOS/Source/list.c **** {
 188              		.loc 1 171 0
 189              		.cfi_startproc
 190              		@ args = 0, pretend = 0, frame = 0
 191              		@ frame_needed = 0, uses_anonymous_args = 0
 192              		@ link register save eliminated.
 193              	.LVL12:
 172:FreeRTOS/Source/list.c **** xList * pxList;
 173:FreeRTOS/Source/list.c **** 
 174:FreeRTOS/Source/list.c **** 	pxItemToRemove->pxNext->pxPrevious = pxItemToRemove->pxPrevious;
 194              		.loc 1 174 0
 195 0000 4368     		ldr	r3, [r0, #4]
 196 0002 8268     		ldr	r2, [r0, #8]
 197 0004 9A60     		str	r2, [r3, #8]
 175:FreeRTOS/Source/list.c **** 	pxItemToRemove->pxPrevious->pxNext = pxItemToRemove->pxNext;
 198              		.loc 1 175 0
 199 0006 8368     		ldr	r3, [r0, #8]
 200 0008 4268     		ldr	r2, [r0, #4]
 201 000a 5A60     		str	r2, [r3, #4]
 176:FreeRTOS/Source/list.c **** 	
 177:FreeRTOS/Source/list.c **** 	/* The list item knows which list it is in.  Obtain the list from the list
 178:FreeRTOS/Source/list.c **** 	item. */
 179:FreeRTOS/Source/list.c **** 	pxList = ( xList * ) pxItemToRemove->pvContainer;
 202              		.loc 1 179 0
 203 000c 0369     		ldr	r3, [r0, #16]
 204              	.LVL13:
 180:FreeRTOS/Source/list.c **** 
 181:FreeRTOS/Source/list.c **** 	/* Make sure the index is left pointing to a valid item. */
 182:FreeRTOS/Source/list.c **** 	if( pxList->pxIndex == pxItemToRemove )
 205              		.loc 1 182 0
 206 000e 5A68     		ldr	r2, [r3, #4]
 207 0010 8242     		cmp	r2, r0
 183:FreeRTOS/Source/list.c **** 	{
 184:FreeRTOS/Source/list.c **** 		pxList->pxIndex = pxItemToRemove->pxPrevious;
 208              		.loc 1 184 0
 209 0012 04BF     		itt	eq
 210 0014 8268     		ldreq	r2, [r0, #8]
 211 0016 5A60     		streq	r2, [r3, #4]
 185:FreeRTOS/Source/list.c **** 	}
 186:FreeRTOS/Source/list.c **** 
 187:FreeRTOS/Source/list.c **** 	pxItemToRemove->pvContainer = NULL;
 212              		.loc 1 187 0
 213 0018 0022     		movs	r2, #0
 214 001a 0261     		str	r2, [r0, #16]
 188:FreeRTOS/Source/list.c **** 	( pxList->uxNumberOfItems )--;
 215              		.loc 1 188 0
 216 001c 1A68     		ldr	r2, [r3]
 217 001e 013A     		subs	r2, r2, #1
 218 0020 1A60     		str	r2, [r3]
 219 0022 7047     		bx	lr
 220              		.cfi_endproc
 221              	.LFE114:
 223              		.text
 224              	.Letext0:
 225              		.file 2 "/usr/include/newlib/machine/_default_types.h"
 226              		.file 3 "/usr/include/newlib/stdint.h"
 227              		.file 4 "FreeRTOS/Source/include/../../Source/portable/GCC/ARM_CM4F/portmacro.h"
 228              		.file 5 "FreeRTOS/Source/include/list.h"
 229              		.file 6 "libs/CMSIS/Include/core_cm4.h"