   1              		.syntax unified
   2              		.cpu cortex-m4
   3              		.eabi_attribute 27, 3
   4              		.fpu fpv4-sp-d16
   5              		.eabi_attribute 20, 1
   6              		.eabi_attribute 21, 1
   7              		.eabi_attribute 23, 3
   8              		.eabi_attribute 24, 1
   9              		.eabi_attribute 25, 1
  10              		.eabi_attribute 26, 1
  11              		.eabi_attribute 30, 1
  12              		.eabi_attribute 34, 1
  13              		.eabi_attribute 18, 4
  14              		.thumb
  15              		.file	"stm32f4xx_exti.c"
  16              		.text
  17              	.Ltext0:
  18              		.cfi_sections	.debug_frame
  19              		.section	.text.EXTI_DeInit,"ax",%progbits
  20              		.align	2
  21              		.global	EXTI_DeInit
  22              		.thumb
  23              		.thumb_func
  25              	EXTI_DeInit:
  26              	.LFB110:
  27              		.file 1 "libs/STM32F4xx_StdPeriph_Driver/src/stm32f4xx_exti.c"
   1:libs/STM32F4xx_StdPeriph_Driver/src/stm32f4xx_exti.c **** /**
   2:libs/STM32F4xx_StdPeriph_Driver/src/stm32f4xx_exti.c ****   ******************************************************************************
   3:libs/STM32F4xx_StdPeriph_Driver/src/stm32f4xx_exti.c ****   * @file    stm32f4xx_exti.c
   4:libs/STM32F4xx_StdPeriph_Driver/src/stm32f4xx_exti.c ****   * @author  MCD Application Team
   5:libs/STM32F4xx_StdPeriph_Driver/src/stm32f4xx_exti.c ****   * @version V1.0.0RC1
   6:libs/STM32F4xx_StdPeriph_Driver/src/stm32f4xx_exti.c ****   * @date    25-August-2011
   7:libs/STM32F4xx_StdPeriph_Driver/src/stm32f4xx_exti.c ****   * @brief   This file provides firmware functions to manage the following 
   8:libs/STM32F4xx_StdPeriph_Driver/src/stm32f4xx_exti.c ****   *          functionalities of the EXTI peripheral:           
   9:libs/STM32F4xx_StdPeriph_Driver/src/stm32f4xx_exti.c ****   *           - Initialization and Configuration
  10:libs/STM32F4xx_StdPeriph_Driver/src/stm32f4xx_exti.c ****   *           - Interrupts and flags management
  11:libs/STM32F4xx_StdPeriph_Driver/src/stm32f4xx_exti.c ****   *
  12:libs/STM32F4xx_StdPeriph_Driver/src/stm32f4xx_exti.c ****   *  @verbatim  
  13:libs/STM32F4xx_StdPeriph_Driver/src/stm32f4xx_exti.c ****   *  
  14:libs/STM32F4xx_StdPeriph_Driver/src/stm32f4xx_exti.c ****   *          ===================================================================
  15:libs/STM32F4xx_StdPeriph_Driver/src/stm32f4xx_exti.c ****   *                                     EXTI features
  16:libs/STM32F4xx_StdPeriph_Driver/src/stm32f4xx_exti.c ****   *          ===================================================================
  17:libs/STM32F4xx_StdPeriph_Driver/src/stm32f4xx_exti.c ****   *    
  18:libs/STM32F4xx_StdPeriph_Driver/src/stm32f4xx_exti.c ****   *          External interrupt/event lines are mapped as following:
  19:libs/STM32F4xx_StdPeriph_Driver/src/stm32f4xx_exti.c ****   *            1- All available GPIO pins are connected to the 16 external 
  20:libs/STM32F4xx_StdPeriph_Driver/src/stm32f4xx_exti.c ****   *               interrupt/event lines from EXTI0 to EXTI15.
  21:libs/STM32F4xx_StdPeriph_Driver/src/stm32f4xx_exti.c ****   *            2- EXTI line 16 is connected to the PVD Output
  22:libs/STM32F4xx_StdPeriph_Driver/src/stm32f4xx_exti.c ****   *            3- EXTI line 17 is connected to the RTC Alarm event
  23:libs/STM32F4xx_StdPeriph_Driver/src/stm32f4xx_exti.c ****   *            4- EXTI line 18 is connected to the USB OTG FS Wakeup from suspend event            
  24:libs/STM32F4xx_StdPeriph_Driver/src/stm32f4xx_exti.c ****   *            5- EXTI line 19 is connected to the Ethernet Wakeup event
  25:libs/STM32F4xx_StdPeriph_Driver/src/stm32f4xx_exti.c ****   *            6- EXTI line 20 is connected to the USB OTG HS (configured in FS) Wakeup event 
  26:libs/STM32F4xx_StdPeriph_Driver/src/stm32f4xx_exti.c ****   *            7- EXTI line 21 is connected to the RTC Tamper and Time Stamp events                
  27:libs/STM32F4xx_StdPeriph_Driver/src/stm32f4xx_exti.c ****   *            8- EXTI line 22 is connected to the RTC Wakeup event
  28:libs/STM32F4xx_StdPeriph_Driver/src/stm32f4xx_exti.c ****   *        
  29:libs/STM32F4xx_StdPeriph_Driver/src/stm32f4xx_exti.c ****   *          ===================================================================
  30:libs/STM32F4xx_StdPeriph_Driver/src/stm32f4xx_exti.c ****   *                                 How to use this driver
  31:libs/STM32F4xx_StdPeriph_Driver/src/stm32f4xx_exti.c ****   *          ===================================================================  
  32:libs/STM32F4xx_StdPeriph_Driver/src/stm32f4xx_exti.c ****   *              
  33:libs/STM32F4xx_StdPeriph_Driver/src/stm32f4xx_exti.c ****   *          In order to use an I/O pin as an external interrupt source, follow
  34:libs/STM32F4xx_StdPeriph_Driver/src/stm32f4xx_exti.c ****   *          steps below:
  35:libs/STM32F4xx_StdPeriph_Driver/src/stm32f4xx_exti.c ****   *            1- Configure the I/O in input mode using GPIO_Init()
  36:libs/STM32F4xx_StdPeriph_Driver/src/stm32f4xx_exti.c ****   *            2- Select the input source pin for the EXTI line using SYSCFG_EXTILineConfig()
  37:libs/STM32F4xx_StdPeriph_Driver/src/stm32f4xx_exti.c ****   *            3- Select the mode(interrupt, event) and configure the trigger 
  38:libs/STM32F4xx_StdPeriph_Driver/src/stm32f4xx_exti.c ****   *               selection (Rising, falling or both) using EXTI_Init()
  39:libs/STM32F4xx_StdPeriph_Driver/src/stm32f4xx_exti.c ****   *            4- Configure NVIC IRQ channel mapped to the EXTI line using NVIC_Init()
  40:libs/STM32F4xx_StdPeriph_Driver/src/stm32f4xx_exti.c ****   *   
  41:libs/STM32F4xx_StdPeriph_Driver/src/stm32f4xx_exti.c ****   *  @note  SYSCFG APB clock must be enabled to get write access to SYSCFG_EXTICRx
  42:libs/STM32F4xx_StdPeriph_Driver/src/stm32f4xx_exti.c ****   *         registers using RCC_APB2PeriphClockCmd(RCC_APB2Periph_SYSCFG, ENABLE);
  43:libs/STM32F4xx_StdPeriph_Driver/src/stm32f4xx_exti.c ****   *          
  44:libs/STM32F4xx_StdPeriph_Driver/src/stm32f4xx_exti.c ****   *  @endverbatim                  
  45:libs/STM32F4xx_StdPeriph_Driver/src/stm32f4xx_exti.c ****   *
  46:libs/STM32F4xx_StdPeriph_Driver/src/stm32f4xx_exti.c ****   ******************************************************************************
  47:libs/STM32F4xx_StdPeriph_Driver/src/stm32f4xx_exti.c ****   * @attention
  48:libs/STM32F4xx_StdPeriph_Driver/src/stm32f4xx_exti.c ****   *
  49:libs/STM32F4xx_StdPeriph_Driver/src/stm32f4xx_exti.c ****   * THE PRESENT FIRMWARE WHICH IS FOR GUIDANCE ONLY AIMS AT PROVIDING CUSTOMERS
  50:libs/STM32F4xx_StdPeriph_Driver/src/stm32f4xx_exti.c ****   * WITH CODING INFORMATION REGARDING THEIR PRODUCTS IN ORDER FOR THEM TO SAVE
  51:libs/STM32F4xx_StdPeriph_Driver/src/stm32f4xx_exti.c ****   * TIME. AS A RESULT, STMICROELECTRONICS SHALL NOT BE HELD LIABLE FOR ANY
  52:libs/STM32F4xx_StdPeriph_Driver/src/stm32f4xx_exti.c ****   * DIRECT, INDIRECT OR CONSEQUENTIAL DAMAGES WITH RESPECT TO ANY CLAIMS ARISING
  53:libs/STM32F4xx_StdPeriph_Driver/src/stm32f4xx_exti.c ****   * FROM THE CONTENT OF SUCH FIRMWARE AND/OR THE USE MADE BY CUSTOMERS OF THE
  54:libs/STM32F4xx_StdPeriph_Driver/src/stm32f4xx_exti.c ****   * CODING INFORMATION CONTAINED HEREIN IN CONNECTION WITH THEIR PRODUCTS.
  55:libs/STM32F4xx_StdPeriph_Driver/src/stm32f4xx_exti.c ****   *
  56:libs/STM32F4xx_StdPeriph_Driver/src/stm32f4xx_exti.c ****   * <h2><center>&copy; COPYRIGHT 2011 STMicroelectronics</center></h2>
  57:libs/STM32F4xx_StdPeriph_Driver/src/stm32f4xx_exti.c ****   ******************************************************************************
  58:libs/STM32F4xx_StdPeriph_Driver/src/stm32f4xx_exti.c ****   */
  59:libs/STM32F4xx_StdPeriph_Driver/src/stm32f4xx_exti.c **** 
  60:libs/STM32F4xx_StdPeriph_Driver/src/stm32f4xx_exti.c **** /* Includes ------------------------------------------------------------------*/
  61:libs/STM32F4xx_StdPeriph_Driver/src/stm32f4xx_exti.c **** #include "stm32f4xx_exti.h"
  62:libs/STM32F4xx_StdPeriph_Driver/src/stm32f4xx_exti.c **** 
  63:libs/STM32F4xx_StdPeriph_Driver/src/stm32f4xx_exti.c **** /** @addtogroup STM32F4xx_StdPeriph_Driver
  64:libs/STM32F4xx_StdPeriph_Driver/src/stm32f4xx_exti.c ****   * @{
  65:libs/STM32F4xx_StdPeriph_Driver/src/stm32f4xx_exti.c ****   */
  66:libs/STM32F4xx_StdPeriph_Driver/src/stm32f4xx_exti.c **** 
  67:libs/STM32F4xx_StdPeriph_Driver/src/stm32f4xx_exti.c **** /** @defgroup EXTI 
  68:libs/STM32F4xx_StdPeriph_Driver/src/stm32f4xx_exti.c ****   * @brief EXTI driver modules
  69:libs/STM32F4xx_StdPeriph_Driver/src/stm32f4xx_exti.c ****   * @{
  70:libs/STM32F4xx_StdPeriph_Driver/src/stm32f4xx_exti.c ****   */
  71:libs/STM32F4xx_StdPeriph_Driver/src/stm32f4xx_exti.c **** 
  72:libs/STM32F4xx_StdPeriph_Driver/src/stm32f4xx_exti.c **** /* Private typedef -----------------------------------------------------------*/
  73:libs/STM32F4xx_StdPeriph_Driver/src/stm32f4xx_exti.c **** /* Private define ------------------------------------------------------------*/
  74:libs/STM32F4xx_StdPeriph_Driver/src/stm32f4xx_exti.c **** 
  75:libs/STM32F4xx_StdPeriph_Driver/src/stm32f4xx_exti.c **** #define EXTI_LINENONE    ((uint32_t)0x00000)  /* No interrupt selected */
  76:libs/STM32F4xx_StdPeriph_Driver/src/stm32f4xx_exti.c **** 
  77:libs/STM32F4xx_StdPeriph_Driver/src/stm32f4xx_exti.c **** /* Private macro -------------------------------------------------------------*/
  78:libs/STM32F4xx_StdPeriph_Driver/src/stm32f4xx_exti.c **** /* Private variables ---------------------------------------------------------*/
  79:libs/STM32F4xx_StdPeriph_Driver/src/stm32f4xx_exti.c **** /* Private function prototypes -----------------------------------------------*/
  80:libs/STM32F4xx_StdPeriph_Driver/src/stm32f4xx_exti.c **** /* Private functions ---------------------------------------------------------*/
  81:libs/STM32F4xx_StdPeriph_Driver/src/stm32f4xx_exti.c **** 
  82:libs/STM32F4xx_StdPeriph_Driver/src/stm32f4xx_exti.c **** /** @defgroup EXTI_Private_Functions
  83:libs/STM32F4xx_StdPeriph_Driver/src/stm32f4xx_exti.c ****   * @{
  84:libs/STM32F4xx_StdPeriph_Driver/src/stm32f4xx_exti.c ****   */
  85:libs/STM32F4xx_StdPeriph_Driver/src/stm32f4xx_exti.c **** 
  86:libs/STM32F4xx_StdPeriph_Driver/src/stm32f4xx_exti.c **** /** @defgroup EXTI_Group1 Initialization and Configuration functions
  87:libs/STM32F4xx_StdPeriph_Driver/src/stm32f4xx_exti.c ****  *  @brief   Initialization and Configuration functions 
  88:libs/STM32F4xx_StdPeriph_Driver/src/stm32f4xx_exti.c ****  *
  89:libs/STM32F4xx_StdPeriph_Driver/src/stm32f4xx_exti.c **** @verbatim   
  90:libs/STM32F4xx_StdPeriph_Driver/src/stm32f4xx_exti.c ****  ===============================================================================
  91:libs/STM32F4xx_StdPeriph_Driver/src/stm32f4xx_exti.c ****                   Initialization and Configuration functions
  92:libs/STM32F4xx_StdPeriph_Driver/src/stm32f4xx_exti.c ****  ===============================================================================  
  93:libs/STM32F4xx_StdPeriph_Driver/src/stm32f4xx_exti.c **** 
  94:libs/STM32F4xx_StdPeriph_Driver/src/stm32f4xx_exti.c **** @endverbatim
  95:libs/STM32F4xx_StdPeriph_Driver/src/stm32f4xx_exti.c ****   * @{
  96:libs/STM32F4xx_StdPeriph_Driver/src/stm32f4xx_exti.c ****   */
  97:libs/STM32F4xx_StdPeriph_Driver/src/stm32f4xx_exti.c **** 
  98:libs/STM32F4xx_StdPeriph_Driver/src/stm32f4xx_exti.c **** /**
  99:libs/STM32F4xx_StdPeriph_Driver/src/stm32f4xx_exti.c ****   * @brief  Deinitializes the EXTI peripheral registers to their default reset values.
 100:libs/STM32F4xx_StdPeriph_Driver/src/stm32f4xx_exti.c ****   * @param  None
 101:libs/STM32F4xx_StdPeriph_Driver/src/stm32f4xx_exti.c ****   * @retval None
 102:libs/STM32F4xx_StdPeriph_Driver/src/stm32f4xx_exti.c ****   */
 103:libs/STM32F4xx_StdPeriph_Driver/src/stm32f4xx_exti.c **** void EXTI_DeInit(void)
 104:libs/STM32F4xx_StdPeriph_Driver/src/stm32f4xx_exti.c **** {
  28              		.loc 1 104 0
  29              		.cfi_startproc
  30              		@ args = 0, pretend = 0, frame = 0
  31              		@ frame_needed = 0, uses_anonymous_args = 0
  32              		@ link register save eliminated.
 105:libs/STM32F4xx_StdPeriph_Driver/src/stm32f4xx_exti.c ****   EXTI->IMR = 0x00000000;
  33              		.loc 1 105 0
  34 0000 4FF47053 		mov	r3, #15360
  35 0004 C4F20103 		movt	r3, 16385
  36 0008 0022     		movs	r2, #0
  37 000a 1A60     		str	r2, [r3]
 106:libs/STM32F4xx_StdPeriph_Driver/src/stm32f4xx_exti.c ****   EXTI->EMR = 0x00000000;
  38              		.loc 1 106 0
  39 000c 5A60     		str	r2, [r3, #4]
 107:libs/STM32F4xx_StdPeriph_Driver/src/stm32f4xx_exti.c ****   EXTI->RTSR = 0x00000000;
  40              		.loc 1 107 0
  41 000e 9A60     		str	r2, [r3, #8]
 108:libs/STM32F4xx_StdPeriph_Driver/src/stm32f4xx_exti.c ****   EXTI->FTSR = 0x00000000;
  42              		.loc 1 108 0
  43 0010 DA60     		str	r2, [r3, #12]
 109:libs/STM32F4xx_StdPeriph_Driver/src/stm32f4xx_exti.c ****   EXTI->PR = 0x007FFFFF;
  44              		.loc 1 109 0
  45 0012 4FF6FF72 		movw	r2, #65535
  46 0016 C0F27F02 		movt	r2, 127
  47 001a 5A61     		str	r2, [r3, #20]
  48 001c 7047     		bx	lr
  49              		.cfi_endproc
  50              	.LFE110:
  52 001e 00BF     		.section	.text.EXTI_Init,"ax",%progbits
  53              		.align	2
  54              		.global	EXTI_Init
  55              		.thumb
  56              		.thumb_func
  58              	EXTI_Init:
  59              	.LFB111:
 110:libs/STM32F4xx_StdPeriph_Driver/src/stm32f4xx_exti.c **** }
 111:libs/STM32F4xx_StdPeriph_Driver/src/stm32f4xx_exti.c **** 
 112:libs/STM32F4xx_StdPeriph_Driver/src/stm32f4xx_exti.c **** /**
 113:libs/STM32F4xx_StdPeriph_Driver/src/stm32f4xx_exti.c ****   * @brief  Initializes the EXTI peripheral according to the specified
 114:libs/STM32F4xx_StdPeriph_Driver/src/stm32f4xx_exti.c ****   *         parameters in the EXTI_InitStruct.
 115:libs/STM32F4xx_StdPeriph_Driver/src/stm32f4xx_exti.c ****   * @param  EXTI_InitStruct: pointer to a EXTI_InitTypeDef structure
 116:libs/STM32F4xx_StdPeriph_Driver/src/stm32f4xx_exti.c ****   *         that contains the configuration information for the EXTI peripheral.
 117:libs/STM32F4xx_StdPeriph_Driver/src/stm32f4xx_exti.c ****   * @retval None
 118:libs/STM32F4xx_StdPeriph_Driver/src/stm32f4xx_exti.c ****   */
 119:libs/STM32F4xx_StdPeriph_Driver/src/stm32f4xx_exti.c **** void EXTI_Init(EXTI_InitTypeDef* EXTI_InitStruct)
 120:libs/STM32F4xx_StdPeriph_Driver/src/stm32f4xx_exti.c **** {
  60              		.loc 1 120 0
  61              		.cfi_startproc
  62              		@ args = 0, pretend = 0, frame = 0
  63              		@ frame_needed = 0, uses_anonymous_args = 0
  64              		@ link register save eliminated.
  65              	.LVL0:
  66 0000 10B4     		push	{r4}
  67              	.LCFI0:
  68              		.cfi_def_cfa_offset 4
  69              		.cfi_offset 4, -4
  70              	.LVL1:
 121:libs/STM32F4xx_StdPeriph_Driver/src/stm32f4xx_exti.c ****   uint32_t tmp = 0;
 122:libs/STM32F4xx_StdPeriph_Driver/src/stm32f4xx_exti.c **** 
 123:libs/STM32F4xx_StdPeriph_Driver/src/stm32f4xx_exti.c ****   /* Check the parameters */
 124:libs/STM32F4xx_StdPeriph_Driver/src/stm32f4xx_exti.c ****   assert_param(IS_EXTI_MODE(EXTI_InitStruct->EXTI_Mode));
 125:libs/STM32F4xx_StdPeriph_Driver/src/stm32f4xx_exti.c ****   assert_param(IS_EXTI_TRIGGER(EXTI_InitStruct->EXTI_Trigger));
 126:libs/STM32F4xx_StdPeriph_Driver/src/stm32f4xx_exti.c ****   assert_param(IS_EXTI_LINE(EXTI_InitStruct->EXTI_Line));  
 127:libs/STM32F4xx_StdPeriph_Driver/src/stm32f4xx_exti.c ****   assert_param(IS_FUNCTIONAL_STATE(EXTI_InitStruct->EXTI_LineCmd));
 128:libs/STM32F4xx_StdPeriph_Driver/src/stm32f4xx_exti.c **** 
 129:libs/STM32F4xx_StdPeriph_Driver/src/stm32f4xx_exti.c ****   tmp = (uint32_t)EXTI_BASE;
 130:libs/STM32F4xx_StdPeriph_Driver/src/stm32f4xx_exti.c ****      
 131:libs/STM32F4xx_StdPeriph_Driver/src/stm32f4xx_exti.c ****   if (EXTI_InitStruct->EXTI_LineCmd != DISABLE)
  71              		.loc 1 131 0
  72 0002 8379     		ldrb	r3, [r0, #6]	@ zero_extendqisi2
  73 0004 002B     		cmp	r3, #0
  74 0006 39D0     		beq	.L3
 132:libs/STM32F4xx_StdPeriph_Driver/src/stm32f4xx_exti.c ****   {
 133:libs/STM32F4xx_StdPeriph_Driver/src/stm32f4xx_exti.c ****     /* Clear EXTI line configuration */
 134:libs/STM32F4xx_StdPeriph_Driver/src/stm32f4xx_exti.c ****     EXTI->IMR &= ~EXTI_InitStruct->EXTI_Line;
  75              		.loc 1 134 0
  76 0008 4FF47053 		mov	r3, #15360
  77 000c C4F20103 		movt	r3, 16385
  78 0010 1968     		ldr	r1, [r3]
  79 0012 0268     		ldr	r2, [r0]
  80 0014 21EA0202 		bic	r2, r1, r2
  81 0018 1A60     		str	r2, [r3]
 135:libs/STM32F4xx_StdPeriph_Driver/src/stm32f4xx_exti.c ****     EXTI->EMR &= ~EXTI_InitStruct->EXTI_Line;
  82              		.loc 1 135 0
  83 001a 5968     		ldr	r1, [r3, #4]
  84 001c 0268     		ldr	r2, [r0]
  85 001e 21EA0202 		bic	r2, r1, r2
  86 0022 5A60     		str	r2, [r3, #4]
 136:libs/STM32F4xx_StdPeriph_Driver/src/stm32f4xx_exti.c ****     
 137:libs/STM32F4xx_StdPeriph_Driver/src/stm32f4xx_exti.c ****     tmp += EXTI_InitStruct->EXTI_Mode;
  87              		.loc 1 137 0
  88 0024 0279     		ldrb	r2, [r0, #4]	@ zero_extendqisi2
  89 0026 02F18042 		add	r2, r2, #1073741824
  90 002a 02F59E32 		add	r2, r2, #80896
  91              	.LVL2:
 138:libs/STM32F4xx_StdPeriph_Driver/src/stm32f4xx_exti.c **** 
 139:libs/STM32F4xx_StdPeriph_Driver/src/stm32f4xx_exti.c ****     *(__IO uint32_t *) tmp |= EXTI_InitStruct->EXTI_Line;
  92              		.loc 1 139 0
  93 002e 1468     		ldr	r4, [r2]
  94 0030 0168     		ldr	r1, [r0]
  95 0032 2143     		orrs	r1, r1, r4
  96 0034 1160     		str	r1, [r2]
 140:libs/STM32F4xx_StdPeriph_Driver/src/stm32f4xx_exti.c **** 
 141:libs/STM32F4xx_StdPeriph_Driver/src/stm32f4xx_exti.c ****     /* Clear Rising Falling edge configuration */
 142:libs/STM32F4xx_StdPeriph_Driver/src/stm32f4xx_exti.c ****     EXTI->RTSR &= ~EXTI_InitStruct->EXTI_Line;
  97              		.loc 1 142 0
  98 0036 9968     		ldr	r1, [r3, #8]
  99 0038 0268     		ldr	r2, [r0]
 100              	.LVL3:
 101 003a 21EA0202 		bic	r2, r1, r2
 102 003e 9A60     		str	r2, [r3, #8]
 143:libs/STM32F4xx_StdPeriph_Driver/src/stm32f4xx_exti.c ****     EXTI->FTSR &= ~EXTI_InitStruct->EXTI_Line;
 103              		.loc 1 143 0
 104 0040 D968     		ldr	r1, [r3, #12]
 105 0042 0268     		ldr	r2, [r0]
 106 0044 21EA0202 		bic	r2, r1, r2
 107 0048 DA60     		str	r2, [r3, #12]
 144:libs/STM32F4xx_StdPeriph_Driver/src/stm32f4xx_exti.c ****     
 145:libs/STM32F4xx_StdPeriph_Driver/src/stm32f4xx_exti.c ****     /* Select the trigger for the selected external interrupts */
 146:libs/STM32F4xx_StdPeriph_Driver/src/stm32f4xx_exti.c ****     if (EXTI_InitStruct->EXTI_Trigger == EXTI_Trigger_Rising_Falling)
 108              		.loc 1 146 0
 109 004a 4379     		ldrb	r3, [r0, #5]	@ zero_extendqisi2
 110 004c 102B     		cmp	r3, #16
 111 004e 0CD1     		bne	.L4
 147:libs/STM32F4xx_StdPeriph_Driver/src/stm32f4xx_exti.c ****     {
 148:libs/STM32F4xx_StdPeriph_Driver/src/stm32f4xx_exti.c ****       /* Rising Falling edge */
 149:libs/STM32F4xx_StdPeriph_Driver/src/stm32f4xx_exti.c ****       EXTI->RTSR |= EXTI_InitStruct->EXTI_Line;
 112              		.loc 1 149 0
 113 0050 4FF47053 		mov	r3, #15360
 114 0054 C4F20103 		movt	r3, 16385
 115 0058 9968     		ldr	r1, [r3, #8]
 116 005a 0268     		ldr	r2, [r0]
 117 005c 0A43     		orrs	r2, r2, r1
 118 005e 9A60     		str	r2, [r3, #8]
 150:libs/STM32F4xx_StdPeriph_Driver/src/stm32f4xx_exti.c ****       EXTI->FTSR |= EXTI_InitStruct->EXTI_Line;
 119              		.loc 1 150 0
 120 0060 D968     		ldr	r1, [r3, #12]
 121 0062 0268     		ldr	r2, [r0]
 122 0064 0A43     		orrs	r2, r2, r1
 123 0066 DA60     		str	r2, [r3, #12]
 124 0068 12E0     		b	.L2
 125              	.L4:
 126              	.LVL4:
 151:libs/STM32F4xx_StdPeriph_Driver/src/stm32f4xx_exti.c ****     }
 152:libs/STM32F4xx_StdPeriph_Driver/src/stm32f4xx_exti.c ****     else
 153:libs/STM32F4xx_StdPeriph_Driver/src/stm32f4xx_exti.c ****     {
 154:libs/STM32F4xx_StdPeriph_Driver/src/stm32f4xx_exti.c ****       tmp = (uint32_t)EXTI_BASE;
 155:libs/STM32F4xx_StdPeriph_Driver/src/stm32f4xx_exti.c ****       tmp += EXTI_InitStruct->EXTI_Trigger;
 127              		.loc 1 155 0
 128 006a 03F18043 		add	r3, r3, #1073741824
 129 006e 03F59E33 		add	r3, r3, #80896
 130              	.LVL5:
 156:libs/STM32F4xx_StdPeriph_Driver/src/stm32f4xx_exti.c **** 
 157:libs/STM32F4xx_StdPeriph_Driver/src/stm32f4xx_exti.c ****       *(__IO uint32_t *) tmp |= EXTI_InitStruct->EXTI_Line;
 131              		.loc 1 157 0
 132 0072 1968     		ldr	r1, [r3]
 133 0074 0268     		ldr	r2, [r0]
 134 0076 0A43     		orrs	r2, r2, r1
 135 0078 1A60     		str	r2, [r3]
 136 007a 09E0     		b	.L2
 137              	.LVL6:
 138              	.L3:
 158:libs/STM32F4xx_StdPeriph_Driver/src/stm32f4xx_exti.c ****     }
 159:libs/STM32F4xx_StdPeriph_Driver/src/stm32f4xx_exti.c ****   }
 160:libs/STM32F4xx_StdPeriph_Driver/src/stm32f4xx_exti.c ****   else
 161:libs/STM32F4xx_StdPeriph_Driver/src/stm32f4xx_exti.c ****   {
 162:libs/STM32F4xx_StdPeriph_Driver/src/stm32f4xx_exti.c ****     tmp += EXTI_InitStruct->EXTI_Mode;
 139              		.loc 1 162 0
 140 007c 0379     		ldrb	r3, [r0, #4]	@ zero_extendqisi2
 141 007e 03F18043 		add	r3, r3, #1073741824
 142 0082 03F59E33 		add	r3, r3, #80896
 143              	.LVL7:
 163:libs/STM32F4xx_StdPeriph_Driver/src/stm32f4xx_exti.c **** 
 164:libs/STM32F4xx_StdPeriph_Driver/src/stm32f4xx_exti.c ****     /* Disable the selected external lines */
 165:libs/STM32F4xx_StdPeriph_Driver/src/stm32f4xx_exti.c ****     *(__IO uint32_t *) tmp &= ~EXTI_InitStruct->EXTI_Line;
 144              		.loc 1 165 0
 145 0086 1A68     		ldr	r2, [r3]
 146 0088 0168     		ldr	r1, [r0]
 147 008a 22EA0102 		bic	r2, r2, r1
 148 008e 1A60     		str	r2, [r3]
 149              	.LVL8:
 150              	.L2:
 166:libs/STM32F4xx_StdPeriph_Driver/src/stm32f4xx_exti.c ****   }
 167:libs/STM32F4xx_StdPeriph_Driver/src/stm32f4xx_exti.c **** }
 151              		.loc 1 167 0
 152 0090 5DF8044B 		ldr	r4, [sp], #4
 153 0094 7047     		bx	lr
 154              		.cfi_endproc
 155              	.LFE111:
 157 0096 00BF     		.section	.text.EXTI_StructInit,"ax",%progbits
 158              		.align	2
 159              		.global	EXTI_StructInit
 160              		.thumb
 161              		.thumb_func
 163              	EXTI_StructInit:
 164              	.LFB112:
 168:libs/STM32F4xx_StdPeriph_Driver/src/stm32f4xx_exti.c **** 
 169:libs/STM32F4xx_StdPeriph_Driver/src/stm32f4xx_exti.c **** /**
 170:libs/STM32F4xx_StdPeriph_Driver/src/stm32f4xx_exti.c ****   * @brief  Fills each EXTI_InitStruct member with its reset value.
 171:libs/STM32F4xx_StdPeriph_Driver/src/stm32f4xx_exti.c ****   * @param  EXTI_InitStruct: pointer to a EXTI_InitTypeDef structure which will
 172:libs/STM32F4xx_StdPeriph_Driver/src/stm32f4xx_exti.c ****   *         be initialized.
 173:libs/STM32F4xx_StdPeriph_Driver/src/stm32f4xx_exti.c ****   * @retval None
 174:libs/STM32F4xx_StdPeriph_Driver/src/stm32f4xx_exti.c ****   */
 175:libs/STM32F4xx_StdPeriph_Driver/src/stm32f4xx_exti.c **** void EXTI_StructInit(EXTI_InitTypeDef* EXTI_InitStruct)
 176:libs/STM32F4xx_StdPeriph_Driver/src/stm32f4xx_exti.c **** {
 165              		.loc 1 176 0
 166              		.cfi_startproc
 167              		@ args = 0, pretend = 0, frame = 0
 168              		@ frame_needed = 0, uses_anonymous_args = 0
 169              		@ link register save eliminated.
 170              	.LVL9:
 177:libs/STM32F4xx_StdPeriph_Driver/src/stm32f4xx_exti.c ****   EXTI_InitStruct->EXTI_Line = EXTI_LINENONE;
 171              		.loc 1 177 0
 172 0000 0023     		movs	r3, #0
 173 0002 0360     		str	r3, [r0]
 178:libs/STM32F4xx_StdPeriph_Driver/src/stm32f4xx_exti.c ****   EXTI_InitStruct->EXTI_Mode = EXTI_Mode_Interrupt;
 174              		.loc 1 178 0
 175 0004 0371     		strb	r3, [r0, #4]
 179:libs/STM32F4xx_StdPeriph_Driver/src/stm32f4xx_exti.c ****   EXTI_InitStruct->EXTI_Trigger = EXTI_Trigger_Falling;
 176              		.loc 1 179 0
 177 0006 0C22     		movs	r2, #12
 178 0008 4271     		strb	r2, [r0, #5]
 180:libs/STM32F4xx_StdPeriph_Driver/src/stm32f4xx_exti.c ****   EXTI_InitStruct->EXTI_LineCmd = DISABLE;
 179              		.loc 1 180 0
 180 000a 8371     		strb	r3, [r0, #6]
 181 000c 7047     		bx	lr
 182              		.cfi_endproc
 183              	.LFE112:
 185 000e 00BF     		.section	.text.EXTI_GenerateSWInterrupt,"ax",%progbits
 186              		.align	2
 187              		.global	EXTI_GenerateSWInterrupt
 188              		.thumb
 189              		.thumb_func
 191              	EXTI_GenerateSWInterrupt:
 192              	.LFB113:
 181:libs/STM32F4xx_StdPeriph_Driver/src/stm32f4xx_exti.c **** }
 182:libs/STM32F4xx_StdPeriph_Driver/src/stm32f4xx_exti.c **** 
 183:libs/STM32F4xx_StdPeriph_Driver/src/stm32f4xx_exti.c **** /**
 184:libs/STM32F4xx_StdPeriph_Driver/src/stm32f4xx_exti.c ****   * @brief  Generates a Software interrupt on selected EXTI line.
 185:libs/STM32F4xx_StdPeriph_Driver/src/stm32f4xx_exti.c ****   * @param  EXTI_Line: specifies the EXTI line on which the software interrupt
 186:libs/STM32F4xx_StdPeriph_Driver/src/stm32f4xx_exti.c ****   *         will be generated.
 187:libs/STM32F4xx_StdPeriph_Driver/src/stm32f4xx_exti.c ****   *         This parameter can be any combination of EXTI_Linex where x can be (0..22)
 188:libs/STM32F4xx_StdPeriph_Driver/src/stm32f4xx_exti.c ****   * @retval None
 189:libs/STM32F4xx_StdPeriph_Driver/src/stm32f4xx_exti.c ****   */
 190:libs/STM32F4xx_StdPeriph_Driver/src/stm32f4xx_exti.c **** void EXTI_GenerateSWInterrupt(uint32_t EXTI_Line)
 191:libs/STM32F4xx_StdPeriph_Driver/src/stm32f4xx_exti.c **** {
 193              		.loc 1 191 0
 194              		.cfi_startproc
 195              		@ args = 0, pretend = 0, frame = 0
 196              		@ frame_needed = 0, uses_anonymous_args = 0
 197              		@ link register save eliminated.
 198              	.LVL10:
 192:libs/STM32F4xx_StdPeriph_Driver/src/stm32f4xx_exti.c ****   /* Check the parameters */
 193:libs/STM32F4xx_StdPeriph_Driver/src/stm32f4xx_exti.c ****   assert_param(IS_EXTI_LINE(EXTI_Line));
 194:libs/STM32F4xx_StdPeriph_Driver/src/stm32f4xx_exti.c ****   
 195:libs/STM32F4xx_StdPeriph_Driver/src/stm32f4xx_exti.c ****   EXTI->SWIER |= EXTI_Line;
 199              		.loc 1 195 0
 200 0000 4FF47053 		mov	r3, #15360
 201 0004 C4F20103 		movt	r3, 16385
 202 0008 1A69     		ldr	r2, [r3, #16]
 203 000a 1043     		orrs	r0, r0, r2
 204              	.LVL11:
 205 000c 1861     		str	r0, [r3, #16]
 206 000e 7047     		bx	lr
 207              		.cfi_endproc
 208              	.LFE113:
 210              		.section	.text.EXTI_GetFlagStatus,"ax",%progbits
 211              		.align	2
 212              		.global	EXTI_GetFlagStatus
 213              		.thumb
 214              		.thumb_func
 216              	EXTI_GetFlagStatus:
 217              	.LFB114:
 196:libs/STM32F4xx_StdPeriph_Driver/src/stm32f4xx_exti.c **** }
 197:libs/STM32F4xx_StdPeriph_Driver/src/stm32f4xx_exti.c **** 
 198:libs/STM32F4xx_StdPeriph_Driver/src/stm32f4xx_exti.c **** /**
 199:libs/STM32F4xx_StdPeriph_Driver/src/stm32f4xx_exti.c ****   * @}
 200:libs/STM32F4xx_StdPeriph_Driver/src/stm32f4xx_exti.c ****   */
 201:libs/STM32F4xx_StdPeriph_Driver/src/stm32f4xx_exti.c **** 
 202:libs/STM32F4xx_StdPeriph_Driver/src/stm32f4xx_exti.c **** /** @defgroup EXTI_Group2 Interrupts and flags management functions
 203:libs/STM32F4xx_StdPeriph_Driver/src/stm32f4xx_exti.c ****  *  @brief   Interrupts and flags management functions 
 204:libs/STM32F4xx_StdPeriph_Driver/src/stm32f4xx_exti.c ****  *
 205:libs/STM32F4xx_StdPeriph_Driver/src/stm32f4xx_exti.c **** @verbatim   
 206:libs/STM32F4xx_StdPeriph_Driver/src/stm32f4xx_exti.c ****  ===============================================================================
 207:libs/STM32F4xx_StdPeriph_Driver/src/stm32f4xx_exti.c ****                   Interrupts and flags management functions
 208:libs/STM32F4xx_StdPeriph_Driver/src/stm32f4xx_exti.c ****  ===============================================================================  
 209:libs/STM32F4xx_StdPeriph_Driver/src/stm32f4xx_exti.c **** 
 210:libs/STM32F4xx_StdPeriph_Driver/src/stm32f4xx_exti.c **** @endverbatim
 211:libs/STM32F4xx_StdPeriph_Driver/src/stm32f4xx_exti.c ****   * @{
 212:libs/STM32F4xx_StdPeriph_Driver/src/stm32f4xx_exti.c ****   */
 213:libs/STM32F4xx_StdPeriph_Driver/src/stm32f4xx_exti.c **** 
 214:libs/STM32F4xx_StdPeriph_Driver/src/stm32f4xx_exti.c **** /**
 215:libs/STM32F4xx_StdPeriph_Driver/src/stm32f4xx_exti.c ****   * @brief  Checks whether the specified EXTI line flag is set or not.
 216:libs/STM32F4xx_StdPeriph_Driver/src/stm32f4xx_exti.c ****   * @param  EXTI_Line: specifies the EXTI line flag to check.
 217:libs/STM32F4xx_StdPeriph_Driver/src/stm32f4xx_exti.c ****   *          This parameter can be EXTI_Linex where x can be(0..22)
 218:libs/STM32F4xx_StdPeriph_Driver/src/stm32f4xx_exti.c ****   * @retval The new state of EXTI_Line (SET or RESET).
 219:libs/STM32F4xx_StdPeriph_Driver/src/stm32f4xx_exti.c ****   */
 220:libs/STM32F4xx_StdPeriph_Driver/src/stm32f4xx_exti.c **** FlagStatus EXTI_GetFlagStatus(uint32_t EXTI_Line)
 221:libs/STM32F4xx_StdPeriph_Driver/src/stm32f4xx_exti.c **** {
 218              		.loc 1 221 0
 219              		.cfi_startproc
 220              		@ args = 0, pretend = 0, frame = 0
 221              		@ frame_needed = 0, uses_anonymous_args = 0
 222              		@ link register save eliminated.
 223              	.LVL12:
 222:libs/STM32F4xx_StdPeriph_Driver/src/stm32f4xx_exti.c ****   FlagStatus bitstatus = RESET;
 223:libs/STM32F4xx_StdPeriph_Driver/src/stm32f4xx_exti.c ****   /* Check the parameters */
 224:libs/STM32F4xx_StdPeriph_Driver/src/stm32f4xx_exti.c ****   assert_param(IS_GET_EXTI_LINE(EXTI_Line));
 225:libs/STM32F4xx_StdPeriph_Driver/src/stm32f4xx_exti.c ****   
 226:libs/STM32F4xx_StdPeriph_Driver/src/stm32f4xx_exti.c ****   if ((EXTI->PR & EXTI_Line) != (uint32_t)RESET)
 224              		.loc 1 226 0
 225 0000 4FF47053 		mov	r3, #15360
 226 0004 C4F20103 		movt	r3, 16385
 227 0008 5B69     		ldr	r3, [r3, #20]
 228 000a 1840     		ands	r0, r0, r3
 229              	.LVL13:
 227:libs/STM32F4xx_StdPeriph_Driver/src/stm32f4xx_exti.c ****   {
 228:libs/STM32F4xx_StdPeriph_Driver/src/stm32f4xx_exti.c ****     bitstatus = SET;
 229:libs/STM32F4xx_StdPeriph_Driver/src/stm32f4xx_exti.c ****   }
 230:libs/STM32F4xx_StdPeriph_Driver/src/stm32f4xx_exti.c ****   else
 231:libs/STM32F4xx_StdPeriph_Driver/src/stm32f4xx_exti.c ****   {
 232:libs/STM32F4xx_StdPeriph_Driver/src/stm32f4xx_exti.c ****     bitstatus = RESET;
 233:libs/STM32F4xx_StdPeriph_Driver/src/stm32f4xx_exti.c ****   }
 234:libs/STM32F4xx_StdPeriph_Driver/src/stm32f4xx_exti.c ****   return bitstatus;
 235:libs/STM32F4xx_StdPeriph_Driver/src/stm32f4xx_exti.c **** }
 230              		.loc 1 235 0
 231 000c 0030     		adds	r0, r0, #0
 232 000e 18BF     		it	ne
 233 0010 0120     		movne	r0, #1
 234              	.LVL14:
 235 0012 7047     		bx	lr
 236              		.cfi_endproc
 237              	.LFE114:
 239              		.section	.text.EXTI_ClearFlag,"ax",%progbits
 240              		.align	2
 241              		.global	EXTI_ClearFlag
 242              		.thumb
 243              		.thumb_func
 245              	EXTI_ClearFlag:
 246              	.LFB115:
 236:libs/STM32F4xx_StdPeriph_Driver/src/stm32f4xx_exti.c **** 
 237:libs/STM32F4xx_StdPeriph_Driver/src/stm32f4xx_exti.c **** /**
 238:libs/STM32F4xx_StdPeriph_Driver/src/stm32f4xx_exti.c ****   * @brief  Clears the EXTI's line pending flags.
 239:libs/STM32F4xx_StdPeriph_Driver/src/stm32f4xx_exti.c ****   * @param  EXTI_Line: specifies the EXTI lines flags to clear.
 240:libs/STM32F4xx_StdPeriph_Driver/src/stm32f4xx_exti.c ****   *          This parameter can be any combination of EXTI_Linex where x can be (0..22)
 241:libs/STM32F4xx_StdPeriph_Driver/src/stm32f4xx_exti.c ****   * @retval None
 242:libs/STM32F4xx_StdPeriph_Driver/src/stm32f4xx_exti.c ****   */
 243:libs/STM32F4xx_StdPeriph_Driver/src/stm32f4xx_exti.c **** void EXTI_ClearFlag(uint32_t EXTI_Line)
 244:libs/STM32F4xx_StdPeriph_Driver/src/stm32f4xx_exti.c **** {
 247              		.loc 1 244 0
 248              		.cfi_startproc
 249              		@ args = 0, pretend = 0, frame = 0
 250              		@ frame_needed = 0, uses_anonymous_args = 0
 251              		@ link register save eliminated.
 252              	.LVL15:
 245:libs/STM32F4xx_StdPeriph_Driver/src/stm32f4xx_exti.c ****   /* Check the parameters */
 246:libs/STM32F4xx_StdPeriph_Driver/src/stm32f4xx_exti.c ****   assert_param(IS_EXTI_LINE(EXTI_Line));
 247:libs/STM32F4xx_StdPeriph_Driver/src/stm32f4xx_exti.c ****   
 248:libs/STM32F4xx_StdPeriph_Driver/src/stm32f4xx_exti.c ****   EXTI->PR = EXTI_Line;
 253              		.loc 1 248 0
 254 0000 4FF47053 		mov	r3, #15360
 255 0004 C4F20103 		movt	r3, 16385
 256 0008 5861     		str	r0, [r3, #20]
 257 000a 7047     		bx	lr
 258              		.cfi_endproc
 259              	.LFE115:
 261              		.section	.text.EXTI_GetITStatus,"ax",%progbits
 262              		.align	2
 263              		.global	EXTI_GetITStatus
 264              		.thumb
 265              		.thumb_func
 267              	EXTI_GetITStatus:
 268              	.LFB116:
 249:libs/STM32F4xx_StdPeriph_Driver/src/stm32f4xx_exti.c **** }
 250:libs/STM32F4xx_StdPeriph_Driver/src/stm32f4xx_exti.c **** 
 251:libs/STM32F4xx_StdPeriph_Driver/src/stm32f4xx_exti.c **** /**
 252:libs/STM32F4xx_StdPeriph_Driver/src/stm32f4xx_exti.c ****   * @brief  Checks whether the specified EXTI line is asserted or not.
 253:libs/STM32F4xx_StdPeriph_Driver/src/stm32f4xx_exti.c ****   * @param  EXTI_Line: specifies the EXTI line to check.
 254:libs/STM32F4xx_StdPeriph_Driver/src/stm32f4xx_exti.c ****   *          This parameter can be EXTI_Linex where x can be(0..22)
 255:libs/STM32F4xx_StdPeriph_Driver/src/stm32f4xx_exti.c ****   * @retval The new state of EXTI_Line (SET or RESET).
 256:libs/STM32F4xx_StdPeriph_Driver/src/stm32f4xx_exti.c ****   */
 257:libs/STM32F4xx_StdPeriph_Driver/src/stm32f4xx_exti.c **** ITStatus EXTI_GetITStatus(uint32_t EXTI_Line)
 258:libs/STM32F4xx_StdPeriph_Driver/src/stm32f4xx_exti.c **** {
 269              		.loc 1 258 0
 270              		.cfi_startproc
 271              		@ args = 0, pretend = 0, frame = 0
 272              		@ frame_needed = 0, uses_anonymous_args = 0
 273              		@ link register save eliminated.
 274              	.LVL16:
 259:libs/STM32F4xx_StdPeriph_Driver/src/stm32f4xx_exti.c ****   ITStatus bitstatus = RESET;
 260:libs/STM32F4xx_StdPeriph_Driver/src/stm32f4xx_exti.c ****   uint32_t enablestatus = 0;
 261:libs/STM32F4xx_StdPeriph_Driver/src/stm32f4xx_exti.c ****   /* Check the parameters */
 262:libs/STM32F4xx_StdPeriph_Driver/src/stm32f4xx_exti.c ****   assert_param(IS_GET_EXTI_LINE(EXTI_Line));
 263:libs/STM32F4xx_StdPeriph_Driver/src/stm32f4xx_exti.c ****   
 264:libs/STM32F4xx_StdPeriph_Driver/src/stm32f4xx_exti.c ****   enablestatus =  EXTI->IMR & EXTI_Line;
 275              		.loc 1 264 0
 276 0000 4FF47053 		mov	r3, #15360
 277 0004 C4F20103 		movt	r3, 16385
 278 0008 1A68     		ldr	r2, [r3]
 279 000a 0240     		ands	r2, r2, r0
 280              	.LVL17:
 265:libs/STM32F4xx_StdPeriph_Driver/src/stm32f4xx_exti.c ****   if (((EXTI->PR & EXTI_Line) != (uint32_t)RESET) && (enablestatus != (uint32_t)RESET))
 281              		.loc 1 265 0
 282 000c 5B69     		ldr	r3, [r3, #20]
 283 000e 0342     		tst	r3, r0
 284 0010 03D0     		beq	.L14
 266:libs/STM32F4xx_StdPeriph_Driver/src/stm32f4xx_exti.c ****   {
 267:libs/STM32F4xx_StdPeriph_Driver/src/stm32f4xx_exti.c ****     bitstatus = SET;
 268:libs/STM32F4xx_StdPeriph_Driver/src/stm32f4xx_exti.c ****   }
 269:libs/STM32F4xx_StdPeriph_Driver/src/stm32f4xx_exti.c ****   else
 270:libs/STM32F4xx_StdPeriph_Driver/src/stm32f4xx_exti.c ****   {
 271:libs/STM32F4xx_StdPeriph_Driver/src/stm32f4xx_exti.c ****     bitstatus = RESET;
 285              		.loc 1 271 0 discriminator 1
 286 0012 101C     		adds	r0, r2, #0
 287              	.LVL18:
 288 0014 18BF     		it	ne
 289 0016 0120     		movne	r0, #1
 290 0018 7047     		bx	lr
 291              	.LVL19:
 292              	.L14:
 293              		.loc 1 271 0 is_stmt 0
 294 001a 0020     		movs	r0, #0
 295              	.LVL20:
 272:libs/STM32F4xx_StdPeriph_Driver/src/stm32f4xx_exti.c ****   }
 273:libs/STM32F4xx_StdPeriph_Driver/src/stm32f4xx_exti.c ****   return bitstatus;
 274:libs/STM32F4xx_StdPeriph_Driver/src/stm32f4xx_exti.c **** }
 296              		.loc 1 274 0 is_stmt 1
 297 001c 7047     		bx	lr
 298              		.cfi_endproc
 299              	.LFE116:
 301 001e 00BF     		.section	.text.EXTI_ClearITPendingBit,"ax",%progbits
 302              		.align	2
 303              		.global	EXTI_ClearITPendingBit
 304              		.thumb
 305              		.thumb_func
 307              	EXTI_ClearITPendingBit:
 308              	.LFB117:
 275:libs/STM32F4xx_StdPeriph_Driver/src/stm32f4xx_exti.c **** 
 276:libs/STM32F4xx_StdPeriph_Driver/src/stm32f4xx_exti.c **** /**
 277:libs/STM32F4xx_StdPeriph_Driver/src/stm32f4xx_exti.c ****   * @brief  Clears the EXTI's line pending bits.
 278:libs/STM32F4xx_StdPeriph_Driver/src/stm32f4xx_exti.c ****   * @param  EXTI_Line: specifies the EXTI lines to clear.
 279:libs/STM32F4xx_StdPeriph_Driver/src/stm32f4xx_exti.c ****   *          This parameter can be any combination of EXTI_Linex where x can be (0..22)
 280:libs/STM32F4xx_StdPeriph_Driver/src/stm32f4xx_exti.c ****   * @retval None
 281:libs/STM32F4xx_StdPeriph_Driver/src/stm32f4xx_exti.c ****   */
 282:libs/STM32F4xx_StdPeriph_Driver/src/stm32f4xx_exti.c **** void EXTI_ClearITPendingBit(uint32_t EXTI_Line)
 283:libs/STM32F4xx_StdPeriph_Driver/src/stm32f4xx_exti.c **** {
 309              		.loc 1 283 0
 310              		.cfi_startproc
 311              		@ args = 0, pretend = 0, frame = 0
 312              		@ frame_needed = 0, uses_anonymous_args = 0
 313              		@ link register save eliminated.
 314              	.LVL21:
 284:libs/STM32F4xx_StdPeriph_Driver/src/stm32f4xx_exti.c ****   /* Check the parameters */
 285:libs/STM32F4xx_StdPeriph_Driver/src/stm32f4xx_exti.c ****   assert_param(IS_EXTI_LINE(EXTI_Line));
 286:libs/STM32F4xx_StdPeriph_Driver/src/stm32f4xx_exti.c ****   
 287:libs/STM32F4xx_StdPeriph_Driver/src/stm32f4xx_exti.c ****   EXTI->PR = EXTI_Line;
 315              		.loc 1 287 0
 316 0000 4FF47053 		mov	r3, #15360
 317 0004 C4F20103 		movt	r3, 16385
 318 0008 5861     		str	r0, [r3, #20]
 319 000a 7047     		bx	lr
 320              		.cfi_endproc
 321              	.LFE117:
 323              		.text
 324              	.Letext0:
 325              		.file 2 "/usr/include/newlib/machine/_default_types.h"
 326              		.file 3 "/usr/include/newlib/stdint.h"
 327              		.file 4 "libs/Device/STM32F4xx/Include/stm32f4xx.h"
 328              		.file 5 "libs/STM32F4xx_StdPeriph_Driver/inc/stm32f4xx_exti.h"
 329              		.file 6 "libs/CMSIS/Include/core_cm4.h"