   1              		.syntax unified
   2              		.cpu cortex-m4
   3              		.eabi_attribute 27, 3
   4              		.fpu fpv4-sp-d16
   5              		.eabi_attribute 20, 1
   6              		.eabi_attribute 21, 1
   7              		.eabi_attribute 23, 3
   8              		.eabi_attribute 24, 1
   9              		.eabi_attribute 25, 1
  10              		.eabi_attribute 26, 1
  11              		.eabi_attribute 30, 1
  12              		.eabi_attribute 34, 1
  13              		.eabi_attribute 18, 4
  14              		.thumb
  15              		.file	"stm32f4xx_flash.c"
  16              		.text
  17              	.Ltext0:
  18              		.cfi_sections	.debug_frame
  19              		.section	.text.FLASH_SetLatency,"ax",%progbits
  20              		.align	2
  21              		.global	FLASH_SetLatency
  22              		.thumb
  23              		.thumb_func
  25              	FLASH_SetLatency:
  26              	.LFB110:
  27              		.file 1 "libs/STM32F4xx_StdPeriph_Driver/src/stm32f4xx_flash.c"
   1:libs/STM32F4xx_StdPeriph_Driver/src/stm32f4xx_flash.c **** /**
   2:libs/STM32F4xx_StdPeriph_Driver/src/stm32f4xx_flash.c ****   ******************************************************************************
   3:libs/STM32F4xx_StdPeriph_Driver/src/stm32f4xx_flash.c ****   * @file    stm32f4xx_flash.c
   4:libs/STM32F4xx_StdPeriph_Driver/src/stm32f4xx_flash.c ****   * @author  MCD Application Team
   5:libs/STM32F4xx_StdPeriph_Driver/src/stm32f4xx_flash.c ****   * @version V1.0.0RC1
   6:libs/STM32F4xx_StdPeriph_Driver/src/stm32f4xx_flash.c ****   * @date    25-August-2011
   7:libs/STM32F4xx_StdPeriph_Driver/src/stm32f4xx_flash.c ****   * @brief   This file provides firmware functions to manage the following 
   8:libs/STM32F4xx_StdPeriph_Driver/src/stm32f4xx_flash.c ****   *          functionalities of the FLASH peripheral:
   9:libs/STM32F4xx_StdPeriph_Driver/src/stm32f4xx_flash.c ****   *            - FLASH Interface configuration
  10:libs/STM32F4xx_StdPeriph_Driver/src/stm32f4xx_flash.c ****   *            - FLASH Memory Programming
  11:libs/STM32F4xx_StdPeriph_Driver/src/stm32f4xx_flash.c ****   *            - Option Bytes Programming
  12:libs/STM32F4xx_StdPeriph_Driver/src/stm32f4xx_flash.c ****   *            - Interrupts and flags management
  13:libs/STM32F4xx_StdPeriph_Driver/src/stm32f4xx_flash.c ****   *  
  14:libs/STM32F4xx_StdPeriph_Driver/src/stm32f4xx_flash.c ****   *  @verbatim
  15:libs/STM32F4xx_StdPeriph_Driver/src/stm32f4xx_flash.c ****   *  
  16:libs/STM32F4xx_StdPeriph_Driver/src/stm32f4xx_flash.c ****   *          ===================================================================
  17:libs/STM32F4xx_StdPeriph_Driver/src/stm32f4xx_flash.c ****   *                                 How to use this driver
  18:libs/STM32F4xx_StdPeriph_Driver/src/stm32f4xx_flash.c ****   *          ===================================================================
  19:libs/STM32F4xx_StdPeriph_Driver/src/stm32f4xx_flash.c ****   *                           
  20:libs/STM32F4xx_StdPeriph_Driver/src/stm32f4xx_flash.c ****   *          This driver provides functions to configure and program the FLASH 
  21:libs/STM32F4xx_StdPeriph_Driver/src/stm32f4xx_flash.c ****   *          memory of all STM32F4xx devices.
  22:libs/STM32F4xx_StdPeriph_Driver/src/stm32f4xx_flash.c ****   *          These functions are split in 4 groups:
  23:libs/STM32F4xx_StdPeriph_Driver/src/stm32f4xx_flash.c ****   * 
  24:libs/STM32F4xx_StdPeriph_Driver/src/stm32f4xx_flash.c ****   *           1. FLASH Interface configuration functions: this group includes the
  25:libs/STM32F4xx_StdPeriph_Driver/src/stm32f4xx_flash.c ****   *              management of the following features:
  26:libs/STM32F4xx_StdPeriph_Driver/src/stm32f4xx_flash.c ****   *                    - Set the latency
  27:libs/STM32F4xx_StdPeriph_Driver/src/stm32f4xx_flash.c ****   *                    - Enable/Disable the prefetch buffer
  28:libs/STM32F4xx_StdPeriph_Driver/src/stm32f4xx_flash.c ****   *                    - Enable/Disable the Instruction cache and the Data cache
  29:libs/STM32F4xx_StdPeriph_Driver/src/stm32f4xx_flash.c ****   *                    - Reset the Instruction cache and the Data cache
  30:libs/STM32F4xx_StdPeriph_Driver/src/stm32f4xx_flash.c ****   *  
  31:libs/STM32F4xx_StdPeriph_Driver/src/stm32f4xx_flash.c ****   *           2. FLASH Memory Programming functions: this group includes all needed
  32:libs/STM32F4xx_StdPeriph_Driver/src/stm32f4xx_flash.c ****   *              functions to erase and program the main memory:
  33:libs/STM32F4xx_StdPeriph_Driver/src/stm32f4xx_flash.c ****   *                    - Lock and Unlock the FLASH interface
  34:libs/STM32F4xx_StdPeriph_Driver/src/stm32f4xx_flash.c ****   *                    - Erase function: Erase sector, erase all sectors
  35:libs/STM32F4xx_StdPeriph_Driver/src/stm32f4xx_flash.c ****   *                    - Program functions: byte, half word, word and double word
  36:libs/STM32F4xx_StdPeriph_Driver/src/stm32f4xx_flash.c ****   *  
  37:libs/STM32F4xx_StdPeriph_Driver/src/stm32f4xx_flash.c ****   *           3. Option Bytes Programming functions: this group includes all needed
  38:libs/STM32F4xx_StdPeriph_Driver/src/stm32f4xx_flash.c ****   *              functions to manage the Option Bytes:
  39:libs/STM32F4xx_StdPeriph_Driver/src/stm32f4xx_flash.c ****   *                    - Set/Reset the write protection
  40:libs/STM32F4xx_StdPeriph_Driver/src/stm32f4xx_flash.c ****   *                    - Set the Read protection Level
  41:libs/STM32F4xx_StdPeriph_Driver/src/stm32f4xx_flash.c ****   *                    - Set the BOR level
  42:libs/STM32F4xx_StdPeriph_Driver/src/stm32f4xx_flash.c ****   *                    - Program the user Option Bytes
  43:libs/STM32F4xx_StdPeriph_Driver/src/stm32f4xx_flash.c ****   *                    - Launch the Option Bytes loader
  44:libs/STM32F4xx_StdPeriph_Driver/src/stm32f4xx_flash.c ****   *  
  45:libs/STM32F4xx_StdPeriph_Driver/src/stm32f4xx_flash.c ****   *           4. Interrupts and flags management functions: this group 
  46:libs/STM32F4xx_StdPeriph_Driver/src/stm32f4xx_flash.c ****   *              includes all needed functions to:
  47:libs/STM32F4xx_StdPeriph_Driver/src/stm32f4xx_flash.c ****   *                    - Enable/Disable the FLASH interrupt sources
  48:libs/STM32F4xx_StdPeriph_Driver/src/stm32f4xx_flash.c ****   *                    - Get flags status
  49:libs/STM32F4xx_StdPeriph_Driver/src/stm32f4xx_flash.c ****   *                    - Clear flags
  50:libs/STM32F4xx_StdPeriph_Driver/src/stm32f4xx_flash.c ****   *                    - Get FLASH operation status
  51:libs/STM32F4xx_StdPeriph_Driver/src/stm32f4xx_flash.c ****   *                    - Wait for last FLASH operation
  52:libs/STM32F4xx_StdPeriph_Driver/src/stm32f4xx_flash.c ****   * 
  53:libs/STM32F4xx_StdPeriph_Driver/src/stm32f4xx_flash.c ****   *  @endverbatim
  54:libs/STM32F4xx_StdPeriph_Driver/src/stm32f4xx_flash.c ****   *                      
  55:libs/STM32F4xx_StdPeriph_Driver/src/stm32f4xx_flash.c ****   ******************************************************************************
  56:libs/STM32F4xx_StdPeriph_Driver/src/stm32f4xx_flash.c ****   * @attention
  57:libs/STM32F4xx_StdPeriph_Driver/src/stm32f4xx_flash.c ****   *
  58:libs/STM32F4xx_StdPeriph_Driver/src/stm32f4xx_flash.c ****   * THE PRESENT FIRMWARE WHICH IS FOR GUIDANCE ONLY AIMS AT PROVIDING CUSTOMERS
  59:libs/STM32F4xx_StdPeriph_Driver/src/stm32f4xx_flash.c ****   * WITH CODING INFORMATION REGARDING THEIR PRODUCTS IN ORDER FOR THEM TO SAVE
  60:libs/STM32F4xx_StdPeriph_Driver/src/stm32f4xx_flash.c ****   * TIME. AS A RESULT, STMICROELECTRONICS SHALL NOT BE HELD LIABLE FOR ANY
  61:libs/STM32F4xx_StdPeriph_Driver/src/stm32f4xx_flash.c ****   * DIRECT, INDIRECT OR CONSEQUENTIAL DAMAGES WITH RESPECT TO ANY CLAIMS ARISING
  62:libs/STM32F4xx_StdPeriph_Driver/src/stm32f4xx_flash.c ****   * FROM THE CONTENT OF SUCH FIRMWARE AND/OR THE USE MADE BY CUSTOMERS OF THE
  63:libs/STM32F4xx_StdPeriph_Driver/src/stm32f4xx_flash.c ****   * CODING INFORMATION CONTAINED HEREIN IN CONNECTION WITH THEIR PRODUCTS.
  64:libs/STM32F4xx_StdPeriph_Driver/src/stm32f4xx_flash.c ****   *
  65:libs/STM32F4xx_StdPeriph_Driver/src/stm32f4xx_flash.c ****   * <h2><center>&copy; COPYRIGHT 2011 STMicroelectronics</center></h2>
  66:libs/STM32F4xx_StdPeriph_Driver/src/stm32f4xx_flash.c ****   ******************************************************************************
  67:libs/STM32F4xx_StdPeriph_Driver/src/stm32f4xx_flash.c ****   */
  68:libs/STM32F4xx_StdPeriph_Driver/src/stm32f4xx_flash.c **** 
  69:libs/STM32F4xx_StdPeriph_Driver/src/stm32f4xx_flash.c **** /* Includes ------------------------------------------------------------------*/
  70:libs/STM32F4xx_StdPeriph_Driver/src/stm32f4xx_flash.c **** #include "stm32f4xx_flash.h"
  71:libs/STM32F4xx_StdPeriph_Driver/src/stm32f4xx_flash.c **** 
  72:libs/STM32F4xx_StdPeriph_Driver/src/stm32f4xx_flash.c **** /** @addtogroup STM32F4xx_StdPeriph_Driver
  73:libs/STM32F4xx_StdPeriph_Driver/src/stm32f4xx_flash.c ****   * @{
  74:libs/STM32F4xx_StdPeriph_Driver/src/stm32f4xx_flash.c ****   */
  75:libs/STM32F4xx_StdPeriph_Driver/src/stm32f4xx_flash.c **** 
  76:libs/STM32F4xx_StdPeriph_Driver/src/stm32f4xx_flash.c **** /** @defgroup FLASH 
  77:libs/STM32F4xx_StdPeriph_Driver/src/stm32f4xx_flash.c ****   * @brief FLASH driver modules
  78:libs/STM32F4xx_StdPeriph_Driver/src/stm32f4xx_flash.c ****   * @{
  79:libs/STM32F4xx_StdPeriph_Driver/src/stm32f4xx_flash.c ****   */ 
  80:libs/STM32F4xx_StdPeriph_Driver/src/stm32f4xx_flash.c **** 
  81:libs/STM32F4xx_StdPeriph_Driver/src/stm32f4xx_flash.c **** /* Private typedef -----------------------------------------------------------*/
  82:libs/STM32F4xx_StdPeriph_Driver/src/stm32f4xx_flash.c **** /* Private define ------------------------------------------------------------*/ 
  83:libs/STM32F4xx_StdPeriph_Driver/src/stm32f4xx_flash.c **** #define SECTOR_MASK               ((uint32_t)0xFFFFFF07)
  84:libs/STM32F4xx_StdPeriph_Driver/src/stm32f4xx_flash.c **** 
  85:libs/STM32F4xx_StdPeriph_Driver/src/stm32f4xx_flash.c **** /* Private macro -------------------------------------------------------------*/
  86:libs/STM32F4xx_StdPeriph_Driver/src/stm32f4xx_flash.c **** /* Private variables ---------------------------------------------------------*/
  87:libs/STM32F4xx_StdPeriph_Driver/src/stm32f4xx_flash.c **** /* Private function prototypes -----------------------------------------------*/
  88:libs/STM32F4xx_StdPeriph_Driver/src/stm32f4xx_flash.c **** /* Private functions ---------------------------------------------------------*/
  89:libs/STM32F4xx_StdPeriph_Driver/src/stm32f4xx_flash.c **** 
  90:libs/STM32F4xx_StdPeriph_Driver/src/stm32f4xx_flash.c **** /** @defgroup FLASH_Private_Functions
  91:libs/STM32F4xx_StdPeriph_Driver/src/stm32f4xx_flash.c ****   * @{
  92:libs/STM32F4xx_StdPeriph_Driver/src/stm32f4xx_flash.c ****   */ 
  93:libs/STM32F4xx_StdPeriph_Driver/src/stm32f4xx_flash.c **** 
  94:libs/STM32F4xx_StdPeriph_Driver/src/stm32f4xx_flash.c **** /** @defgroup FLASH_Group1 FLASH Interface configuration functions
  95:libs/STM32F4xx_StdPeriph_Driver/src/stm32f4xx_flash.c ****   *  @brief   FLASH Interface configuration functions 
  96:libs/STM32F4xx_StdPeriph_Driver/src/stm32f4xx_flash.c ****  *
  97:libs/STM32F4xx_StdPeriph_Driver/src/stm32f4xx_flash.c **** 
  98:libs/STM32F4xx_StdPeriph_Driver/src/stm32f4xx_flash.c **** @verbatim   
  99:libs/STM32F4xx_StdPeriph_Driver/src/stm32f4xx_flash.c ****  ===============================================================================
 100:libs/STM32F4xx_StdPeriph_Driver/src/stm32f4xx_flash.c ****                        FLASH Interface configuration functions
 101:libs/STM32F4xx_StdPeriph_Driver/src/stm32f4xx_flash.c ****  ===============================================================================
 102:libs/STM32F4xx_StdPeriph_Driver/src/stm32f4xx_flash.c **** 
 103:libs/STM32F4xx_StdPeriph_Driver/src/stm32f4xx_flash.c ****    This group includes the following functions:
 104:libs/STM32F4xx_StdPeriph_Driver/src/stm32f4xx_flash.c ****     - void FLASH_SetLatency(uint32_t FLASH_Latency)
 105:libs/STM32F4xx_StdPeriph_Driver/src/stm32f4xx_flash.c ****        To correctly read data from FLASH memory, the number of wait states (LATENCY) 
 106:libs/STM32F4xx_StdPeriph_Driver/src/stm32f4xx_flash.c ****        must be correctly programmed according to the frequency of the CPU clock 
 107:libs/STM32F4xx_StdPeriph_Driver/src/stm32f4xx_flash.c ****       (HCLK) and the supply voltage of the device.
 108:libs/STM32F4xx_StdPeriph_Driver/src/stm32f4xx_flash.c ****  +-------------------------------------------------------------------------------------+     
 109:libs/STM32F4xx_StdPeriph_Driver/src/stm32f4xx_flash.c ****  | Latency       |                HCLK clock frequency (MHz)                           |
 110:libs/STM32F4xx_StdPeriph_Driver/src/stm32f4xx_flash.c ****  |               |---------------------------------------------------------------------|     
 111:libs/STM32F4xx_StdPeriph_Driver/src/stm32f4xx_flash.c ****  |               | voltage range  | voltage range  | voltage range   | voltage range   |
 112:libs/STM32F4xx_StdPeriph_Driver/src/stm32f4xx_flash.c ****  |               | 2.7 V - 3.6 V  | 2.4 V - 2.7 V  | 2.1 V - 2.4 V   | 1.8 V - 2.1 V   |
 113:libs/STM32F4xx_StdPeriph_Driver/src/stm32f4xx_flash.c ****  |---------------|----------------|----------------|-----------------|-----------------|           
 114:libs/STM32F4xx_StdPeriph_Driver/src/stm32f4xx_flash.c ****  |0WS(1CPU cycle)|0 < HCLK <= 30  |0 < HCLK <= 24  |0 < HCLK <= 18   |0 < HCLK <= 16   |
 115:libs/STM32F4xx_StdPeriph_Driver/src/stm32f4xx_flash.c ****  |---------------|----------------|----------------|-----------------|-----------------|   
 116:libs/STM32F4xx_StdPeriph_Driver/src/stm32f4xx_flash.c ****  |1WS(2CPU cycle)|30 < HCLK <= 60 |24 < HCLK <= 48 |18 < HCLK <= 36  |16 < HCLK <= 32  | 
 117:libs/STM32F4xx_StdPeriph_Driver/src/stm32f4xx_flash.c ****  |---------------|----------------|----------------|-----------------|-----------------|   
 118:libs/STM32F4xx_StdPeriph_Driver/src/stm32f4xx_flash.c ****  |2WS(3CPU cycle)|60 < HCLK <= 90 |48 < HCLK <= 72 |36 < HCLK <= 54  |32 < HCLK <= 48  |
 119:libs/STM32F4xx_StdPeriph_Driver/src/stm32f4xx_flash.c ****  |---------------|----------------|----------------|-----------------|-----------------| 
 120:libs/STM32F4xx_StdPeriph_Driver/src/stm32f4xx_flash.c ****  |3WS(4CPU cycle)|90 < HCLK <= 120|72 < HCLK <= 96 |54 < HCLK <= 72  |48 < HCLK <= 64  |
 121:libs/STM32F4xx_StdPeriph_Driver/src/stm32f4xx_flash.c ****  |---------------|----------------|----------------|-----------------|-----------------| 
 122:libs/STM32F4xx_StdPeriph_Driver/src/stm32f4xx_flash.c ****  |4WS(5CPU cycle)|      NA        |96 < HCLK <= 120|72 < HCLK <= 90  |64 < HCLK <= 80  |
 123:libs/STM32F4xx_StdPeriph_Driver/src/stm32f4xx_flash.c ****  |---------------|----------------|----------------|-----------------|-----------------| 
 124:libs/STM32F4xx_StdPeriph_Driver/src/stm32f4xx_flash.c ****  |5WS(6CPU cycle)|      NA        |      NA        |90 < HCLK <= 108 |80 < HCLK <= 96  | 
 125:libs/STM32F4xx_StdPeriph_Driver/src/stm32f4xx_flash.c ****  |---------------|----------------|----------------|-----------------|-----------------| 
 126:libs/STM32F4xx_StdPeriph_Driver/src/stm32f4xx_flash.c ****  |6WS(7CPU cycle)|      NA        |      NA        |108 < HCLK <= 120|96 < HCLK <= 112 | 
 127:libs/STM32F4xx_StdPeriph_Driver/src/stm32f4xx_flash.c ****  |---------------|----------------|----------------|-----------------|-----------------| 
 128:libs/STM32F4xx_StdPeriph_Driver/src/stm32f4xx_flash.c ****  |7WS(8CPU cycle)|      NA        |      NA        |     NA          |112 < HCLK <= 120| 
 129:libs/STM32F4xx_StdPeriph_Driver/src/stm32f4xx_flash.c ****  |***************|****************|****************|*****************|*****************|***********
 130:libs/STM32F4xx_StdPeriph_Driver/src/stm32f4xx_flash.c ****  |               | voltage range  | voltage range  | voltage range   | voltage range   | voltage ra
 131:libs/STM32F4xx_StdPeriph_Driver/src/stm32f4xx_flash.c ****  |               | 2.7 V - 3.6 V  | 2.4 V - 2.7 V  | 2.1 V - 2.4 V   | 1.8 V - 2.1 V   | with Exter
 132:libs/STM32F4xx_StdPeriph_Driver/src/stm32f4xx_flash.c ****  |---------------|----------------|----------------|-----------------|-----------------|-----------
 133:libs/STM32F4xx_StdPeriph_Driver/src/stm32f4xx_flash.c ****  |Max Parallelism|      x32       |               x16                |       x8        |          x
 134:libs/STM32F4xx_StdPeriph_Driver/src/stm32f4xx_flash.c ****  |---------------|----------------|----------------|-----------------|-----------------|-----------
 135:libs/STM32F4xx_StdPeriph_Driver/src/stm32f4xx_flash.c ****  |PSIZE[1:0]     |      10        |               01                 |       00        |           
 136:libs/STM32F4xx_StdPeriph_Driver/src/stm32f4xx_flash.c ****  +-------------------------------------------------------------------------------------------------
 137:libs/STM32F4xx_StdPeriph_Driver/src/stm32f4xx_flash.c ****     
 138:libs/STM32F4xx_StdPeriph_Driver/src/stm32f4xx_flash.c ****     - void FLASH_PrefetchBufferCmd(FunctionalState NewState)
 139:libs/STM32F4xx_StdPeriph_Driver/src/stm32f4xx_flash.c ****     - void FLASH_InstructionCacheCmd(FunctionalState NewState)
 140:libs/STM32F4xx_StdPeriph_Driver/src/stm32f4xx_flash.c ****     - void FLASH_DataCacheCmd(FunctionalState NewState)
 141:libs/STM32F4xx_StdPeriph_Driver/src/stm32f4xx_flash.c ****     - void FLASH_InstructionCacheReset(void)
 142:libs/STM32F4xx_StdPeriph_Driver/src/stm32f4xx_flash.c ****     - void FLASH_DataCacheReset(void)
 143:libs/STM32F4xx_StdPeriph_Driver/src/stm32f4xx_flash.c ****    
 144:libs/STM32F4xx_StdPeriph_Driver/src/stm32f4xx_flash.c ****    The unlock sequence is not needed for these functions.
 145:libs/STM32F4xx_StdPeriph_Driver/src/stm32f4xx_flash.c ****  
 146:libs/STM32F4xx_StdPeriph_Driver/src/stm32f4xx_flash.c **** @endverbatim
 147:libs/STM32F4xx_StdPeriph_Driver/src/stm32f4xx_flash.c ****   * @{
 148:libs/STM32F4xx_StdPeriph_Driver/src/stm32f4xx_flash.c ****   */
 149:libs/STM32F4xx_StdPeriph_Driver/src/stm32f4xx_flash.c ****  
 150:libs/STM32F4xx_StdPeriph_Driver/src/stm32f4xx_flash.c **** /**
 151:libs/STM32F4xx_StdPeriph_Driver/src/stm32f4xx_flash.c ****   * @brief  Sets the code latency value.
 152:libs/STM32F4xx_StdPeriph_Driver/src/stm32f4xx_flash.c ****   * @param  FLASH_Latency: specifies the FLASH Latency value.
 153:libs/STM32F4xx_StdPeriph_Driver/src/stm32f4xx_flash.c ****   *          This parameter can be one of the following values:
 154:libs/STM32F4xx_StdPeriph_Driver/src/stm32f4xx_flash.c ****   *            @arg FLASH_Latency_0: FLASH Zero Latency cycle
 155:libs/STM32F4xx_StdPeriph_Driver/src/stm32f4xx_flash.c ****   *            @arg FLASH_Latency_1: FLASH One Latency cycle
 156:libs/STM32F4xx_StdPeriph_Driver/src/stm32f4xx_flash.c ****   *            @arg FLASH_Latency_2: FLASH Two Latency cycles
 157:libs/STM32F4xx_StdPeriph_Driver/src/stm32f4xx_flash.c ****   *            @arg FLASH_Latency_3: FLASH Three Latency cycles
 158:libs/STM32F4xx_StdPeriph_Driver/src/stm32f4xx_flash.c ****   *            @arg FLASH_Latency_4: FLASH Four Latency cycles 
 159:libs/STM32F4xx_StdPeriph_Driver/src/stm32f4xx_flash.c ****   *            @arg FLASH_Latency_5: FLASH Five Latency cycles 
 160:libs/STM32F4xx_StdPeriph_Driver/src/stm32f4xx_flash.c ****   *            @arg FLASH_Latency_6: FLASH Six Latency cycles
 161:libs/STM32F4xx_StdPeriph_Driver/src/stm32f4xx_flash.c ****   *            @arg FLASH_Latency_7: FLASH Seven Latency cycles      
 162:libs/STM32F4xx_StdPeriph_Driver/src/stm32f4xx_flash.c ****   * @retval None
 163:libs/STM32F4xx_StdPeriph_Driver/src/stm32f4xx_flash.c ****   */
 164:libs/STM32F4xx_StdPeriph_Driver/src/stm32f4xx_flash.c **** void FLASH_SetLatency(uint32_t FLASH_Latency)
 165:libs/STM32F4xx_StdPeriph_Driver/src/stm32f4xx_flash.c **** {
  28              		.loc 1 165 0
  29              		.cfi_startproc
  30              		@ args = 0, pretend = 0, frame = 0
  31              		@ frame_needed = 0, uses_anonymous_args = 0
  32              		@ link register save eliminated.
  33              	.LVL0:
 166:libs/STM32F4xx_StdPeriph_Driver/src/stm32f4xx_flash.c ****   /* Check the parameters */
 167:libs/STM32F4xx_StdPeriph_Driver/src/stm32f4xx_flash.c ****   assert_param(IS_FLASH_LATENCY(FLASH_Latency));
 168:libs/STM32F4xx_StdPeriph_Driver/src/stm32f4xx_flash.c ****   
 169:libs/STM32F4xx_StdPeriph_Driver/src/stm32f4xx_flash.c ****   /* Perform Byte access to FLASH_ACR[8:0] to set the Latency value */
 170:libs/STM32F4xx_StdPeriph_Driver/src/stm32f4xx_flash.c ****   *(__IO uint8_t *)ACR_BYTE0_ADDRESS = (uint8_t)FLASH_Latency;
  34              		.loc 1 170 0
  35 0000 C0B2     		uxtb	r0, r0
  36              	.LVL1:
  37 0002 4FF47053 		mov	r3, #15360
  38 0006 C4F20203 		movt	r3, 16386
  39 000a 1870     		strb	r0, [r3]
  40 000c 7047     		bx	lr
  41              		.cfi_endproc
  42              	.LFE110:
  44 000e 00BF     		.section	.text.FLASH_PrefetchBufferCmd,"ax",%progbits
  45              		.align	2
  46              		.global	FLASH_PrefetchBufferCmd
  47              		.thumb
  48              		.thumb_func
  50              	FLASH_PrefetchBufferCmd:
  51              	.LFB111:
 171:libs/STM32F4xx_StdPeriph_Driver/src/stm32f4xx_flash.c **** }
 172:libs/STM32F4xx_StdPeriph_Driver/src/stm32f4xx_flash.c **** 
 173:libs/STM32F4xx_StdPeriph_Driver/src/stm32f4xx_flash.c **** /**
 174:libs/STM32F4xx_StdPeriph_Driver/src/stm32f4xx_flash.c ****   * @brief  Enables or disables the Prefetch Buffer.
 175:libs/STM32F4xx_StdPeriph_Driver/src/stm32f4xx_flash.c ****   * @param  NewState: new state of the Prefetch Buffer.
 176:libs/STM32F4xx_StdPeriph_Driver/src/stm32f4xx_flash.c ****   *          This parameter  can be: ENABLE or DISABLE.
 177:libs/STM32F4xx_StdPeriph_Driver/src/stm32f4xx_flash.c ****   * @retval None
 178:libs/STM32F4xx_StdPeriph_Driver/src/stm32f4xx_flash.c ****   */
 179:libs/STM32F4xx_StdPeriph_Driver/src/stm32f4xx_flash.c **** void FLASH_PrefetchBufferCmd(FunctionalState NewState)
 180:libs/STM32F4xx_StdPeriph_Driver/src/stm32f4xx_flash.c **** {
  52              		.loc 1 180 0
  53              		.cfi_startproc
  54              		@ args = 0, pretend = 0, frame = 0
  55              		@ frame_needed = 0, uses_anonymous_args = 0
  56              		@ link register save eliminated.
  57              	.LVL2:
 181:libs/STM32F4xx_StdPeriph_Driver/src/stm32f4xx_flash.c ****   /* Check the parameters */
 182:libs/STM32F4xx_StdPeriph_Driver/src/stm32f4xx_flash.c ****   assert_param(IS_FUNCTIONAL_STATE(NewState));
 183:libs/STM32F4xx_StdPeriph_Driver/src/stm32f4xx_flash.c ****   
 184:libs/STM32F4xx_StdPeriph_Driver/src/stm32f4xx_flash.c ****   /* Enable or disable the Prefetch Buffer */
 185:libs/STM32F4xx_StdPeriph_Driver/src/stm32f4xx_flash.c ****   if(NewState != DISABLE)
  58              		.loc 1 185 0
  59 0000 40B1     		cbz	r0, .L3
 186:libs/STM32F4xx_StdPeriph_Driver/src/stm32f4xx_flash.c ****   {
 187:libs/STM32F4xx_StdPeriph_Driver/src/stm32f4xx_flash.c ****     FLASH->ACR |= FLASH_ACR_PRFTEN;
  60              		.loc 1 187 0
  61 0002 4FF47053 		mov	r3, #15360
  62 0006 C4F20203 		movt	r3, 16386
  63 000a 1A68     		ldr	r2, [r3]
  64 000c 42F48072 		orr	r2, r2, #256
  65 0010 1A60     		str	r2, [r3]
  66 0012 7047     		bx	lr
  67              	.L3:
 188:libs/STM32F4xx_StdPeriph_Driver/src/stm32f4xx_flash.c ****   }
 189:libs/STM32F4xx_StdPeriph_Driver/src/stm32f4xx_flash.c ****   else
 190:libs/STM32F4xx_StdPeriph_Driver/src/stm32f4xx_flash.c ****   {
 191:libs/STM32F4xx_StdPeriph_Driver/src/stm32f4xx_flash.c ****     FLASH->ACR &= (~FLASH_ACR_PRFTEN);
  68              		.loc 1 191 0
  69 0014 4FF47053 		mov	r3, #15360
  70 0018 C4F20203 		movt	r3, 16386
  71 001c 1A68     		ldr	r2, [r3]
  72 001e 22F48072 		bic	r2, r2, #256
  73 0022 1A60     		str	r2, [r3]
  74 0024 7047     		bx	lr
  75              		.cfi_endproc
  76              	.LFE111:
  78 0026 00BF     		.section	.text.FLASH_InstructionCacheCmd,"ax",%progbits
  79              		.align	2
  80              		.global	FLASH_InstructionCacheCmd
  81              		.thumb
  82              		.thumb_func
  84              	FLASH_InstructionCacheCmd:
  85              	.LFB112:
 192:libs/STM32F4xx_StdPeriph_Driver/src/stm32f4xx_flash.c ****   }
 193:libs/STM32F4xx_StdPeriph_Driver/src/stm32f4xx_flash.c **** }
 194:libs/STM32F4xx_StdPeriph_Driver/src/stm32f4xx_flash.c **** 
 195:libs/STM32F4xx_StdPeriph_Driver/src/stm32f4xx_flash.c **** /**
 196:libs/STM32F4xx_StdPeriph_Driver/src/stm32f4xx_flash.c ****   * @brief  Enables or disables the Instruction Cache feature.
 197:libs/STM32F4xx_StdPeriph_Driver/src/stm32f4xx_flash.c ****   * @param  NewState: new state of the Instruction Cache.
 198:libs/STM32F4xx_StdPeriph_Driver/src/stm32f4xx_flash.c ****   *          This parameter  can be: ENABLE or DISABLE.
 199:libs/STM32F4xx_StdPeriph_Driver/src/stm32f4xx_flash.c ****   * @retval None
 200:libs/STM32F4xx_StdPeriph_Driver/src/stm32f4xx_flash.c ****   */
 201:libs/STM32F4xx_StdPeriph_Driver/src/stm32f4xx_flash.c **** void FLASH_InstructionCacheCmd(FunctionalState NewState)
 202:libs/STM32F4xx_StdPeriph_Driver/src/stm32f4xx_flash.c **** {
  86              		.loc 1 202 0
  87              		.cfi_startproc
  88              		@ args = 0, pretend = 0, frame = 0
  89              		@ frame_needed = 0, uses_anonymous_args = 0
  90              		@ link register save eliminated.
  91              	.LVL3:
 203:libs/STM32F4xx_StdPeriph_Driver/src/stm32f4xx_flash.c ****   /* Check the parameters */
 204:libs/STM32F4xx_StdPeriph_Driver/src/stm32f4xx_flash.c ****   assert_param(IS_FUNCTIONAL_STATE(NewState));
 205:libs/STM32F4xx_StdPeriph_Driver/src/stm32f4xx_flash.c ****   
 206:libs/STM32F4xx_StdPeriph_Driver/src/stm32f4xx_flash.c ****   if(NewState != DISABLE)
  92              		.loc 1 206 0
  93 0000 40B1     		cbz	r0, .L6
 207:libs/STM32F4xx_StdPeriph_Driver/src/stm32f4xx_flash.c ****   {
 208:libs/STM32F4xx_StdPeriph_Driver/src/stm32f4xx_flash.c ****     FLASH->ACR |= FLASH_ACR_ICEN;
  94              		.loc 1 208 0
  95 0002 4FF47053 		mov	r3, #15360
  96 0006 C4F20203 		movt	r3, 16386
  97 000a 1A68     		ldr	r2, [r3]
  98 000c 42F40072 		orr	r2, r2, #512
  99 0010 1A60     		str	r2, [r3]
 100 0012 7047     		bx	lr
 101              	.L6:
 209:libs/STM32F4xx_StdPeriph_Driver/src/stm32f4xx_flash.c ****   }
 210:libs/STM32F4xx_StdPeriph_Driver/src/stm32f4xx_flash.c ****   else
 211:libs/STM32F4xx_StdPeriph_Driver/src/stm32f4xx_flash.c ****   {
 212:libs/STM32F4xx_StdPeriph_Driver/src/stm32f4xx_flash.c ****     FLASH->ACR &= (~FLASH_ACR_ICEN);
 102              		.loc 1 212 0
 103 0014 4FF47053 		mov	r3, #15360
 104 0018 C4F20203 		movt	r3, 16386
 105 001c 1A68     		ldr	r2, [r3]
 106 001e 22F40072 		bic	r2, r2, #512
 107 0022 1A60     		str	r2, [r3]
 108 0024 7047     		bx	lr
 109              		.cfi_endproc
 110              	.LFE112:
 112 0026 00BF     		.section	.text.FLASH_DataCacheCmd,"ax",%progbits
 113              		.align	2
 114              		.global	FLASH_DataCacheCmd
 115              		.thumb
 116              		.thumb_func
 118              	FLASH_DataCacheCmd:
 119              	.LFB113:
 213:libs/STM32F4xx_StdPeriph_Driver/src/stm32f4xx_flash.c ****   }
 214:libs/STM32F4xx_StdPeriph_Driver/src/stm32f4xx_flash.c **** }
 215:libs/STM32F4xx_StdPeriph_Driver/src/stm32f4xx_flash.c **** 
 216:libs/STM32F4xx_StdPeriph_Driver/src/stm32f4xx_flash.c **** /**
 217:libs/STM32F4xx_StdPeriph_Driver/src/stm32f4xx_flash.c ****   * @brief  Enables or disables the Data Cache feature.
 218:libs/STM32F4xx_StdPeriph_Driver/src/stm32f4xx_flash.c ****   * @param  NewState: new state of the Data Cache.
 219:libs/STM32F4xx_StdPeriph_Driver/src/stm32f4xx_flash.c ****   *          This parameter  can be: ENABLE or DISABLE.
 220:libs/STM32F4xx_StdPeriph_Driver/src/stm32f4xx_flash.c ****   * @retval None
 221:libs/STM32F4xx_StdPeriph_Driver/src/stm32f4xx_flash.c ****   */
 222:libs/STM32F4xx_StdPeriph_Driver/src/stm32f4xx_flash.c **** void FLASH_DataCacheCmd(FunctionalState NewState)
 223:libs/STM32F4xx_StdPeriph_Driver/src/stm32f4xx_flash.c **** {
 120              		.loc 1 223 0
 121              		.cfi_startproc
 122              		@ args = 0, pretend = 0, frame = 0
 123              		@ frame_needed = 0, uses_anonymous_args = 0
 124              		@ link register save eliminated.
 125              	.LVL4:
 224:libs/STM32F4xx_StdPeriph_Driver/src/stm32f4xx_flash.c ****   /* Check the parameters */
 225:libs/STM32F4xx_StdPeriph_Driver/src/stm32f4xx_flash.c ****   assert_param(IS_FUNCTIONAL_STATE(NewState));
 226:libs/STM32F4xx_StdPeriph_Driver/src/stm32f4xx_flash.c ****   
 227:libs/STM32F4xx_StdPeriph_Driver/src/stm32f4xx_flash.c ****   if(NewState != DISABLE)
 126              		.loc 1 227 0
 127 0000 40B1     		cbz	r0, .L9
 228:libs/STM32F4xx_StdPeriph_Driver/src/stm32f4xx_flash.c ****   {
 229:libs/STM32F4xx_StdPeriph_Driver/src/stm32f4xx_flash.c ****     FLASH->ACR |= FLASH_ACR_DCEN;
 128              		.loc 1 229 0
 129 0002 4FF47053 		mov	r3, #15360
 130 0006 C4F20203 		movt	r3, 16386
 131 000a 1A68     		ldr	r2, [r3]
 132 000c 42F48062 		orr	r2, r2, #1024
 133 0010 1A60     		str	r2, [r3]
 134 0012 7047     		bx	lr
 135              	.L9:
 230:libs/STM32F4xx_StdPeriph_Driver/src/stm32f4xx_flash.c ****   }
 231:libs/STM32F4xx_StdPeriph_Driver/src/stm32f4xx_flash.c ****   else
 232:libs/STM32F4xx_StdPeriph_Driver/src/stm32f4xx_flash.c ****   {
 233:libs/STM32F4xx_StdPeriph_Driver/src/stm32f4xx_flash.c ****     FLASH->ACR &= (~FLASH_ACR_DCEN);
 136              		.loc 1 233 0
 137 0014 4FF47053 		mov	r3, #15360
 138 0018 C4F20203 		movt	r3, 16386
 139 001c 1A68     		ldr	r2, [r3]
 140 001e 22F48062 		bic	r2, r2, #1024
 141 0022 1A60     		str	r2, [r3]
 142 0024 7047     		bx	lr
 143              		.cfi_endproc
 144              	.LFE113:
 146 0026 00BF     		.section	.text.FLASH_InstructionCacheReset,"ax",%progbits
 147              		.align	2
 148              		.global	FLASH_InstructionCacheReset
 149              		.thumb
 150              		.thumb_func
 152              	FLASH_InstructionCacheReset:
 153              	.LFB114:
 234:libs/STM32F4xx_StdPeriph_Driver/src/stm32f4xx_flash.c ****   }
 235:libs/STM32F4xx_StdPeriph_Driver/src/stm32f4xx_flash.c **** }
 236:libs/STM32F4xx_StdPeriph_Driver/src/stm32f4xx_flash.c **** 
 237:libs/STM32F4xx_StdPeriph_Driver/src/stm32f4xx_flash.c **** /**
 238:libs/STM32F4xx_StdPeriph_Driver/src/stm32f4xx_flash.c ****   * @brief  Resets the Instruction Cache.
 239:libs/STM32F4xx_StdPeriph_Driver/src/stm32f4xx_flash.c ****   * @note   This function must be used only when the Instruction Cache is disabled.  
 240:libs/STM32F4xx_StdPeriph_Driver/src/stm32f4xx_flash.c ****   * @param  None
 241:libs/STM32F4xx_StdPeriph_Driver/src/stm32f4xx_flash.c ****   * @retval None
 242:libs/STM32F4xx_StdPeriph_Driver/src/stm32f4xx_flash.c ****   */
 243:libs/STM32F4xx_StdPeriph_Driver/src/stm32f4xx_flash.c **** void FLASH_InstructionCacheReset(void)
 244:libs/STM32F4xx_StdPeriph_Driver/src/stm32f4xx_flash.c **** {
 154              		.loc 1 244 0
 155              		.cfi_startproc
 156              		@ args = 0, pretend = 0, frame = 0
 157              		@ frame_needed = 0, uses_anonymous_args = 0
 158              		@ link register save eliminated.
 245:libs/STM32F4xx_StdPeriph_Driver/src/stm32f4xx_flash.c ****   FLASH->ACR |= FLASH_ACR_ICRST;
 159              		.loc 1 245 0
 160 0000 4FF47053 		mov	r3, #15360
 161 0004 C4F20203 		movt	r3, 16386
 162 0008 1A68     		ldr	r2, [r3]
 163 000a 42F40062 		orr	r2, r2, #2048
 164 000e 1A60     		str	r2, [r3]
 165 0010 7047     		bx	lr
 166              		.cfi_endproc
 167              	.LFE114:
 169 0012 00BF     		.section	.text.FLASH_DataCacheReset,"ax",%progbits
 170              		.align	2
 171              		.global	FLASH_DataCacheReset
 172              		.thumb
 173              		.thumb_func
 175              	FLASH_DataCacheReset:
 176              	.LFB115:
 246:libs/STM32F4xx_StdPeriph_Driver/src/stm32f4xx_flash.c **** }
 247:libs/STM32F4xx_StdPeriph_Driver/src/stm32f4xx_flash.c **** 
 248:libs/STM32F4xx_StdPeriph_Driver/src/stm32f4xx_flash.c **** /**
 249:libs/STM32F4xx_StdPeriph_Driver/src/stm32f4xx_flash.c ****   * @brief  Resets the Data Cache.
 250:libs/STM32F4xx_StdPeriph_Driver/src/stm32f4xx_flash.c ****   * @note   This function must be used only when the Data Cache is disabled.  
 251:libs/STM32F4xx_StdPeriph_Driver/src/stm32f4xx_flash.c ****   * @param  None
 252:libs/STM32F4xx_StdPeriph_Driver/src/stm32f4xx_flash.c ****   * @retval None
 253:libs/STM32F4xx_StdPeriph_Driver/src/stm32f4xx_flash.c ****   */
 254:libs/STM32F4xx_StdPeriph_Driver/src/stm32f4xx_flash.c **** void FLASH_DataCacheReset(void)
 255:libs/STM32F4xx_StdPeriph_Driver/src/stm32f4xx_flash.c **** {
 177              		.loc 1 255 0
 178              		.cfi_startproc
 179              		@ args = 0, pretend = 0, frame = 0
 180              		@ frame_needed = 0, uses_anonymous_args = 0
 181              		@ link register save eliminated.
 256:libs/STM32F4xx_StdPeriph_Driver/src/stm32f4xx_flash.c ****   FLASH->ACR |= FLASH_ACR_DCRST;
 182              		.loc 1 256 0
 183 0000 4FF47053 		mov	r3, #15360
 184 0004 C4F20203 		movt	r3, 16386
 185 0008 1A68     		ldr	r2, [r3]
 186 000a 42F48052 		orr	r2, r2, #4096
 187 000e 1A60     		str	r2, [r3]
 188 0010 7047     		bx	lr
 189              		.cfi_endproc
 190              	.LFE115:
 192 0012 00BF     		.section	.text.FLASH_Unlock,"ax",%progbits
 193              		.align	2
 194              		.global	FLASH_Unlock
 195              		.thumb
 196              		.thumb_func
 198              	FLASH_Unlock:
 199              	.LFB116:
 257:libs/STM32F4xx_StdPeriph_Driver/src/stm32f4xx_flash.c **** }
 258:libs/STM32F4xx_StdPeriph_Driver/src/stm32f4xx_flash.c **** 
 259:libs/STM32F4xx_StdPeriph_Driver/src/stm32f4xx_flash.c **** /**
 260:libs/STM32F4xx_StdPeriph_Driver/src/stm32f4xx_flash.c ****   * @}
 261:libs/STM32F4xx_StdPeriph_Driver/src/stm32f4xx_flash.c ****   */
 262:libs/STM32F4xx_StdPeriph_Driver/src/stm32f4xx_flash.c **** 
 263:libs/STM32F4xx_StdPeriph_Driver/src/stm32f4xx_flash.c **** /** @defgroup FLASH_Group2 FLASH Memory Programming functions
 264:libs/STM32F4xx_StdPeriph_Driver/src/stm32f4xx_flash.c ****  *  @brief   FLASH Memory Programming functions
 265:libs/STM32F4xx_StdPeriph_Driver/src/stm32f4xx_flash.c ****  *
 266:libs/STM32F4xx_StdPeriph_Driver/src/stm32f4xx_flash.c **** @verbatim   
 267:libs/STM32F4xx_StdPeriph_Driver/src/stm32f4xx_flash.c ****  ===============================================================================
 268:libs/STM32F4xx_StdPeriph_Driver/src/stm32f4xx_flash.c ****                       FLASH Memory Programming functions
 269:libs/STM32F4xx_StdPeriph_Driver/src/stm32f4xx_flash.c ****  ===============================================================================   
 270:libs/STM32F4xx_StdPeriph_Driver/src/stm32f4xx_flash.c **** 
 271:libs/STM32F4xx_StdPeriph_Driver/src/stm32f4xx_flash.c ****    This group includes the following functions:
 272:libs/STM32F4xx_StdPeriph_Driver/src/stm32f4xx_flash.c ****     - void FLASH_Unlock(void)
 273:libs/STM32F4xx_StdPeriph_Driver/src/stm32f4xx_flash.c ****     - void FLASH_Lock(void)
 274:libs/STM32F4xx_StdPeriph_Driver/src/stm32f4xx_flash.c ****     - FLASH_Status FLASH_EraseSector(uint32_t FLASH_Sector, uint8_t VoltageRange)
 275:libs/STM32F4xx_StdPeriph_Driver/src/stm32f4xx_flash.c ****     - FLASH_Status FLASH_EraseAllSectors(uint8_t VoltageRange)
 276:libs/STM32F4xx_StdPeriph_Driver/src/stm32f4xx_flash.c ****     - FLASH_Status FLASH_ProgramDoubleWord(uint32_t Address, uint64_t Data)
 277:libs/STM32F4xx_StdPeriph_Driver/src/stm32f4xx_flash.c ****     - FLASH_Status FLASH_ProgramWord(uint32_t Address, uint32_t Data)
 278:libs/STM32F4xx_StdPeriph_Driver/src/stm32f4xx_flash.c ****     - FLASH_Status FLASH_ProgramHalfWord(uint32_t Address, uint16_t Data)
 279:libs/STM32F4xx_StdPeriph_Driver/src/stm32f4xx_flash.c ****     - FLASH_Status FLASH_ProgramByte(uint32_t Address, uint8_t Data)
 280:libs/STM32F4xx_StdPeriph_Driver/src/stm32f4xx_flash.c ****    
 281:libs/STM32F4xx_StdPeriph_Driver/src/stm32f4xx_flash.c ****    Any operation of erase or program should follow these steps:
 282:libs/STM32F4xx_StdPeriph_Driver/src/stm32f4xx_flash.c ****    1. Call the FLASH_Unlock() function to enable the FLASH control register access
 283:libs/STM32F4xx_StdPeriph_Driver/src/stm32f4xx_flash.c **** 
 284:libs/STM32F4xx_StdPeriph_Driver/src/stm32f4xx_flash.c ****    2. Call the desired function to erase sector(s) or program data
 285:libs/STM32F4xx_StdPeriph_Driver/src/stm32f4xx_flash.c **** 
 286:libs/STM32F4xx_StdPeriph_Driver/src/stm32f4xx_flash.c ****    3. Call the FLASH_Lock() function to disable the FLASH control register access
 287:libs/STM32F4xx_StdPeriph_Driver/src/stm32f4xx_flash.c ****       (recommended to protect the FLASH memory against possible unwanted operation)
 288:libs/STM32F4xx_StdPeriph_Driver/src/stm32f4xx_flash.c ****     
 289:libs/STM32F4xx_StdPeriph_Driver/src/stm32f4xx_flash.c **** @endverbatim
 290:libs/STM32F4xx_StdPeriph_Driver/src/stm32f4xx_flash.c ****   * @{
 291:libs/STM32F4xx_StdPeriph_Driver/src/stm32f4xx_flash.c ****   */
 292:libs/STM32F4xx_StdPeriph_Driver/src/stm32f4xx_flash.c **** 
 293:libs/STM32F4xx_StdPeriph_Driver/src/stm32f4xx_flash.c **** /**
 294:libs/STM32F4xx_StdPeriph_Driver/src/stm32f4xx_flash.c ****   * @brief  Unlocks the FLASH control register access
 295:libs/STM32F4xx_StdPeriph_Driver/src/stm32f4xx_flash.c ****   * @param  None
 296:libs/STM32F4xx_StdPeriph_Driver/src/stm32f4xx_flash.c ****   * @retval None
 297:libs/STM32F4xx_StdPeriph_Driver/src/stm32f4xx_flash.c ****   */
 298:libs/STM32F4xx_StdPeriph_Driver/src/stm32f4xx_flash.c **** void FLASH_Unlock(void)
 299:libs/STM32F4xx_StdPeriph_Driver/src/stm32f4xx_flash.c **** {
 200              		.loc 1 299 0
 201              		.cfi_startproc
 202              		@ args = 0, pretend = 0, frame = 0
 203              		@ frame_needed = 0, uses_anonymous_args = 0
 204              		@ link register save eliminated.
 300:libs/STM32F4xx_StdPeriph_Driver/src/stm32f4xx_flash.c ****   if((FLASH->CR & FLASH_CR_LOCK) != RESET)
 205              		.loc 1 300 0
 206 0000 4FF47053 		mov	r3, #15360
 207 0004 C4F20203 		movt	r3, 16386
 208 0008 1B69     		ldr	r3, [r3, #16]
 209 000a 002B     		cmp	r3, #0
 210 000c 0DDA     		bge	.L13
 301:libs/STM32F4xx_StdPeriph_Driver/src/stm32f4xx_flash.c ****   {
 302:libs/STM32F4xx_StdPeriph_Driver/src/stm32f4xx_flash.c ****     /* Authorize the FLASH Registers access */
 303:libs/STM32F4xx_StdPeriph_Driver/src/stm32f4xx_flash.c ****     FLASH->KEYR = FLASH_KEY1;
 211              		.loc 1 303 0
 212 000e 4FF47053 		mov	r3, #15360
 213 0012 C4F20203 		movt	r3, 16386
 214 0016 40F22312 		movw	r2, #291
 215 001a C4F26752 		movt	r2, 17767
 216 001e 5A60     		str	r2, [r3, #4]
 304:libs/STM32F4xx_StdPeriph_Driver/src/stm32f4xx_flash.c ****     FLASH->KEYR = FLASH_KEY2;
 217              		.loc 1 304 0
 218 0020 48F6AB12 		movw	r2, #35243
 219 0024 CCF6EF52 		movt	r2, 52719
 220 0028 5A60     		str	r2, [r3, #4]
 221              	.L13:
 222 002a 7047     		bx	lr
 223              		.cfi_endproc
 224              	.LFE116:
 226              		.section	.text.FLASH_Lock,"ax",%progbits
 227              		.align	2
 228              		.global	FLASH_Lock
 229              		.thumb
 230              		.thumb_func
 232              	FLASH_Lock:
 233              	.LFB117:
 305:libs/STM32F4xx_StdPeriph_Driver/src/stm32f4xx_flash.c ****   }  
 306:libs/STM32F4xx_StdPeriph_Driver/src/stm32f4xx_flash.c **** }
 307:libs/STM32F4xx_StdPeriph_Driver/src/stm32f4xx_flash.c **** 
 308:libs/STM32F4xx_StdPeriph_Driver/src/stm32f4xx_flash.c **** /**
 309:libs/STM32F4xx_StdPeriph_Driver/src/stm32f4xx_flash.c ****   * @brief  Locks the FLASH control register access
 310:libs/STM32F4xx_StdPeriph_Driver/src/stm32f4xx_flash.c ****   * @param  None
 311:libs/STM32F4xx_StdPeriph_Driver/src/stm32f4xx_flash.c ****   * @retval None
 312:libs/STM32F4xx_StdPeriph_Driver/src/stm32f4xx_flash.c ****   */
 313:libs/STM32F4xx_StdPeriph_Driver/src/stm32f4xx_flash.c **** void FLASH_Lock(void)
 314:libs/STM32F4xx_StdPeriph_Driver/src/stm32f4xx_flash.c **** {
 234              		.loc 1 314 0
 235              		.cfi_startproc
 236              		@ args = 0, pretend = 0, frame = 0
 237              		@ frame_needed = 0, uses_anonymous_args = 0
 238              		@ link register save eliminated.
 315:libs/STM32F4xx_StdPeriph_Driver/src/stm32f4xx_flash.c ****   /* Set the LOCK Bit to lock the FLASH Registers access */
 316:libs/STM32F4xx_StdPeriph_Driver/src/stm32f4xx_flash.c ****   FLASH->CR |= FLASH_CR_LOCK;
 239              		.loc 1 316 0
 240 0000 4FF47053 		mov	r3, #15360
 241 0004 C4F20203 		movt	r3, 16386
 242 0008 1A69     		ldr	r2, [r3, #16]
 243 000a 42F00042 		orr	r2, r2, #-2147483648
 244 000e 1A61     		str	r2, [r3, #16]
 245 0010 7047     		bx	lr
 246              		.cfi_endproc
 247              	.LFE117:
 249 0012 00BF     		.section	.text.FLASH_OB_Unlock,"ax",%progbits
 250              		.align	2
 251              		.global	FLASH_OB_Unlock
 252              		.thumb
 253              		.thumb_func
 255              	FLASH_OB_Unlock:
 256              	.LFB124:
 317:libs/STM32F4xx_StdPeriph_Driver/src/stm32f4xx_flash.c **** }
 318:libs/STM32F4xx_StdPeriph_Driver/src/stm32f4xx_flash.c **** 
 319:libs/STM32F4xx_StdPeriph_Driver/src/stm32f4xx_flash.c **** /**
 320:libs/STM32F4xx_StdPeriph_Driver/src/stm32f4xx_flash.c ****   * @brief  Erases a specified FLASH Sector.
 321:libs/STM32F4xx_StdPeriph_Driver/src/stm32f4xx_flash.c ****   *   
 322:libs/STM32F4xx_StdPeriph_Driver/src/stm32f4xx_flash.c ****   * @param  FLASH_Sector: The Sector number to be erased.
 323:libs/STM32F4xx_StdPeriph_Driver/src/stm32f4xx_flash.c ****   *          This parameter can be a value between FLASH_Sector_0 and FLASH_Sector_11
 324:libs/STM32F4xx_StdPeriph_Driver/src/stm32f4xx_flash.c ****   *    
 325:libs/STM32F4xx_StdPeriph_Driver/src/stm32f4xx_flash.c ****   * @param  VoltageRange: The device voltage range which defines the erase parallelism.  
 326:libs/STM32F4xx_StdPeriph_Driver/src/stm32f4xx_flash.c ****   *          This parameter can be one of the following values:
 327:libs/STM32F4xx_StdPeriph_Driver/src/stm32f4xx_flash.c ****   *            @arg VoltageRange_1: when the device voltage range is 1.8V to 2.1V, 
 328:libs/STM32F4xx_StdPeriph_Driver/src/stm32f4xx_flash.c ****   *                                  the operation will be done by byte (8-bit) 
 329:libs/STM32F4xx_StdPeriph_Driver/src/stm32f4xx_flash.c ****   *            @arg VoltageRange_2: when the device voltage range is 2.1V to 2.7V,
 330:libs/STM32F4xx_StdPeriph_Driver/src/stm32f4xx_flash.c ****   *                                  the operation will be done by half word (16-bit)
 331:libs/STM32F4xx_StdPeriph_Driver/src/stm32f4xx_flash.c ****   *            @arg VoltageRange_3: when the device voltage range is 2.7V to 3.6V,
 332:libs/STM32F4xx_StdPeriph_Driver/src/stm32f4xx_flash.c ****   *                                  the operation will be done by word (32-bit)
 333:libs/STM32F4xx_StdPeriph_Driver/src/stm32f4xx_flash.c ****   *            @arg VoltageRange_4: when the device voltage range is 2.7V to 3.6V + External Vpp, 
 334:libs/STM32F4xx_StdPeriph_Driver/src/stm32f4xx_flash.c ****   *                                  the operation will be done by double word (64-bit)
 335:libs/STM32F4xx_StdPeriph_Driver/src/stm32f4xx_flash.c ****   *       
 336:libs/STM32F4xx_StdPeriph_Driver/src/stm32f4xx_flash.c ****   * @retval FLASH Status: The returned value can be: FLASH_BUSY, FLASH_ERROR_PROGRAM,
 337:libs/STM32F4xx_StdPeriph_Driver/src/stm32f4xx_flash.c ****   *                       FLASH_ERROR_WRP, FLASH_ERROR_OPERATION or FLASH_COMPLETE.
 338:libs/STM32F4xx_StdPeriph_Driver/src/stm32f4xx_flash.c ****   */
 339:libs/STM32F4xx_StdPeriph_Driver/src/stm32f4xx_flash.c **** FLASH_Status FLASH_EraseSector(uint32_t FLASH_Sector, uint8_t VoltageRange)
 340:libs/STM32F4xx_StdPeriph_Driver/src/stm32f4xx_flash.c **** {
 341:libs/STM32F4xx_StdPeriph_Driver/src/stm32f4xx_flash.c ****   uint32_t tmp_psize = 0x0;
 342:libs/STM32F4xx_StdPeriph_Driver/src/stm32f4xx_flash.c ****   FLASH_Status status = FLASH_COMPLETE;
 343:libs/STM32F4xx_StdPeriph_Driver/src/stm32f4xx_flash.c **** 
 344:libs/STM32F4xx_StdPeriph_Driver/src/stm32f4xx_flash.c ****   /* Check the parameters */
 345:libs/STM32F4xx_StdPeriph_Driver/src/stm32f4xx_flash.c ****   assert_param(IS_FLASH_SECTOR(FLASH_Sector));
 346:libs/STM32F4xx_StdPeriph_Driver/src/stm32f4xx_flash.c ****   assert_param(IS_VOLTAGERANGE(VoltageRange));
 347:libs/STM32F4xx_StdPeriph_Driver/src/stm32f4xx_flash.c ****   
 348:libs/STM32F4xx_StdPeriph_Driver/src/stm32f4xx_flash.c ****   if(VoltageRange == VoltageRange_1)
 349:libs/STM32F4xx_StdPeriph_Driver/src/stm32f4xx_flash.c ****   {
 350:libs/STM32F4xx_StdPeriph_Driver/src/stm32f4xx_flash.c ****      tmp_psize = FLASH_PSIZE_BYTE;
 351:libs/STM32F4xx_StdPeriph_Driver/src/stm32f4xx_flash.c ****   }
 352:libs/STM32F4xx_StdPeriph_Driver/src/stm32f4xx_flash.c ****   else if(VoltageRange == VoltageRange_2)
 353:libs/STM32F4xx_StdPeriph_Driver/src/stm32f4xx_flash.c ****   {
 354:libs/STM32F4xx_StdPeriph_Driver/src/stm32f4xx_flash.c ****     tmp_psize = FLASH_PSIZE_HALF_WORD;
 355:libs/STM32F4xx_StdPeriph_Driver/src/stm32f4xx_flash.c ****   }
 356:libs/STM32F4xx_StdPeriph_Driver/src/stm32f4xx_flash.c ****   else if(VoltageRange == VoltageRange_3)
 357:libs/STM32F4xx_StdPeriph_Driver/src/stm32f4xx_flash.c ****   {
 358:libs/STM32F4xx_StdPeriph_Driver/src/stm32f4xx_flash.c ****     tmp_psize = FLASH_PSIZE_WORD;
 359:libs/STM32F4xx_StdPeriph_Driver/src/stm32f4xx_flash.c ****   }
 360:libs/STM32F4xx_StdPeriph_Driver/src/stm32f4xx_flash.c ****   else
 361:libs/STM32F4xx_StdPeriph_Driver/src/stm32f4xx_flash.c ****   {
 362:libs/STM32F4xx_StdPeriph_Driver/src/stm32f4xx_flash.c ****     tmp_psize = FLASH_PSIZE_DOUBLE_WORD;
 363:libs/STM32F4xx_StdPeriph_Driver/src/stm32f4xx_flash.c ****   }
 364:libs/STM32F4xx_StdPeriph_Driver/src/stm32f4xx_flash.c ****   /* Wait for last operation to be completed */
 365:libs/STM32F4xx_StdPeriph_Driver/src/stm32f4xx_flash.c ****   status = FLASH_WaitForLastOperation();
 366:libs/STM32F4xx_StdPeriph_Driver/src/stm32f4xx_flash.c ****   
 367:libs/STM32F4xx_StdPeriph_Driver/src/stm32f4xx_flash.c ****   if(status == FLASH_COMPLETE)
 368:libs/STM32F4xx_StdPeriph_Driver/src/stm32f4xx_flash.c ****   { 
 369:libs/STM32F4xx_StdPeriph_Driver/src/stm32f4xx_flash.c ****     /* if the previous operation is completed, proceed to erase the sector */
 370:libs/STM32F4xx_StdPeriph_Driver/src/stm32f4xx_flash.c ****     FLASH->CR &= CR_PSIZE_MASK;
 371:libs/STM32F4xx_StdPeriph_Driver/src/stm32f4xx_flash.c ****     FLASH->CR |= tmp_psize;
 372:libs/STM32F4xx_StdPeriph_Driver/src/stm32f4xx_flash.c ****     FLASH->CR &= SECTOR_MASK;
 373:libs/STM32F4xx_StdPeriph_Driver/src/stm32f4xx_flash.c ****     FLASH->CR |= FLASH_CR_SER | FLASH_Sector;
 374:libs/STM32F4xx_StdPeriph_Driver/src/stm32f4xx_flash.c ****     FLASH->CR |= FLASH_CR_STRT;
 375:libs/STM32F4xx_StdPeriph_Driver/src/stm32f4xx_flash.c ****     
 376:libs/STM32F4xx_StdPeriph_Driver/src/stm32f4xx_flash.c ****     /* Wait for last operation to be completed */
 377:libs/STM32F4xx_StdPeriph_Driver/src/stm32f4xx_flash.c ****     status = FLASH_WaitForLastOperation();
 378:libs/STM32F4xx_StdPeriph_Driver/src/stm32f4xx_flash.c ****     
 379:libs/STM32F4xx_StdPeriph_Driver/src/stm32f4xx_flash.c ****     /* if the erase operation is completed, disable the SER Bit */
 380:libs/STM32F4xx_StdPeriph_Driver/src/stm32f4xx_flash.c ****     FLASH->CR &= (~FLASH_CR_SER);
 381:libs/STM32F4xx_StdPeriph_Driver/src/stm32f4xx_flash.c ****     FLASH->CR &= SECTOR_MASK; 
 382:libs/STM32F4xx_StdPeriph_Driver/src/stm32f4xx_flash.c ****   }
 383:libs/STM32F4xx_StdPeriph_Driver/src/stm32f4xx_flash.c ****   /* Return the Erase Status */
 384:libs/STM32F4xx_StdPeriph_Driver/src/stm32f4xx_flash.c ****   return status;
 385:libs/STM32F4xx_StdPeriph_Driver/src/stm32f4xx_flash.c **** }
 386:libs/STM32F4xx_StdPeriph_Driver/src/stm32f4xx_flash.c **** 
 387:libs/STM32F4xx_StdPeriph_Driver/src/stm32f4xx_flash.c **** /**
 388:libs/STM32F4xx_StdPeriph_Driver/src/stm32f4xx_flash.c ****   * @brief  Erases all FLASH Sectors.
 389:libs/STM32F4xx_StdPeriph_Driver/src/stm32f4xx_flash.c ****   *    
 390:libs/STM32F4xx_StdPeriph_Driver/src/stm32f4xx_flash.c ****   * @param  VoltageRange: The device voltage range which defines the erase parallelism.  
 391:libs/STM32F4xx_StdPeriph_Driver/src/stm32f4xx_flash.c ****   *          This parameter can be one of the following values:
 392:libs/STM32F4xx_StdPeriph_Driver/src/stm32f4xx_flash.c ****   *            @arg VoltageRange_1: when the device voltage range is 1.8V to 2.1V, 
 393:libs/STM32F4xx_StdPeriph_Driver/src/stm32f4xx_flash.c ****   *                                  the operation will be done by byte (8-bit) 
 394:libs/STM32F4xx_StdPeriph_Driver/src/stm32f4xx_flash.c ****   *            @arg VoltageRange_2: when the device voltage range is 2.1V to 2.7V,
 395:libs/STM32F4xx_StdPeriph_Driver/src/stm32f4xx_flash.c ****   *                                  the operation will be done by half word (16-bit)
 396:libs/STM32F4xx_StdPeriph_Driver/src/stm32f4xx_flash.c ****   *            @arg VoltageRange_3: when the device voltage range is 2.7V to 3.6V,
 397:libs/STM32F4xx_StdPeriph_Driver/src/stm32f4xx_flash.c ****   *                                  the operation will be done by word (32-bit)
 398:libs/STM32F4xx_StdPeriph_Driver/src/stm32f4xx_flash.c ****   *            @arg VoltageRange_4: when the device voltage range is 2.7V to 3.6V + External Vpp, 
 399:libs/STM32F4xx_StdPeriph_Driver/src/stm32f4xx_flash.c ****   *                                  the operation will be done by double word (64-bit)
 400:libs/STM32F4xx_StdPeriph_Driver/src/stm32f4xx_flash.c ****   *       
 401:libs/STM32F4xx_StdPeriph_Driver/src/stm32f4xx_flash.c ****   * @retval FLASH Status: The returned value can be: FLASH_BUSY, FLASH_ERROR_PROGRAM,
 402:libs/STM32F4xx_StdPeriph_Driver/src/stm32f4xx_flash.c ****   *                       FLASH_ERROR_WRP, FLASH_ERROR_OPERATION or FLASH_COMPLETE.
 403:libs/STM32F4xx_StdPeriph_Driver/src/stm32f4xx_flash.c ****   */
 404:libs/STM32F4xx_StdPeriph_Driver/src/stm32f4xx_flash.c **** FLASH_Status FLASH_EraseAllSectors(uint8_t VoltageRange)
 405:libs/STM32F4xx_StdPeriph_Driver/src/stm32f4xx_flash.c **** {
 406:libs/STM32F4xx_StdPeriph_Driver/src/stm32f4xx_flash.c ****   uint32_t tmp_psize = 0x0;
 407:libs/STM32F4xx_StdPeriph_Driver/src/stm32f4xx_flash.c ****   FLASH_Status status = FLASH_COMPLETE;
 408:libs/STM32F4xx_StdPeriph_Driver/src/stm32f4xx_flash.c ****   
 409:libs/STM32F4xx_StdPeriph_Driver/src/stm32f4xx_flash.c ****   /* Wait for last operation to be completed */
 410:libs/STM32F4xx_StdPeriph_Driver/src/stm32f4xx_flash.c ****   status = FLASH_WaitForLastOperation();
 411:libs/STM32F4xx_StdPeriph_Driver/src/stm32f4xx_flash.c ****   assert_param(IS_VOLTAGERANGE(VoltageRange));
 412:libs/STM32F4xx_StdPeriph_Driver/src/stm32f4xx_flash.c ****   
 413:libs/STM32F4xx_StdPeriph_Driver/src/stm32f4xx_flash.c ****   if(VoltageRange == VoltageRange_1)
 414:libs/STM32F4xx_StdPeriph_Driver/src/stm32f4xx_flash.c ****   {
 415:libs/STM32F4xx_StdPeriph_Driver/src/stm32f4xx_flash.c ****      tmp_psize = FLASH_PSIZE_BYTE;
 416:libs/STM32F4xx_StdPeriph_Driver/src/stm32f4xx_flash.c ****   }
 417:libs/STM32F4xx_StdPeriph_Driver/src/stm32f4xx_flash.c ****   else if(VoltageRange == VoltageRange_2)
 418:libs/STM32F4xx_StdPeriph_Driver/src/stm32f4xx_flash.c ****   {
 419:libs/STM32F4xx_StdPeriph_Driver/src/stm32f4xx_flash.c ****     tmp_psize = FLASH_PSIZE_HALF_WORD;
 420:libs/STM32F4xx_StdPeriph_Driver/src/stm32f4xx_flash.c ****   }
 421:libs/STM32F4xx_StdPeriph_Driver/src/stm32f4xx_flash.c ****   else if(VoltageRange == VoltageRange_3)
 422:libs/STM32F4xx_StdPeriph_Driver/src/stm32f4xx_flash.c ****   {
 423:libs/STM32F4xx_StdPeriph_Driver/src/stm32f4xx_flash.c ****     tmp_psize = FLASH_PSIZE_WORD;
 424:libs/STM32F4xx_StdPeriph_Driver/src/stm32f4xx_flash.c ****   }
 425:libs/STM32F4xx_StdPeriph_Driver/src/stm32f4xx_flash.c ****   else
 426:libs/STM32F4xx_StdPeriph_Driver/src/stm32f4xx_flash.c ****   {
 427:libs/STM32F4xx_StdPeriph_Driver/src/stm32f4xx_flash.c ****     tmp_psize = FLASH_PSIZE_DOUBLE_WORD;
 428:libs/STM32F4xx_StdPeriph_Driver/src/stm32f4xx_flash.c ****   }  
 429:libs/STM32F4xx_StdPeriph_Driver/src/stm32f4xx_flash.c ****   if(status == FLASH_COMPLETE)
 430:libs/STM32F4xx_StdPeriph_Driver/src/stm32f4xx_flash.c ****   {
 431:libs/STM32F4xx_StdPeriph_Driver/src/stm32f4xx_flash.c ****     /* if the previous operation is completed, proceed to erase all sectors */
 432:libs/STM32F4xx_StdPeriph_Driver/src/stm32f4xx_flash.c ****      FLASH->CR &= CR_PSIZE_MASK;
 433:libs/STM32F4xx_StdPeriph_Driver/src/stm32f4xx_flash.c ****      FLASH->CR |= tmp_psize;
 434:libs/STM32F4xx_StdPeriph_Driver/src/stm32f4xx_flash.c ****      FLASH->CR |= FLASH_CR_MER;
 435:libs/STM32F4xx_StdPeriph_Driver/src/stm32f4xx_flash.c ****      FLASH->CR |= FLASH_CR_STRT;
 436:libs/STM32F4xx_StdPeriph_Driver/src/stm32f4xx_flash.c ****     
 437:libs/STM32F4xx_StdPeriph_Driver/src/stm32f4xx_flash.c ****     /* Wait for last operation to be completed */
 438:libs/STM32F4xx_StdPeriph_Driver/src/stm32f4xx_flash.c ****     status = FLASH_WaitForLastOperation();
 439:libs/STM32F4xx_StdPeriph_Driver/src/stm32f4xx_flash.c **** 
 440:libs/STM32F4xx_StdPeriph_Driver/src/stm32f4xx_flash.c ****     /* if the erase operation is completed, disable the MER Bit */
 441:libs/STM32F4xx_StdPeriph_Driver/src/stm32f4xx_flash.c ****     FLASH->CR &= (~FLASH_CR_MER);
 442:libs/STM32F4xx_StdPeriph_Driver/src/stm32f4xx_flash.c **** 
 443:libs/STM32F4xx_StdPeriph_Driver/src/stm32f4xx_flash.c ****   }   
 444:libs/STM32F4xx_StdPeriph_Driver/src/stm32f4xx_flash.c ****   /* Return the Erase Status */
 445:libs/STM32F4xx_StdPeriph_Driver/src/stm32f4xx_flash.c ****   return status;
 446:libs/STM32F4xx_StdPeriph_Driver/src/stm32f4xx_flash.c **** }
 447:libs/STM32F4xx_StdPeriph_Driver/src/stm32f4xx_flash.c **** 
 448:libs/STM32F4xx_StdPeriph_Driver/src/stm32f4xx_flash.c **** /**
 449:libs/STM32F4xx_StdPeriph_Driver/src/stm32f4xx_flash.c ****   * @brief  Programs a double word (64-bit) at a specified address.
 450:libs/STM32F4xx_StdPeriph_Driver/src/stm32f4xx_flash.c ****   * @note   This function must be used when the device voltage range is from
 451:libs/STM32F4xx_StdPeriph_Driver/src/stm32f4xx_flash.c ****   *         2.7V to 3.6V and an External Vpp is present.           
 452:libs/STM32F4xx_StdPeriph_Driver/src/stm32f4xx_flash.c ****   * @param  Address: specifies the address to be programmed.
 453:libs/STM32F4xx_StdPeriph_Driver/src/stm32f4xx_flash.c ****   * @param  Data: specifies the data to be programmed.
 454:libs/STM32F4xx_StdPeriph_Driver/src/stm32f4xx_flash.c ****   * @retval FLASH Status: The returned value can be: FLASH_BUSY, FLASH_ERROR_PROGRAM,
 455:libs/STM32F4xx_StdPeriph_Driver/src/stm32f4xx_flash.c ****   *                       FLASH_ERROR_WRP, FLASH_ERROR_OPERATION or FLASH_COMPLETE.
 456:libs/STM32F4xx_StdPeriph_Driver/src/stm32f4xx_flash.c ****   */
 457:libs/STM32F4xx_StdPeriph_Driver/src/stm32f4xx_flash.c **** FLASH_Status FLASH_ProgramDoubleWord(uint32_t Address, uint64_t Data)
 458:libs/STM32F4xx_StdPeriph_Driver/src/stm32f4xx_flash.c **** {
 459:libs/STM32F4xx_StdPeriph_Driver/src/stm32f4xx_flash.c ****   FLASH_Status status = FLASH_COMPLETE;
 460:libs/STM32F4xx_StdPeriph_Driver/src/stm32f4xx_flash.c **** 
 461:libs/STM32F4xx_StdPeriph_Driver/src/stm32f4xx_flash.c ****   /* Check the parameters */
 462:libs/STM32F4xx_StdPeriph_Driver/src/stm32f4xx_flash.c ****   assert_param(IS_FLASH_ADDRESS(Address));
 463:libs/STM32F4xx_StdPeriph_Driver/src/stm32f4xx_flash.c **** 
 464:libs/STM32F4xx_StdPeriph_Driver/src/stm32f4xx_flash.c ****   /* Wait for last operation to be completed */
 465:libs/STM32F4xx_StdPeriph_Driver/src/stm32f4xx_flash.c ****   status = FLASH_WaitForLastOperation();
 466:libs/STM32F4xx_StdPeriph_Driver/src/stm32f4xx_flash.c ****   
 467:libs/STM32F4xx_StdPeriph_Driver/src/stm32f4xx_flash.c ****   if(status == FLASH_COMPLETE)
 468:libs/STM32F4xx_StdPeriph_Driver/src/stm32f4xx_flash.c ****   {
 469:libs/STM32F4xx_StdPeriph_Driver/src/stm32f4xx_flash.c ****     /* if the previous operation is completed, proceed to program the new data */
 470:libs/STM32F4xx_StdPeriph_Driver/src/stm32f4xx_flash.c ****     FLASH->CR &= CR_PSIZE_MASK;
 471:libs/STM32F4xx_StdPeriph_Driver/src/stm32f4xx_flash.c ****     FLASH->CR |= FLASH_PSIZE_DOUBLE_WORD;
 472:libs/STM32F4xx_StdPeriph_Driver/src/stm32f4xx_flash.c ****     FLASH->CR |= FLASH_CR_PG;
 473:libs/STM32F4xx_StdPeriph_Driver/src/stm32f4xx_flash.c ****   
 474:libs/STM32F4xx_StdPeriph_Driver/src/stm32f4xx_flash.c ****     *(__IO uint64_t*)Address = Data;
 475:libs/STM32F4xx_StdPeriph_Driver/src/stm32f4xx_flash.c ****         
 476:libs/STM32F4xx_StdPeriph_Driver/src/stm32f4xx_flash.c ****     /* Wait for last operation to be completed */
 477:libs/STM32F4xx_StdPeriph_Driver/src/stm32f4xx_flash.c ****     status = FLASH_WaitForLastOperation();
 478:libs/STM32F4xx_StdPeriph_Driver/src/stm32f4xx_flash.c **** 
 479:libs/STM32F4xx_StdPeriph_Driver/src/stm32f4xx_flash.c ****     /* if the program operation is completed, disable the PG Bit */
 480:libs/STM32F4xx_StdPeriph_Driver/src/stm32f4xx_flash.c ****     FLASH->CR &= (~FLASH_CR_PG);
 481:libs/STM32F4xx_StdPeriph_Driver/src/stm32f4xx_flash.c ****   } 
 482:libs/STM32F4xx_StdPeriph_Driver/src/stm32f4xx_flash.c ****   /* Return the Program Status */
 483:libs/STM32F4xx_StdPeriph_Driver/src/stm32f4xx_flash.c ****   return status;
 484:libs/STM32F4xx_StdPeriph_Driver/src/stm32f4xx_flash.c **** }
 485:libs/STM32F4xx_StdPeriph_Driver/src/stm32f4xx_flash.c **** 
 486:libs/STM32F4xx_StdPeriph_Driver/src/stm32f4xx_flash.c **** /**
 487:libs/STM32F4xx_StdPeriph_Driver/src/stm32f4xx_flash.c ****   * @brief  Programs a word (32-bit) at a specified address.
 488:libs/STM32F4xx_StdPeriph_Driver/src/stm32f4xx_flash.c ****   * @param  Address: specifies the address to be programmed.
 489:libs/STM32F4xx_StdPeriph_Driver/src/stm32f4xx_flash.c ****   *         This parameter can be any address in Program memory zone or in OTP zone.  
 490:libs/STM32F4xx_StdPeriph_Driver/src/stm32f4xx_flash.c ****   * @note   This function must be used when the device voltage range is from 2.7V to 3.6V. 
 491:libs/STM32F4xx_StdPeriph_Driver/src/stm32f4xx_flash.c ****   * @param  Data: specifies the data to be programmed.
 492:libs/STM32F4xx_StdPeriph_Driver/src/stm32f4xx_flash.c ****   * @retval FLASH Status: The returned value can be: FLASH_BUSY, FLASH_ERROR_PROGRAM,
 493:libs/STM32F4xx_StdPeriph_Driver/src/stm32f4xx_flash.c ****   *                       FLASH_ERROR_WRP, FLASH_ERROR_OPERATION or FLASH_COMPLETE.
 494:libs/STM32F4xx_StdPeriph_Driver/src/stm32f4xx_flash.c ****   */
 495:libs/STM32F4xx_StdPeriph_Driver/src/stm32f4xx_flash.c **** FLASH_Status FLASH_ProgramWord(uint32_t Address, uint32_t Data)
 496:libs/STM32F4xx_StdPeriph_Driver/src/stm32f4xx_flash.c **** {
 497:libs/STM32F4xx_StdPeriph_Driver/src/stm32f4xx_flash.c ****   FLASH_Status status = FLASH_COMPLETE;
 498:libs/STM32F4xx_StdPeriph_Driver/src/stm32f4xx_flash.c **** 
 499:libs/STM32F4xx_StdPeriph_Driver/src/stm32f4xx_flash.c ****   /* Check the parameters */
 500:libs/STM32F4xx_StdPeriph_Driver/src/stm32f4xx_flash.c ****   assert_param(IS_FLASH_ADDRESS(Address));
 501:libs/STM32F4xx_StdPeriph_Driver/src/stm32f4xx_flash.c **** 
 502:libs/STM32F4xx_StdPeriph_Driver/src/stm32f4xx_flash.c ****   /* Wait for last operation to be completed */
 503:libs/STM32F4xx_StdPeriph_Driver/src/stm32f4xx_flash.c ****   status = FLASH_WaitForLastOperation();
 504:libs/STM32F4xx_StdPeriph_Driver/src/stm32f4xx_flash.c ****   
 505:libs/STM32F4xx_StdPeriph_Driver/src/stm32f4xx_flash.c ****   if(status == FLASH_COMPLETE)
 506:libs/STM32F4xx_StdPeriph_Driver/src/stm32f4xx_flash.c ****   {
 507:libs/STM32F4xx_StdPeriph_Driver/src/stm32f4xx_flash.c ****     /* if the previous operation is completed, proceed to program the new data */
 508:libs/STM32F4xx_StdPeriph_Driver/src/stm32f4xx_flash.c ****     FLASH->CR &= CR_PSIZE_MASK;
 509:libs/STM32F4xx_StdPeriph_Driver/src/stm32f4xx_flash.c ****     FLASH->CR |= FLASH_PSIZE_WORD;
 510:libs/STM32F4xx_StdPeriph_Driver/src/stm32f4xx_flash.c ****     FLASH->CR |= FLASH_CR_PG;
 511:libs/STM32F4xx_StdPeriph_Driver/src/stm32f4xx_flash.c ****   
 512:libs/STM32F4xx_StdPeriph_Driver/src/stm32f4xx_flash.c ****     *(__IO uint32_t*)Address = Data;
 513:libs/STM32F4xx_StdPeriph_Driver/src/stm32f4xx_flash.c ****         
 514:libs/STM32F4xx_StdPeriph_Driver/src/stm32f4xx_flash.c ****     /* Wait for last operation to be completed */
 515:libs/STM32F4xx_StdPeriph_Driver/src/stm32f4xx_flash.c ****     status = FLASH_WaitForLastOperation();
 516:libs/STM32F4xx_StdPeriph_Driver/src/stm32f4xx_flash.c **** 
 517:libs/STM32F4xx_StdPeriph_Driver/src/stm32f4xx_flash.c ****     /* if the program operation is completed, disable the PG Bit */
 518:libs/STM32F4xx_StdPeriph_Driver/src/stm32f4xx_flash.c ****     FLASH->CR &= (~FLASH_CR_PG);
 519:libs/STM32F4xx_StdPeriph_Driver/src/stm32f4xx_flash.c ****   } 
 520:libs/STM32F4xx_StdPeriph_Driver/src/stm32f4xx_flash.c ****   /* Return the Program Status */
 521:libs/STM32F4xx_StdPeriph_Driver/src/stm32f4xx_flash.c ****   return status;
 522:libs/STM32F4xx_StdPeriph_Driver/src/stm32f4xx_flash.c **** }
 523:libs/STM32F4xx_StdPeriph_Driver/src/stm32f4xx_flash.c **** 
 524:libs/STM32F4xx_StdPeriph_Driver/src/stm32f4xx_flash.c **** /**
 525:libs/STM32F4xx_StdPeriph_Driver/src/stm32f4xx_flash.c ****   * @brief  Programs a half word (16-bit) at a specified address. 
 526:libs/STM32F4xx_StdPeriph_Driver/src/stm32f4xx_flash.c ****   * @note   This function must be used when the device voltage range is from 2.1V to 3.6V.         
 527:libs/STM32F4xx_StdPeriph_Driver/src/stm32f4xx_flash.c ****   * @param  Address: specifies the address to be programmed.
 528:libs/STM32F4xx_StdPeriph_Driver/src/stm32f4xx_flash.c ****   *         This parameter can be any address in Program memory zone or in OTP zone.  
 529:libs/STM32F4xx_StdPeriph_Driver/src/stm32f4xx_flash.c ****   * @param  Data: specifies the data to be programmed.
 530:libs/STM32F4xx_StdPeriph_Driver/src/stm32f4xx_flash.c ****   * @retval FLASH Status: The returned value can be: FLASH_BUSY, FLASH_ERROR_PROGRAM,
 531:libs/STM32F4xx_StdPeriph_Driver/src/stm32f4xx_flash.c ****   *                       FLASH_ERROR_WRP, FLASH_ERROR_OPERATION or FLASH_COMPLETE.
 532:libs/STM32F4xx_StdPeriph_Driver/src/stm32f4xx_flash.c ****   */
 533:libs/STM32F4xx_StdPeriph_Driver/src/stm32f4xx_flash.c **** FLASH_Status FLASH_ProgramHalfWord(uint32_t Address, uint16_t Data)
 534:libs/STM32F4xx_StdPeriph_Driver/src/stm32f4xx_flash.c **** {
 535:libs/STM32F4xx_StdPeriph_Driver/src/stm32f4xx_flash.c ****   FLASH_Status status = FLASH_COMPLETE;
 536:libs/STM32F4xx_StdPeriph_Driver/src/stm32f4xx_flash.c **** 
 537:libs/STM32F4xx_StdPeriph_Driver/src/stm32f4xx_flash.c ****   /* Check the parameters */
 538:libs/STM32F4xx_StdPeriph_Driver/src/stm32f4xx_flash.c ****   assert_param(IS_FLASH_ADDRESS(Address));
 539:libs/STM32F4xx_StdPeriph_Driver/src/stm32f4xx_flash.c **** 
 540:libs/STM32F4xx_StdPeriph_Driver/src/stm32f4xx_flash.c ****   /* Wait for last operation to be completed */
 541:libs/STM32F4xx_StdPeriph_Driver/src/stm32f4xx_flash.c ****   status = FLASH_WaitForLastOperation();
 542:libs/STM32F4xx_StdPeriph_Driver/src/stm32f4xx_flash.c ****   
 543:libs/STM32F4xx_StdPeriph_Driver/src/stm32f4xx_flash.c ****   if(status == FLASH_COMPLETE)
 544:libs/STM32F4xx_StdPeriph_Driver/src/stm32f4xx_flash.c ****   {
 545:libs/STM32F4xx_StdPeriph_Driver/src/stm32f4xx_flash.c ****     /* if the previous operation is completed, proceed to program the new data */
 546:libs/STM32F4xx_StdPeriph_Driver/src/stm32f4xx_flash.c ****     FLASH->CR &= CR_PSIZE_MASK;
 547:libs/STM32F4xx_StdPeriph_Driver/src/stm32f4xx_flash.c ****     FLASH->CR |= FLASH_PSIZE_HALF_WORD;
 548:libs/STM32F4xx_StdPeriph_Driver/src/stm32f4xx_flash.c ****     FLASH->CR |= FLASH_CR_PG;
 549:libs/STM32F4xx_StdPeriph_Driver/src/stm32f4xx_flash.c ****   
 550:libs/STM32F4xx_StdPeriph_Driver/src/stm32f4xx_flash.c ****     *(__IO uint16_t*)Address = Data;
 551:libs/STM32F4xx_StdPeriph_Driver/src/stm32f4xx_flash.c ****         
 552:libs/STM32F4xx_StdPeriph_Driver/src/stm32f4xx_flash.c ****     /* Wait for last operation to be completed */
 553:libs/STM32F4xx_StdPeriph_Driver/src/stm32f4xx_flash.c ****     status = FLASH_WaitForLastOperation();
 554:libs/STM32F4xx_StdPeriph_Driver/src/stm32f4xx_flash.c **** 
 555:libs/STM32F4xx_StdPeriph_Driver/src/stm32f4xx_flash.c ****     /* if the program operation is completed, disable the PG Bit */
 556:libs/STM32F4xx_StdPeriph_Driver/src/stm32f4xx_flash.c ****     FLASH->CR &= (~FLASH_CR_PG);
 557:libs/STM32F4xx_StdPeriph_Driver/src/stm32f4xx_flash.c ****   } 
 558:libs/STM32F4xx_StdPeriph_Driver/src/stm32f4xx_flash.c ****   /* Return the Program Status */
 559:libs/STM32F4xx_StdPeriph_Driver/src/stm32f4xx_flash.c ****   return status;
 560:libs/STM32F4xx_StdPeriph_Driver/src/stm32f4xx_flash.c **** }
 561:libs/STM32F4xx_StdPeriph_Driver/src/stm32f4xx_flash.c **** 
 562:libs/STM32F4xx_StdPeriph_Driver/src/stm32f4xx_flash.c **** /**
 563:libs/STM32F4xx_StdPeriph_Driver/src/stm32f4xx_flash.c ****   * @brief  Programs a byte (8-bit) at a specified address.
 564:libs/STM32F4xx_StdPeriph_Driver/src/stm32f4xx_flash.c ****   * @note   This function can be used within all the device supply voltage ranges.               
 565:libs/STM32F4xx_StdPeriph_Driver/src/stm32f4xx_flash.c ****   * @param  Address: specifies the address to be programmed.
 566:libs/STM32F4xx_StdPeriph_Driver/src/stm32f4xx_flash.c ****   *         This parameter can be any address in Program memory zone or in OTP zone.  
 567:libs/STM32F4xx_StdPeriph_Driver/src/stm32f4xx_flash.c ****   * @param  Data: specifies the data to be programmed.
 568:libs/STM32F4xx_StdPeriph_Driver/src/stm32f4xx_flash.c ****   * @retval FLASH Status: The returned value can be: FLASH_BUSY, FLASH_ERROR_PROGRAM,
 569:libs/STM32F4xx_StdPeriph_Driver/src/stm32f4xx_flash.c ****   *                       FLASH_ERROR_WRP, FLASH_ERROR_OPERATION or FLASH_COMPLETE.
 570:libs/STM32F4xx_StdPeriph_Driver/src/stm32f4xx_flash.c ****   */
 571:libs/STM32F4xx_StdPeriph_Driver/src/stm32f4xx_flash.c **** FLASH_Status FLASH_ProgramByte(uint32_t Address, uint8_t Data)
 572:libs/STM32F4xx_StdPeriph_Driver/src/stm32f4xx_flash.c **** {
 573:libs/STM32F4xx_StdPeriph_Driver/src/stm32f4xx_flash.c ****   FLASH_Status status = FLASH_COMPLETE;
 574:libs/STM32F4xx_StdPeriph_Driver/src/stm32f4xx_flash.c **** 
 575:libs/STM32F4xx_StdPeriph_Driver/src/stm32f4xx_flash.c ****   /* Check the parameters */
 576:libs/STM32F4xx_StdPeriph_Driver/src/stm32f4xx_flash.c ****   assert_param(IS_FLASH_ADDRESS(Address));
 577:libs/STM32F4xx_StdPeriph_Driver/src/stm32f4xx_flash.c **** 
 578:libs/STM32F4xx_StdPeriph_Driver/src/stm32f4xx_flash.c ****   /* Wait for last operation to be completed */
 579:libs/STM32F4xx_StdPeriph_Driver/src/stm32f4xx_flash.c ****   status = FLASH_WaitForLastOperation();
 580:libs/STM32F4xx_StdPeriph_Driver/src/stm32f4xx_flash.c ****   
 581:libs/STM32F4xx_StdPeriph_Driver/src/stm32f4xx_flash.c ****   if(status == FLASH_COMPLETE)
 582:libs/STM32F4xx_StdPeriph_Driver/src/stm32f4xx_flash.c ****   {
 583:libs/STM32F4xx_StdPeriph_Driver/src/stm32f4xx_flash.c ****     /* if the previous operation is completed, proceed to program the new data */
 584:libs/STM32F4xx_StdPeriph_Driver/src/stm32f4xx_flash.c ****     FLASH->CR &= CR_PSIZE_MASK;
 585:libs/STM32F4xx_StdPeriph_Driver/src/stm32f4xx_flash.c ****     FLASH->CR |= FLASH_PSIZE_BYTE;
 586:libs/STM32F4xx_StdPeriph_Driver/src/stm32f4xx_flash.c ****     FLASH->CR |= FLASH_CR_PG;
 587:libs/STM32F4xx_StdPeriph_Driver/src/stm32f4xx_flash.c ****   
 588:libs/STM32F4xx_StdPeriph_Driver/src/stm32f4xx_flash.c ****     *(__IO uint8_t*)Address = Data;
 589:libs/STM32F4xx_StdPeriph_Driver/src/stm32f4xx_flash.c ****         
 590:libs/STM32F4xx_StdPeriph_Driver/src/stm32f4xx_flash.c ****     /* Wait for last operation to be completed */
 591:libs/STM32F4xx_StdPeriph_Driver/src/stm32f4xx_flash.c ****     status = FLASH_WaitForLastOperation();
 592:libs/STM32F4xx_StdPeriph_Driver/src/stm32f4xx_flash.c **** 
 593:libs/STM32F4xx_StdPeriph_Driver/src/stm32f4xx_flash.c ****     /* if the program operation is completed, disable the PG Bit */
 594:libs/STM32F4xx_StdPeriph_Driver/src/stm32f4xx_flash.c ****     FLASH->CR &= (~FLASH_CR_PG);
 595:libs/STM32F4xx_StdPeriph_Driver/src/stm32f4xx_flash.c ****   } 
 596:libs/STM32F4xx_StdPeriph_Driver/src/stm32f4xx_flash.c **** 
 597:libs/STM32F4xx_StdPeriph_Driver/src/stm32f4xx_flash.c ****   /* Return the Program Status */
 598:libs/STM32F4xx_StdPeriph_Driver/src/stm32f4xx_flash.c ****   return status;
 599:libs/STM32F4xx_StdPeriph_Driver/src/stm32f4xx_flash.c **** }
 600:libs/STM32F4xx_StdPeriph_Driver/src/stm32f4xx_flash.c **** 
 601:libs/STM32F4xx_StdPeriph_Driver/src/stm32f4xx_flash.c **** /**
 602:libs/STM32F4xx_StdPeriph_Driver/src/stm32f4xx_flash.c ****   * @}
 603:libs/STM32F4xx_StdPeriph_Driver/src/stm32f4xx_flash.c ****   */
 604:libs/STM32F4xx_StdPeriph_Driver/src/stm32f4xx_flash.c **** 
 605:libs/STM32F4xx_StdPeriph_Driver/src/stm32f4xx_flash.c **** /** @defgroup FLASH_Group3 Option Bytes Programming functions
 606:libs/STM32F4xx_StdPeriph_Driver/src/stm32f4xx_flash.c ****  *  @brief   Option Bytes Programming functions 
 607:libs/STM32F4xx_StdPeriph_Driver/src/stm32f4xx_flash.c ****  *
 608:libs/STM32F4xx_StdPeriph_Driver/src/stm32f4xx_flash.c **** @verbatim   
 609:libs/STM32F4xx_StdPeriph_Driver/src/stm32f4xx_flash.c ****  ===============================================================================
 610:libs/STM32F4xx_StdPeriph_Driver/src/stm32f4xx_flash.c ****                         Option Bytes Programming functions
 611:libs/STM32F4xx_StdPeriph_Driver/src/stm32f4xx_flash.c ****  ===============================================================================  
 612:libs/STM32F4xx_StdPeriph_Driver/src/stm32f4xx_flash.c ****  
 613:libs/STM32F4xx_StdPeriph_Driver/src/stm32f4xx_flash.c ****    This group includes the following functions:
 614:libs/STM32F4xx_StdPeriph_Driver/src/stm32f4xx_flash.c ****    - void FLASH_OB_Unlock(void)
 615:libs/STM32F4xx_StdPeriph_Driver/src/stm32f4xx_flash.c ****    - void FLASH_OB_Lock(void)
 616:libs/STM32F4xx_StdPeriph_Driver/src/stm32f4xx_flash.c ****    - void FLASH_OB_WRPConfig(uint32_t OB_WRP, FunctionalState NewState)
 617:libs/STM32F4xx_StdPeriph_Driver/src/stm32f4xx_flash.c ****    - void FLASH_OB_RDPConfig(uint8_t OB_RDP)
 618:libs/STM32F4xx_StdPeriph_Driver/src/stm32f4xx_flash.c ****    - void FLASH_OB_UserConfig(uint8_t OB_IWDG, uint8_t OB_STOP, uint8_t OB_STDBY)
 619:libs/STM32F4xx_StdPeriph_Driver/src/stm32f4xx_flash.c ****    - void FLASH_OB_BORConfig(uint8_t OB_BOR)
 620:libs/STM32F4xx_StdPeriph_Driver/src/stm32f4xx_flash.c ****    - FLASH_Status FLASH_ProgramOTP(uint32_t Address, uint32_t Data)							
 621:libs/STM32F4xx_StdPeriph_Driver/src/stm32f4xx_flash.c ****    - FLASH_Status FLASH_OB_Launch(void)
 622:libs/STM32F4xx_StdPeriph_Driver/src/stm32f4xx_flash.c ****    - uint32_t FLASH_OB_GetUser(void)						
 623:libs/STM32F4xx_StdPeriph_Driver/src/stm32f4xx_flash.c ****    - uint8_t FLASH_OB_GetWRP(void)						
 624:libs/STM32F4xx_StdPeriph_Driver/src/stm32f4xx_flash.c ****    - uint8_t FLASH_OB_GetRDP(void)							
 625:libs/STM32F4xx_StdPeriph_Driver/src/stm32f4xx_flash.c ****    - uint8_t FLASH_OB_GetBOR(void)
 626:libs/STM32F4xx_StdPeriph_Driver/src/stm32f4xx_flash.c ****    
 627:libs/STM32F4xx_StdPeriph_Driver/src/stm32f4xx_flash.c ****    Any operation of erase or program should follow these steps:
 628:libs/STM32F4xx_StdPeriph_Driver/src/stm32f4xx_flash.c ****    1. Call the FLASH_OB_Unlock() function to enable the FLASH option control register access
 629:libs/STM32F4xx_StdPeriph_Driver/src/stm32f4xx_flash.c **** 
 630:libs/STM32F4xx_StdPeriph_Driver/src/stm32f4xx_flash.c ****    2. Call one or several functions to program the desired Option Bytes:
 631:libs/STM32F4xx_StdPeriph_Driver/src/stm32f4xx_flash.c ****       - void FLASH_OB_WRPConfig(uint32_t OB_WRP, FunctionalState NewState) => to Enable/Disable 
 632:libs/STM32F4xx_StdPeriph_Driver/src/stm32f4xx_flash.c ****         the desired sector write protection
 633:libs/STM32F4xx_StdPeriph_Driver/src/stm32f4xx_flash.c ****       - void FLASH_OB_RDPConfig(uint8_t OB_RDP) => to set the desired read Protection Level
 634:libs/STM32F4xx_StdPeriph_Driver/src/stm32f4xx_flash.c ****       - void FLASH_OB_UserConfig(uint8_t OB_IWDG, uint8_t OB_STOP, uint8_t OB_STDBY) => to configur
 635:libs/STM32F4xx_StdPeriph_Driver/src/stm32f4xx_flash.c ****         the user Option Bytes.
 636:libs/STM32F4xx_StdPeriph_Driver/src/stm32f4xx_flash.c ****       - void FLASH_OB_BORConfig(uint8_t OB_BOR) => to set the BOR Level 			 
 637:libs/STM32F4xx_StdPeriph_Driver/src/stm32f4xx_flash.c **** 
 638:libs/STM32F4xx_StdPeriph_Driver/src/stm32f4xx_flash.c ****    3. Once all needed Option Bytes to be programmed are correctly written, call the
 639:libs/STM32F4xx_StdPeriph_Driver/src/stm32f4xx_flash.c ****       FLASH_OB_Launch() function to launch the Option Bytes programming process.
 640:libs/STM32F4xx_StdPeriph_Driver/src/stm32f4xx_flash.c ****      
 641:libs/STM32F4xx_StdPeriph_Driver/src/stm32f4xx_flash.c ****      @note When changing the IWDG mode from HW to SW or from SW to HW, a system 
 642:libs/STM32F4xx_StdPeriph_Driver/src/stm32f4xx_flash.c ****            reset is needed to make the change effective.  
 643:libs/STM32F4xx_StdPeriph_Driver/src/stm32f4xx_flash.c **** 
 644:libs/STM32F4xx_StdPeriph_Driver/src/stm32f4xx_flash.c ****    4. Call the FLASH_OB_Lock() function to disable the FLASH option control register
 645:libs/STM32F4xx_StdPeriph_Driver/src/stm32f4xx_flash.c ****       access (recommended to protect the Option Bytes against possible unwanted operations)
 646:libs/STM32F4xx_StdPeriph_Driver/src/stm32f4xx_flash.c ****     
 647:libs/STM32F4xx_StdPeriph_Driver/src/stm32f4xx_flash.c **** @endverbatim
 648:libs/STM32F4xx_StdPeriph_Driver/src/stm32f4xx_flash.c ****   * @{
 649:libs/STM32F4xx_StdPeriph_Driver/src/stm32f4xx_flash.c ****   */
 650:libs/STM32F4xx_StdPeriph_Driver/src/stm32f4xx_flash.c **** 
 651:libs/STM32F4xx_StdPeriph_Driver/src/stm32f4xx_flash.c **** /**
 652:libs/STM32F4xx_StdPeriph_Driver/src/stm32f4xx_flash.c ****   * @brief  Unlocks the FLASH Option Control Registers access.
 653:libs/STM32F4xx_StdPeriph_Driver/src/stm32f4xx_flash.c ****   * @param  None
 654:libs/STM32F4xx_StdPeriph_Driver/src/stm32f4xx_flash.c ****   * @retval None
 655:libs/STM32F4xx_StdPeriph_Driver/src/stm32f4xx_flash.c ****   */
 656:libs/STM32F4xx_StdPeriph_Driver/src/stm32f4xx_flash.c **** void FLASH_OB_Unlock(void)
 657:libs/STM32F4xx_StdPeriph_Driver/src/stm32f4xx_flash.c **** {
 257              		.loc 1 657 0
 258              		.cfi_startproc
 259              		@ args = 0, pretend = 0, frame = 0
 260              		@ frame_needed = 0, uses_anonymous_args = 0
 261              		@ link register save eliminated.
 658:libs/STM32F4xx_StdPeriph_Driver/src/stm32f4xx_flash.c ****   if((FLASH->OPTCR & FLASH_OPTCR_OPTLOCK) != RESET)
 262              		.loc 1 658 0
 263 0000 4FF47053 		mov	r3, #15360
 264 0004 C4F20203 		movt	r3, 16386
 265 0008 5B69     		ldr	r3, [r3, #20]
 266 000a 13F0010F 		tst	r3, #1
 267 000e 0DD0     		beq	.L16
 659:libs/STM32F4xx_StdPeriph_Driver/src/stm32f4xx_flash.c ****   {
 660:libs/STM32F4xx_StdPeriph_Driver/src/stm32f4xx_flash.c ****     /* Authorizes the Option Byte register programming */
 661:libs/STM32F4xx_StdPeriph_Driver/src/stm32f4xx_flash.c ****     FLASH->OPTKEYR = FLASH_OPT_KEY1;
 268              		.loc 1 661 0
 269 0010 4FF47053 		mov	r3, #15360
 270 0014 C4F20203 		movt	r3, 16386
 271 0018 42F63B22 		movw	r2, #10811
 272 001c C0F61902 		movt	r2, 2073
 273 0020 9A60     		str	r2, [r3, #8]
 662:libs/STM32F4xx_StdPeriph_Driver/src/stm32f4xx_flash.c ****     FLASH->OPTKEYR = FLASH_OPT_KEY2;
 274              		.loc 1 662 0
 275 0022 46F67F62 		movw	r2, #28287
 276 0026 C4F65D42 		movt	r2, 19549
 277 002a 9A60     		str	r2, [r3, #8]
 278              	.L16:
 279 002c 7047     		bx	lr
 280              		.cfi_endproc
 281              	.LFE124:
 283 002e 00BF     		.section	.text.FLASH_OB_Lock,"ax",%progbits
 284              		.align	2
 285              		.global	FLASH_OB_Lock
 286              		.thumb
 287              		.thumb_func
 289              	FLASH_OB_Lock:
 290              	.LFB125:
 663:libs/STM32F4xx_StdPeriph_Driver/src/stm32f4xx_flash.c ****   }  
 664:libs/STM32F4xx_StdPeriph_Driver/src/stm32f4xx_flash.c **** }
 665:libs/STM32F4xx_StdPeriph_Driver/src/stm32f4xx_flash.c **** 
 666:libs/STM32F4xx_StdPeriph_Driver/src/stm32f4xx_flash.c **** /**
 667:libs/STM32F4xx_StdPeriph_Driver/src/stm32f4xx_flash.c ****   * @brief  Locks the FLASH Option Control Registers access.
 668:libs/STM32F4xx_StdPeriph_Driver/src/stm32f4xx_flash.c ****   * @param  None
 669:libs/STM32F4xx_StdPeriph_Driver/src/stm32f4xx_flash.c ****   * @retval None
 670:libs/STM32F4xx_StdPeriph_Driver/src/stm32f4xx_flash.c ****   */
 671:libs/STM32F4xx_StdPeriph_Driver/src/stm32f4xx_flash.c **** void FLASH_OB_Lock(void)
 672:libs/STM32F4xx_StdPeriph_Driver/src/stm32f4xx_flash.c **** {
 291              		.loc 1 672 0
 292              		.cfi_startproc
 293              		@ args = 0, pretend = 0, frame = 0
 294              		@ frame_needed = 0, uses_anonymous_args = 0
 295              		@ link register save eliminated.
 673:libs/STM32F4xx_StdPeriph_Driver/src/stm32f4xx_flash.c ****   /* Set the OPTLOCK Bit to lock the FLASH Option Byte Registers access */
 674:libs/STM32F4xx_StdPeriph_Driver/src/stm32f4xx_flash.c ****   FLASH->OPTCR |= FLASH_OPTCR_OPTLOCK;
 296              		.loc 1 674 0
 297 0000 4FF47053 		mov	r3, #15360
 298 0004 C4F20203 		movt	r3, 16386
 299 0008 5A69     		ldr	r2, [r3, #20]
 300 000a 42F00102 		orr	r2, r2, #1
 301 000e 5A61     		str	r2, [r3, #20]
 302 0010 7047     		bx	lr
 303              		.cfi_endproc
 304              	.LFE125:
 306 0012 00BF     		.section	.text.FLASH_OB_BORConfig,"ax",%progbits
 307              		.align	2
 308              		.global	FLASH_OB_BORConfig
 309              		.thumb
 310              		.thumb_func
 312              	FLASH_OB_BORConfig:
 313              	.LFB129:
 675:libs/STM32F4xx_StdPeriph_Driver/src/stm32f4xx_flash.c **** }
 676:libs/STM32F4xx_StdPeriph_Driver/src/stm32f4xx_flash.c **** 
 677:libs/STM32F4xx_StdPeriph_Driver/src/stm32f4xx_flash.c **** /**
 678:libs/STM32F4xx_StdPeriph_Driver/src/stm32f4xx_flash.c ****   * @brief  Enables or disables the write protection of the desired sectors
 679:libs/STM32F4xx_StdPeriph_Driver/src/stm32f4xx_flash.c ****   * @param  OB_WRP: specifies the sector(s) to be write protected or unprotected.
 680:libs/STM32F4xx_StdPeriph_Driver/src/stm32f4xx_flash.c ****   *          This parameter can be one of the following values:
 681:libs/STM32F4xx_StdPeriph_Driver/src/stm32f4xx_flash.c ****   *            @arg OB_WRP: A value between OB_WRP_Sector0 and OB_WRP_Sector11                     
 682:libs/STM32F4xx_StdPeriph_Driver/src/stm32f4xx_flash.c ****   *            @arg OB_WRP_Sector_All
 683:libs/STM32F4xx_StdPeriph_Driver/src/stm32f4xx_flash.c ****   * @param  Newstate: new state of the Write Protection.
 684:libs/STM32F4xx_StdPeriph_Driver/src/stm32f4xx_flash.c ****   *          This parameter can be: ENABLE or DISABLE.
 685:libs/STM32F4xx_StdPeriph_Driver/src/stm32f4xx_flash.c ****   * @retval None  
 686:libs/STM32F4xx_StdPeriph_Driver/src/stm32f4xx_flash.c ****   */
 687:libs/STM32F4xx_StdPeriph_Driver/src/stm32f4xx_flash.c **** void FLASH_OB_WRPConfig(uint32_t OB_WRP, FunctionalState NewState)
 688:libs/STM32F4xx_StdPeriph_Driver/src/stm32f4xx_flash.c **** { 
 689:libs/STM32F4xx_StdPeriph_Driver/src/stm32f4xx_flash.c ****   FLASH_Status status = FLASH_COMPLETE;
 690:libs/STM32F4xx_StdPeriph_Driver/src/stm32f4xx_flash.c ****   
 691:libs/STM32F4xx_StdPeriph_Driver/src/stm32f4xx_flash.c ****   /* Check the parameters */
 692:libs/STM32F4xx_StdPeriph_Driver/src/stm32f4xx_flash.c ****   assert_param(IS_OB_WRP(OB_WRP));
 693:libs/STM32F4xx_StdPeriph_Driver/src/stm32f4xx_flash.c ****   assert_param(IS_FUNCTIONAL_STATE(NewState));
 694:libs/STM32F4xx_StdPeriph_Driver/src/stm32f4xx_flash.c ****     
 695:libs/STM32F4xx_StdPeriph_Driver/src/stm32f4xx_flash.c ****   status = FLASH_WaitForLastOperation();
 696:libs/STM32F4xx_StdPeriph_Driver/src/stm32f4xx_flash.c **** 
 697:libs/STM32F4xx_StdPeriph_Driver/src/stm32f4xx_flash.c ****   if(status == FLASH_COMPLETE)
 698:libs/STM32F4xx_StdPeriph_Driver/src/stm32f4xx_flash.c ****   { 
 699:libs/STM32F4xx_StdPeriph_Driver/src/stm32f4xx_flash.c ****     if(NewState != DISABLE)
 700:libs/STM32F4xx_StdPeriph_Driver/src/stm32f4xx_flash.c ****     {
 701:libs/STM32F4xx_StdPeriph_Driver/src/stm32f4xx_flash.c ****       *(__IO uint16_t*)OPTCR_BYTE2_ADDRESS &= (~OB_WRP);
 702:libs/STM32F4xx_StdPeriph_Driver/src/stm32f4xx_flash.c ****     }
 703:libs/STM32F4xx_StdPeriph_Driver/src/stm32f4xx_flash.c ****     else
 704:libs/STM32F4xx_StdPeriph_Driver/src/stm32f4xx_flash.c ****     {
 705:libs/STM32F4xx_StdPeriph_Driver/src/stm32f4xx_flash.c ****       *(__IO uint16_t*)OPTCR_BYTE2_ADDRESS |= (uint16_t)OB_WRP;
 706:libs/STM32F4xx_StdPeriph_Driver/src/stm32f4xx_flash.c ****     }
 707:libs/STM32F4xx_StdPeriph_Driver/src/stm32f4xx_flash.c ****   }
 708:libs/STM32F4xx_StdPeriph_Driver/src/stm32f4xx_flash.c **** }
 709:libs/STM32F4xx_StdPeriph_Driver/src/stm32f4xx_flash.c **** 
 710:libs/STM32F4xx_StdPeriph_Driver/src/stm32f4xx_flash.c **** /**
 711:libs/STM32F4xx_StdPeriph_Driver/src/stm32f4xx_flash.c ****   * @brief  Sets the read protection level.
 712:libs/STM32F4xx_StdPeriph_Driver/src/stm32f4xx_flash.c ****   * @param  OB_RDP: specifies the read protection level.
 713:libs/STM32F4xx_StdPeriph_Driver/src/stm32f4xx_flash.c ****   *          This parameter can be one of the following values:
 714:libs/STM32F4xx_StdPeriph_Driver/src/stm32f4xx_flash.c ****   *            @arg OB_RDP_Level_0: No protection
 715:libs/STM32F4xx_StdPeriph_Driver/src/stm32f4xx_flash.c ****   *            @arg OB_RDP_Level_1: Read protection of the memory
 716:libs/STM32F4xx_StdPeriph_Driver/src/stm32f4xx_flash.c ****   *            @arg OB_RDP_Level_2: Full chip protection
 717:libs/STM32F4xx_StdPeriph_Driver/src/stm32f4xx_flash.c ****   *   
 718:libs/STM32F4xx_StdPeriph_Driver/src/stm32f4xx_flash.c ****   * !!!Warning!!! When enabling OB_RDP level 2 it's no more possible to go back to level 1 or 0
 719:libs/STM32F4xx_StdPeriph_Driver/src/stm32f4xx_flash.c ****   *    
 720:libs/STM32F4xx_StdPeriph_Driver/src/stm32f4xx_flash.c ****   * @retval None
 721:libs/STM32F4xx_StdPeriph_Driver/src/stm32f4xx_flash.c ****   */
 722:libs/STM32F4xx_StdPeriph_Driver/src/stm32f4xx_flash.c **** void FLASH_OB_RDPConfig(uint8_t OB_RDP)
 723:libs/STM32F4xx_StdPeriph_Driver/src/stm32f4xx_flash.c **** {
 724:libs/STM32F4xx_StdPeriph_Driver/src/stm32f4xx_flash.c ****   FLASH_Status status = FLASH_COMPLETE;
 725:libs/STM32F4xx_StdPeriph_Driver/src/stm32f4xx_flash.c **** 
 726:libs/STM32F4xx_StdPeriph_Driver/src/stm32f4xx_flash.c ****   /* Check the parameters */
 727:libs/STM32F4xx_StdPeriph_Driver/src/stm32f4xx_flash.c ****   assert_param(IS_OB_RDP(OB_RDP));
 728:libs/STM32F4xx_StdPeriph_Driver/src/stm32f4xx_flash.c **** 
 729:libs/STM32F4xx_StdPeriph_Driver/src/stm32f4xx_flash.c ****   status = FLASH_WaitForLastOperation();
 730:libs/STM32F4xx_StdPeriph_Driver/src/stm32f4xx_flash.c **** 
 731:libs/STM32F4xx_StdPeriph_Driver/src/stm32f4xx_flash.c ****   if(status == FLASH_COMPLETE)
 732:libs/STM32F4xx_StdPeriph_Driver/src/stm32f4xx_flash.c ****   {
 733:libs/STM32F4xx_StdPeriph_Driver/src/stm32f4xx_flash.c ****     *(__IO uint8_t*)OPTCR_BYTE1_ADDRESS = OB_RDP;
 734:libs/STM32F4xx_StdPeriph_Driver/src/stm32f4xx_flash.c **** 
 735:libs/STM32F4xx_StdPeriph_Driver/src/stm32f4xx_flash.c ****   }
 736:libs/STM32F4xx_StdPeriph_Driver/src/stm32f4xx_flash.c **** }
 737:libs/STM32F4xx_StdPeriph_Driver/src/stm32f4xx_flash.c **** 
 738:libs/STM32F4xx_StdPeriph_Driver/src/stm32f4xx_flash.c **** /**
 739:libs/STM32F4xx_StdPeriph_Driver/src/stm32f4xx_flash.c ****   * @brief  Programs the FLASH User Option Byte: IWDG_SW / RST_STOP / RST_STDBY.    
 740:libs/STM32F4xx_StdPeriph_Driver/src/stm32f4xx_flash.c ****   * @param  OB_IWDG: Selects the IWDG mode
 741:libs/STM32F4xx_StdPeriph_Driver/src/stm32f4xx_flash.c ****   *          This parameter can be one of the following values:
 742:libs/STM32F4xx_StdPeriph_Driver/src/stm32f4xx_flash.c ****   *            @arg OB_IWDG_SW: Software IWDG selected
 743:libs/STM32F4xx_StdPeriph_Driver/src/stm32f4xx_flash.c ****   *            @arg OB_IWDG_HW: Hardware IWDG selected
 744:libs/STM32F4xx_StdPeriph_Driver/src/stm32f4xx_flash.c ****   * @param  OB_STOP: Reset event when entering STOP mode.
 745:libs/STM32F4xx_StdPeriph_Driver/src/stm32f4xx_flash.c ****   *          This parameter  can be one of the following values:
 746:libs/STM32F4xx_StdPeriph_Driver/src/stm32f4xx_flash.c ****   *            @arg OB_STOP_NoRST: No reset generated when entering in STOP
 747:libs/STM32F4xx_StdPeriph_Driver/src/stm32f4xx_flash.c ****   *            @arg OB_STOP_RST: Reset generated when entering in STOP
 748:libs/STM32F4xx_StdPeriph_Driver/src/stm32f4xx_flash.c ****   * @param  OB_STDBY: Reset event when entering Standby mode.
 749:libs/STM32F4xx_StdPeriph_Driver/src/stm32f4xx_flash.c ****   *          This parameter  can be one of the following values:
 750:libs/STM32F4xx_StdPeriph_Driver/src/stm32f4xx_flash.c ****   *            @arg OB_STDBY_NoRST: No reset generated when entering in STANDBY
 751:libs/STM32F4xx_StdPeriph_Driver/src/stm32f4xx_flash.c ****   *            @arg OB_STDBY_RST: Reset generated when entering in STANDBY
 752:libs/STM32F4xx_StdPeriph_Driver/src/stm32f4xx_flash.c ****   * @retval None
 753:libs/STM32F4xx_StdPeriph_Driver/src/stm32f4xx_flash.c ****   */
 754:libs/STM32F4xx_StdPeriph_Driver/src/stm32f4xx_flash.c **** void FLASH_OB_UserConfig(uint8_t OB_IWDG, uint8_t OB_STOP, uint8_t OB_STDBY)
 755:libs/STM32F4xx_StdPeriph_Driver/src/stm32f4xx_flash.c **** {
 756:libs/STM32F4xx_StdPeriph_Driver/src/stm32f4xx_flash.c ****   uint8_t optiontmp = 0xFF;
 757:libs/STM32F4xx_StdPeriph_Driver/src/stm32f4xx_flash.c ****   FLASH_Status status = FLASH_COMPLETE; 
 758:libs/STM32F4xx_StdPeriph_Driver/src/stm32f4xx_flash.c **** 
 759:libs/STM32F4xx_StdPeriph_Driver/src/stm32f4xx_flash.c ****   /* Check the parameters */
 760:libs/STM32F4xx_StdPeriph_Driver/src/stm32f4xx_flash.c ****   assert_param(IS_OB_IWDG_SOURCE(OB_IWDG));
 761:libs/STM32F4xx_StdPeriph_Driver/src/stm32f4xx_flash.c ****   assert_param(IS_OB_STOP_SOURCE(OB_STOP));
 762:libs/STM32F4xx_StdPeriph_Driver/src/stm32f4xx_flash.c ****   assert_param(IS_OB_STDBY_SOURCE(OB_STDBY));
 763:libs/STM32F4xx_StdPeriph_Driver/src/stm32f4xx_flash.c **** 
 764:libs/STM32F4xx_StdPeriph_Driver/src/stm32f4xx_flash.c ****   /* Wait for last operation to be completed */
 765:libs/STM32F4xx_StdPeriph_Driver/src/stm32f4xx_flash.c ****   status = FLASH_WaitForLastOperation();
 766:libs/STM32F4xx_StdPeriph_Driver/src/stm32f4xx_flash.c ****   
 767:libs/STM32F4xx_StdPeriph_Driver/src/stm32f4xx_flash.c ****   if(status == FLASH_COMPLETE)
 768:libs/STM32F4xx_StdPeriph_Driver/src/stm32f4xx_flash.c ****   { 
 769:libs/STM32F4xx_StdPeriph_Driver/src/stm32f4xx_flash.c ****     /* Mask OPTLOCK, OPTSTRT and BOR_LEV bits */
 770:libs/STM32F4xx_StdPeriph_Driver/src/stm32f4xx_flash.c ****     optiontmp =  (uint8_t)((*(__IO uint8_t *)OPTCR_BYTE0_ADDRESS) & (uint8_t)0x0F); 
 771:libs/STM32F4xx_StdPeriph_Driver/src/stm32f4xx_flash.c **** 
 772:libs/STM32F4xx_StdPeriph_Driver/src/stm32f4xx_flash.c ****     /* Update User Option Byte */
 773:libs/STM32F4xx_StdPeriph_Driver/src/stm32f4xx_flash.c ****     *(__IO uint8_t *)OPTCR_BYTE0_ADDRESS = OB_IWDG | (uint8_t)(OB_STDBY | (uint8_t)(OB_STOP | ((uin
 774:libs/STM32F4xx_StdPeriph_Driver/src/stm32f4xx_flash.c ****   }  
 775:libs/STM32F4xx_StdPeriph_Driver/src/stm32f4xx_flash.c **** }
 776:libs/STM32F4xx_StdPeriph_Driver/src/stm32f4xx_flash.c **** 
 777:libs/STM32F4xx_StdPeriph_Driver/src/stm32f4xx_flash.c **** /**
 778:libs/STM32F4xx_StdPeriph_Driver/src/stm32f4xx_flash.c ****   * @brief  Sets the BOR Level. 
 779:libs/STM32F4xx_StdPeriph_Driver/src/stm32f4xx_flash.c ****   * @param  OB_BOR: specifies the Option Bytes BOR Reset Level.
 780:libs/STM32F4xx_StdPeriph_Driver/src/stm32f4xx_flash.c ****   *          This parameter can be one of the following values:
 781:libs/STM32F4xx_StdPeriph_Driver/src/stm32f4xx_flash.c ****   *            @arg OB_BOR_LEVEL3: Supply voltage ranges from 2.7 to 3.6 V
 782:libs/STM32F4xx_StdPeriph_Driver/src/stm32f4xx_flash.c ****   *            @arg OB_BOR_LEVEL2: Supply voltage ranges from 2.4 to 2.7 V
 783:libs/STM32F4xx_StdPeriph_Driver/src/stm32f4xx_flash.c ****   *            @arg OB_BOR_LEVEL1: Supply voltage ranges from 2.1 to 2.4 V
 784:libs/STM32F4xx_StdPeriph_Driver/src/stm32f4xx_flash.c ****   *            @arg OB_BOR_OFF: Supply voltage ranges from 1.62 to 2.1 V
 785:libs/STM32F4xx_StdPeriph_Driver/src/stm32f4xx_flash.c ****   * @retval None
 786:libs/STM32F4xx_StdPeriph_Driver/src/stm32f4xx_flash.c ****   */
 787:libs/STM32F4xx_StdPeriph_Driver/src/stm32f4xx_flash.c **** void FLASH_OB_BORConfig(uint8_t OB_BOR)
 788:libs/STM32F4xx_StdPeriph_Driver/src/stm32f4xx_flash.c **** {
 314              		.loc 1 788 0
 315              		.cfi_startproc
 316              		@ args = 0, pretend = 0, frame = 0
 317              		@ frame_needed = 0, uses_anonymous_args = 0
 318              		@ link register save eliminated.
 319              	.LVL5:
 789:libs/STM32F4xx_StdPeriph_Driver/src/stm32f4xx_flash.c ****   /* Check the parameters */
 790:libs/STM32F4xx_StdPeriph_Driver/src/stm32f4xx_flash.c ****   assert_param(IS_OB_BOR(OB_BOR));
 791:libs/STM32F4xx_StdPeriph_Driver/src/stm32f4xx_flash.c **** 
 792:libs/STM32F4xx_StdPeriph_Driver/src/stm32f4xx_flash.c ****   /* Set the BOR Level */
 793:libs/STM32F4xx_StdPeriph_Driver/src/stm32f4xx_flash.c ****   *(__IO uint8_t *)OPTCR_BYTE0_ADDRESS &= (~FLASH_OPTCR_BOR_LEV);
 320              		.loc 1 793 0
 321 0000 43F61443 		movw	r3, #15380
 322 0004 C4F20203 		movt	r3, 16386
 323 0008 1A78     		ldrb	r2, [r3]	@ zero_extendqisi2
 324 000a 02F0F302 		and	r2, r2, #243
 325 000e 1A70     		strb	r2, [r3]
 794:libs/STM32F4xx_StdPeriph_Driver/src/stm32f4xx_flash.c ****   *(__IO uint8_t *)OPTCR_BYTE0_ADDRESS |= OB_BOR;
 326              		.loc 1 794 0
 327 0010 1A78     		ldrb	r2, [r3]	@ zero_extendqisi2
 328 0012 1043     		orrs	r0, r0, r2
 329              	.LVL6:
 330 0014 1870     		strb	r0, [r3]
 331 0016 7047     		bx	lr
 332              		.cfi_endproc
 333              	.LFE129:
 335              		.section	.text.FLASH_OB_GetUser,"ax",%progbits
 336              		.align	2
 337              		.global	FLASH_OB_GetUser
 338              		.thumb
 339              		.thumb_func
 341              	FLASH_OB_GetUser:
 342              	.LFB131:
 795:libs/STM32F4xx_StdPeriph_Driver/src/stm32f4xx_flash.c **** 
 796:libs/STM32F4xx_StdPeriph_Driver/src/stm32f4xx_flash.c **** }
 797:libs/STM32F4xx_StdPeriph_Driver/src/stm32f4xx_flash.c **** 
 798:libs/STM32F4xx_StdPeriph_Driver/src/stm32f4xx_flash.c **** /**
 799:libs/STM32F4xx_StdPeriph_Driver/src/stm32f4xx_flash.c ****   * @brief  Launch the option byte loading.
 800:libs/STM32F4xx_StdPeriph_Driver/src/stm32f4xx_flash.c ****   * @param  None
 801:libs/STM32F4xx_StdPeriph_Driver/src/stm32f4xx_flash.c ****   * @retval FLASH Status: The returned value can be: FLASH_BUSY, FLASH_ERROR_PROGRAM,
 802:libs/STM32F4xx_StdPeriph_Driver/src/stm32f4xx_flash.c ****   *                       FLASH_ERROR_WRP, FLASH_ERROR_OPERATION or FLASH_COMPLETE.
 803:libs/STM32F4xx_StdPeriph_Driver/src/stm32f4xx_flash.c ****   */
 804:libs/STM32F4xx_StdPeriph_Driver/src/stm32f4xx_flash.c **** FLASH_Status FLASH_OB_Launch(void)
 805:libs/STM32F4xx_StdPeriph_Driver/src/stm32f4xx_flash.c **** {
 806:libs/STM32F4xx_StdPeriph_Driver/src/stm32f4xx_flash.c ****   FLASH_Status status = FLASH_COMPLETE;
 807:libs/STM32F4xx_StdPeriph_Driver/src/stm32f4xx_flash.c **** 
 808:libs/STM32F4xx_StdPeriph_Driver/src/stm32f4xx_flash.c ****   /* Set the OPTSTRT bit in OPTCR register */
 809:libs/STM32F4xx_StdPeriph_Driver/src/stm32f4xx_flash.c ****   *(__IO uint8_t *)OPTCR_BYTE0_ADDRESS |= FLASH_OPTCR_OPTSTRT;
 810:libs/STM32F4xx_StdPeriph_Driver/src/stm32f4xx_flash.c **** 
 811:libs/STM32F4xx_StdPeriph_Driver/src/stm32f4xx_flash.c ****   /* Wait for last operation to be completed */
 812:libs/STM32F4xx_StdPeriph_Driver/src/stm32f4xx_flash.c ****   status = FLASH_WaitForLastOperation();
 813:libs/STM32F4xx_StdPeriph_Driver/src/stm32f4xx_flash.c **** 
 814:libs/STM32F4xx_StdPeriph_Driver/src/stm32f4xx_flash.c ****   return status;
 815:libs/STM32F4xx_StdPeriph_Driver/src/stm32f4xx_flash.c **** }
 816:libs/STM32F4xx_StdPeriph_Driver/src/stm32f4xx_flash.c **** 
 817:libs/STM32F4xx_StdPeriph_Driver/src/stm32f4xx_flash.c **** /**
 818:libs/STM32F4xx_StdPeriph_Driver/src/stm32f4xx_flash.c ****   * @brief  Returns the FLASH User Option Bytes values.
 819:libs/STM32F4xx_StdPeriph_Driver/src/stm32f4xx_flash.c ****   * @param  None
 820:libs/STM32F4xx_StdPeriph_Driver/src/stm32f4xx_flash.c ****   * @retval The FLASH User Option Bytes values: IWDG_SW(Bit0), RST_STOP(Bit1)
 821:libs/STM32F4xx_StdPeriph_Driver/src/stm32f4xx_flash.c ****   *         and RST_STDBY(Bit2).
 822:libs/STM32F4xx_StdPeriph_Driver/src/stm32f4xx_flash.c ****   */
 823:libs/STM32F4xx_StdPeriph_Driver/src/stm32f4xx_flash.c **** uint8_t FLASH_OB_GetUser(void)
 824:libs/STM32F4xx_StdPeriph_Driver/src/stm32f4xx_flash.c **** {
 343              		.loc 1 824 0
 344              		.cfi_startproc
 345              		@ args = 0, pretend = 0, frame = 0
 346              		@ frame_needed = 0, uses_anonymous_args = 0
 347              		@ link register save eliminated.
 825:libs/STM32F4xx_StdPeriph_Driver/src/stm32f4xx_flash.c ****   /* Return the User Option Byte */
 826:libs/STM32F4xx_StdPeriph_Driver/src/stm32f4xx_flash.c ****   return (uint8_t)(FLASH->OPTCR >> 5);
 348              		.loc 1 826 0
 349 0000 4FF47053 		mov	r3, #15360
 350 0004 C4F20203 		movt	r3, 16386
 351 0008 5869     		ldr	r0, [r3, #20]
 827:libs/STM32F4xx_StdPeriph_Driver/src/stm32f4xx_flash.c **** }
 352              		.loc 1 827 0
 353 000a C0F34710 		ubfx	r0, r0, #5, #8
 354 000e 7047     		bx	lr
 355              		.cfi_endproc
 356              	.LFE131:
 358              		.section	.text.FLASH_OB_GetWRP,"ax",%progbits
 359              		.align	2
 360              		.global	FLASH_OB_GetWRP
 361              		.thumb
 362              		.thumb_func
 364              	FLASH_OB_GetWRP:
 365              	.LFB132:
 828:libs/STM32F4xx_StdPeriph_Driver/src/stm32f4xx_flash.c **** 
 829:libs/STM32F4xx_StdPeriph_Driver/src/stm32f4xx_flash.c **** /**
 830:libs/STM32F4xx_StdPeriph_Driver/src/stm32f4xx_flash.c ****   * @brief  Returns the FLASH Write Protection Option Bytes value.
 831:libs/STM32F4xx_StdPeriph_Driver/src/stm32f4xx_flash.c ****   * @param  None
 832:libs/STM32F4xx_StdPeriph_Driver/src/stm32f4xx_flash.c ****   * @retval The FLASH Write Protection  Option Bytes value
 833:libs/STM32F4xx_StdPeriph_Driver/src/stm32f4xx_flash.c ****   */
 834:libs/STM32F4xx_StdPeriph_Driver/src/stm32f4xx_flash.c **** uint16_t FLASH_OB_GetWRP(void)
 835:libs/STM32F4xx_StdPeriph_Driver/src/stm32f4xx_flash.c **** {
 366              		.loc 1 835 0
 367              		.cfi_startproc
 368              		@ args = 0, pretend = 0, frame = 0
 369              		@ frame_needed = 0, uses_anonymous_args = 0
 370              		@ link register save eliminated.
 836:libs/STM32F4xx_StdPeriph_Driver/src/stm32f4xx_flash.c ****   /* Return the FLASH write protection Register value */
 837:libs/STM32F4xx_StdPeriph_Driver/src/stm32f4xx_flash.c ****   return (*(__IO uint16_t *)(OPTCR_BYTE2_ADDRESS));
 371              		.loc 1 837 0
 372 0000 43F61643 		movw	r3, #15382
 373 0004 C4F20203 		movt	r3, 16386
 374 0008 1888     		ldrh	r0, [r3]
 838:libs/STM32F4xx_StdPeriph_Driver/src/stm32f4xx_flash.c **** }
 375              		.loc 1 838 0
 376 000a 80B2     		uxth	r0, r0
 377 000c 7047     		bx	lr
 378              		.cfi_endproc
 379              	.LFE132:
 381 000e 00BF     		.section	.text.FLASH_OB_GetRDP,"ax",%progbits
 382              		.align	2
 383              		.global	FLASH_OB_GetRDP
 384              		.thumb
 385              		.thumb_func
 387              	FLASH_OB_GetRDP:
 388              	.LFB133:
 839:libs/STM32F4xx_StdPeriph_Driver/src/stm32f4xx_flash.c **** 
 840:libs/STM32F4xx_StdPeriph_Driver/src/stm32f4xx_flash.c **** /**
 841:libs/STM32F4xx_StdPeriph_Driver/src/stm32f4xx_flash.c ****   * @brief  Returns the FLASH Read Protection level.
 842:libs/STM32F4xx_StdPeriph_Driver/src/stm32f4xx_flash.c ****   * @param  None
 843:libs/STM32F4xx_StdPeriph_Driver/src/stm32f4xx_flash.c ****   * @retval FLASH ReadOut Protection Status:
 844:libs/STM32F4xx_StdPeriph_Driver/src/stm32f4xx_flash.c ****   *           - SET, when OB_RDP_Level_1 or OB_RDP_Level_2 is set
 845:libs/STM32F4xx_StdPeriph_Driver/src/stm32f4xx_flash.c ****   *           - RESET, when OB_RDP_Level_0 is set
 846:libs/STM32F4xx_StdPeriph_Driver/src/stm32f4xx_flash.c ****   */
 847:libs/STM32F4xx_StdPeriph_Driver/src/stm32f4xx_flash.c **** FlagStatus FLASH_OB_GetRDP(void)
 848:libs/STM32F4xx_StdPeriph_Driver/src/stm32f4xx_flash.c **** {
 389              		.loc 1 848 0
 390              		.cfi_startproc
 391              		@ args = 0, pretend = 0, frame = 0
 392              		@ frame_needed = 0, uses_anonymous_args = 0
 393              		@ link register save eliminated.
 394              	.LVL7:
 849:libs/STM32F4xx_StdPeriph_Driver/src/stm32f4xx_flash.c ****   FlagStatus readstatus = RESET;
 850:libs/STM32F4xx_StdPeriph_Driver/src/stm32f4xx_flash.c **** 
 851:libs/STM32F4xx_StdPeriph_Driver/src/stm32f4xx_flash.c ****   if ((*(__IO uint8_t*)(OPTCR_BYTE1_ADDRESS) != (uint8_t)OB_RDP_Level_0))
 395              		.loc 1 851 0
 396 0000 43F61543 		movw	r3, #15381
 397 0004 C4F20203 		movt	r3, 16386
 398 0008 1878     		ldrb	r0, [r3]	@ zero_extendqisi2
 399 000a C0B2     		uxtb	r0, r0
 400              	.LVL8:
 852:libs/STM32F4xx_StdPeriph_Driver/src/stm32f4xx_flash.c ****   {
 853:libs/STM32F4xx_StdPeriph_Driver/src/stm32f4xx_flash.c ****     readstatus = SET;
 854:libs/STM32F4xx_StdPeriph_Driver/src/stm32f4xx_flash.c ****   }
 855:libs/STM32F4xx_StdPeriph_Driver/src/stm32f4xx_flash.c ****   else
 856:libs/STM32F4xx_StdPeriph_Driver/src/stm32f4xx_flash.c ****   {
 857:libs/STM32F4xx_StdPeriph_Driver/src/stm32f4xx_flash.c ****     readstatus = RESET;
 858:libs/STM32F4xx_StdPeriph_Driver/src/stm32f4xx_flash.c ****   }
 859:libs/STM32F4xx_StdPeriph_Driver/src/stm32f4xx_flash.c ****   return readstatus;
 860:libs/STM32F4xx_StdPeriph_Driver/src/stm32f4xx_flash.c **** }
 401              		.loc 1 860 0
 402 000c AA38     		subs	r0, r0, #170
 403              	.LVL9:
 404 000e 18BF     		it	ne
 405 0010 0120     		movne	r0, #1
 406              	.LVL10:
 407 0012 7047     		bx	lr
 408              		.cfi_endproc
 409              	.LFE133:
 411              		.section	.text.FLASH_OB_GetBOR,"ax",%progbits
 412              		.align	2
 413              		.global	FLASH_OB_GetBOR
 414              		.thumb
 415              		.thumb_func
 417              	FLASH_OB_GetBOR:
 418              	.LFB134:
 861:libs/STM32F4xx_StdPeriph_Driver/src/stm32f4xx_flash.c **** 
 862:libs/STM32F4xx_StdPeriph_Driver/src/stm32f4xx_flash.c **** /**
 863:libs/STM32F4xx_StdPeriph_Driver/src/stm32f4xx_flash.c ****   * @brief  Returns the FLASH BOR level.
 864:libs/STM32F4xx_StdPeriph_Driver/src/stm32f4xx_flash.c ****   * @param  None
 865:libs/STM32F4xx_StdPeriph_Driver/src/stm32f4xx_flash.c ****   * @retval The FLASH BOR level:
 866:libs/STM32F4xx_StdPeriph_Driver/src/stm32f4xx_flash.c ****   *           - OB_BOR_LEVEL3: Supply voltage ranges from 2.7 to 3.6 V
 867:libs/STM32F4xx_StdPeriph_Driver/src/stm32f4xx_flash.c ****   *           - OB_BOR_LEVEL2: Supply voltage ranges from 2.4 to 2.7 V
 868:libs/STM32F4xx_StdPeriph_Driver/src/stm32f4xx_flash.c ****   *           - OB_BOR_LEVEL1: Supply voltage ranges from 2.1 to 2.4 V
 869:libs/STM32F4xx_StdPeriph_Driver/src/stm32f4xx_flash.c ****   *           - OB_BOR_OFF   : Supply voltage ranges from 1.62 to 2.1 V  
 870:libs/STM32F4xx_StdPeriph_Driver/src/stm32f4xx_flash.c ****   */
 871:libs/STM32F4xx_StdPeriph_Driver/src/stm32f4xx_flash.c **** uint8_t FLASH_OB_GetBOR(void)
 872:libs/STM32F4xx_StdPeriph_Driver/src/stm32f4xx_flash.c **** {
 419              		.loc 1 872 0
 420              		.cfi_startproc
 421              		@ args = 0, pretend = 0, frame = 0
 422              		@ frame_needed = 0, uses_anonymous_args = 0
 423              		@ link register save eliminated.
 873:libs/STM32F4xx_StdPeriph_Driver/src/stm32f4xx_flash.c ****   /* Return the FLASH BOR level */
 874:libs/STM32F4xx_StdPeriph_Driver/src/stm32f4xx_flash.c ****   return (uint8_t)(*(__IO uint8_t *)(OPTCR_BYTE0_ADDRESS) & (uint8_t)0x0C);
 424              		.loc 1 874 0
 425 0000 43F61443 		movw	r3, #15380
 426 0004 C4F20203 		movt	r3, 16386
 427 0008 1878     		ldrb	r0, [r3]	@ zero_extendqisi2
 875:libs/STM32F4xx_StdPeriph_Driver/src/stm32f4xx_flash.c **** }
 428              		.loc 1 875 0
 429 000a 00F00C00 		and	r0, r0, #12
 430 000e 7047     		bx	lr
 431              		.cfi_endproc
 432              	.LFE134:
 434              		.section	.text.FLASH_ITConfig,"ax",%progbits
 435              		.align	2
 436              		.global	FLASH_ITConfig
 437              		.thumb
 438              		.thumb_func
 440              	FLASH_ITConfig:
 441              	.LFB135:
 876:libs/STM32F4xx_StdPeriph_Driver/src/stm32f4xx_flash.c **** 
 877:libs/STM32F4xx_StdPeriph_Driver/src/stm32f4xx_flash.c **** /**
 878:libs/STM32F4xx_StdPeriph_Driver/src/stm32f4xx_flash.c ****   * @}
 879:libs/STM32F4xx_StdPeriph_Driver/src/stm32f4xx_flash.c ****   */
 880:libs/STM32F4xx_StdPeriph_Driver/src/stm32f4xx_flash.c **** 
 881:libs/STM32F4xx_StdPeriph_Driver/src/stm32f4xx_flash.c **** /** @defgroup FLASH_Group4 Interrupts and flags management functions
 882:libs/STM32F4xx_StdPeriph_Driver/src/stm32f4xx_flash.c ****  *  @brief   Interrupts and flags management functions
 883:libs/STM32F4xx_StdPeriph_Driver/src/stm32f4xx_flash.c ****  *
 884:libs/STM32F4xx_StdPeriph_Driver/src/stm32f4xx_flash.c **** @verbatim   
 885:libs/STM32F4xx_StdPeriph_Driver/src/stm32f4xx_flash.c ****  ===============================================================================
 886:libs/STM32F4xx_StdPeriph_Driver/src/stm32f4xx_flash.c ****                   Interrupts and flags management functions
 887:libs/STM32F4xx_StdPeriph_Driver/src/stm32f4xx_flash.c ****  ===============================================================================  
 888:libs/STM32F4xx_StdPeriph_Driver/src/stm32f4xx_flash.c **** 
 889:libs/STM32F4xx_StdPeriph_Driver/src/stm32f4xx_flash.c **** @endverbatim
 890:libs/STM32F4xx_StdPeriph_Driver/src/stm32f4xx_flash.c ****   * @{
 891:libs/STM32F4xx_StdPeriph_Driver/src/stm32f4xx_flash.c ****   */
 892:libs/STM32F4xx_StdPeriph_Driver/src/stm32f4xx_flash.c **** 
 893:libs/STM32F4xx_StdPeriph_Driver/src/stm32f4xx_flash.c **** /**
 894:libs/STM32F4xx_StdPeriph_Driver/src/stm32f4xx_flash.c ****   * @brief  Enables or disables the specified FLASH interrupts.
 895:libs/STM32F4xx_StdPeriph_Driver/src/stm32f4xx_flash.c ****   * @param  FLASH_IT: specifies the FLASH interrupt sources to be enabled or disabled.
 896:libs/STM32F4xx_StdPeriph_Driver/src/stm32f4xx_flash.c ****   *          This parameter can be any combination of the following values:
 897:libs/STM32F4xx_StdPeriph_Driver/src/stm32f4xx_flash.c ****   *            @arg FLASH_IT_ERR: FLASH Error Interrupt
 898:libs/STM32F4xx_StdPeriph_Driver/src/stm32f4xx_flash.c ****   *            @arg FLASH_IT_EOP: FLASH end of operation Interrupt
 899:libs/STM32F4xx_StdPeriph_Driver/src/stm32f4xx_flash.c ****   * @retval None 
 900:libs/STM32F4xx_StdPeriph_Driver/src/stm32f4xx_flash.c ****   */
 901:libs/STM32F4xx_StdPeriph_Driver/src/stm32f4xx_flash.c **** void FLASH_ITConfig(uint32_t FLASH_IT, FunctionalState NewState)
 902:libs/STM32F4xx_StdPeriph_Driver/src/stm32f4xx_flash.c **** {
 442              		.loc 1 902 0
 443              		.cfi_startproc
 444              		@ args = 0, pretend = 0, frame = 0
 445              		@ frame_needed = 0, uses_anonymous_args = 0
 446              		@ link register save eliminated.
 447              	.LVL11:
 903:libs/STM32F4xx_StdPeriph_Driver/src/stm32f4xx_flash.c ****   /* Check the parameters */
 904:libs/STM32F4xx_StdPeriph_Driver/src/stm32f4xx_flash.c ****   assert_param(IS_FLASH_IT(FLASH_IT)); 
 905:libs/STM32F4xx_StdPeriph_Driver/src/stm32f4xx_flash.c ****   assert_param(IS_FUNCTIONAL_STATE(NewState));
 906:libs/STM32F4xx_StdPeriph_Driver/src/stm32f4xx_flash.c **** 
 907:libs/STM32F4xx_StdPeriph_Driver/src/stm32f4xx_flash.c ****   if(NewState != DISABLE)
 448              		.loc 1 907 0
 449 0000 39B1     		cbz	r1, .L27
 908:libs/STM32F4xx_StdPeriph_Driver/src/stm32f4xx_flash.c ****   {
 909:libs/STM32F4xx_StdPeriph_Driver/src/stm32f4xx_flash.c ****     /* Enable the interrupt sources */
 910:libs/STM32F4xx_StdPeriph_Driver/src/stm32f4xx_flash.c ****     FLASH->CR |= FLASH_IT;
 450              		.loc 1 910 0
 451 0002 4FF47053 		mov	r3, #15360
 452 0006 C4F20203 		movt	r3, 16386
 453 000a 1A69     		ldr	r2, [r3, #16]
 454 000c 1043     		orrs	r0, r0, r2
 455              	.LVL12:
 456 000e 1861     		str	r0, [r3, #16]
 457 0010 7047     		bx	lr
 458              	.LVL13:
 459              	.L27:
 911:libs/STM32F4xx_StdPeriph_Driver/src/stm32f4xx_flash.c ****   }
 912:libs/STM32F4xx_StdPeriph_Driver/src/stm32f4xx_flash.c ****   else
 913:libs/STM32F4xx_StdPeriph_Driver/src/stm32f4xx_flash.c ****   {
 914:libs/STM32F4xx_StdPeriph_Driver/src/stm32f4xx_flash.c ****     /* Disable the interrupt sources */
 915:libs/STM32F4xx_StdPeriph_Driver/src/stm32f4xx_flash.c ****     FLASH->CR &= ~(uint32_t)FLASH_IT;
 460              		.loc 1 915 0
 461 0012 4FF47053 		mov	r3, #15360
 462 0016 C4F20203 		movt	r3, 16386
 463 001a 1A69     		ldr	r2, [r3, #16]
 464 001c 22EA0000 		bic	r0, r2, r0
 465              	.LVL14:
 466 0020 1861     		str	r0, [r3, #16]
 467 0022 7047     		bx	lr
 468              		.cfi_endproc
 469              	.LFE135:
 471              		.section	.text.FLASH_GetFlagStatus,"ax",%progbits
 472              		.align	2
 473              		.global	FLASH_GetFlagStatus
 474              		.thumb
 475              		.thumb_func
 477              	FLASH_GetFlagStatus:
 478              	.LFB136:
 916:libs/STM32F4xx_StdPeriph_Driver/src/stm32f4xx_flash.c ****   }
 917:libs/STM32F4xx_StdPeriph_Driver/src/stm32f4xx_flash.c **** }
 918:libs/STM32F4xx_StdPeriph_Driver/src/stm32f4xx_flash.c **** 
 919:libs/STM32F4xx_StdPeriph_Driver/src/stm32f4xx_flash.c **** /**
 920:libs/STM32F4xx_StdPeriph_Driver/src/stm32f4xx_flash.c ****   * @brief  Checks whether the specified FLASH flag is set or not.
 921:libs/STM32F4xx_StdPeriph_Driver/src/stm32f4xx_flash.c ****   * @param  FLASH_FLAG: specifies the FLASH flag to check.
 922:libs/STM32F4xx_StdPeriph_Driver/src/stm32f4xx_flash.c ****   *          This parameter can be one of the following values:
 923:libs/STM32F4xx_StdPeriph_Driver/src/stm32f4xx_flash.c ****   *            @arg FLASH_FLAG_EOP: FLASH End of Operation flag 
 924:libs/STM32F4xx_StdPeriph_Driver/src/stm32f4xx_flash.c ****   *            @arg FLASH_FLAG_OPERR: FLASH operation Error flag 
 925:libs/STM32F4xx_StdPeriph_Driver/src/stm32f4xx_flash.c ****   *            @arg FLASH_FLAG_WRPERR: FLASH Write protected error flag 
 926:libs/STM32F4xx_StdPeriph_Driver/src/stm32f4xx_flash.c ****   *            @arg FLASH_FLAG_PGAERR: FLASH Programming Alignment error flag
 927:libs/STM32F4xx_StdPeriph_Driver/src/stm32f4xx_flash.c ****   *            @arg FLASH_FLAG_PGPERR: FLASH Programming Parallelism error flag
 928:libs/STM32F4xx_StdPeriph_Driver/src/stm32f4xx_flash.c ****   *            @arg FLASH_FLAG_PGSERR: FLASH Programming Sequence error flag
 929:libs/STM32F4xx_StdPeriph_Driver/src/stm32f4xx_flash.c ****   *            @arg FLASH_FLAG_BSY: FLASH Busy flag
 930:libs/STM32F4xx_StdPeriph_Driver/src/stm32f4xx_flash.c ****   * @retval The new state of FLASH_FLAG (SET or RESET).
 931:libs/STM32F4xx_StdPeriph_Driver/src/stm32f4xx_flash.c ****   */
 932:libs/STM32F4xx_StdPeriph_Driver/src/stm32f4xx_flash.c **** FlagStatus FLASH_GetFlagStatus(uint32_t FLASH_FLAG)
 933:libs/STM32F4xx_StdPeriph_Driver/src/stm32f4xx_flash.c **** {
 479              		.loc 1 933 0
 480              		.cfi_startproc
 481              		@ args = 0, pretend = 0, frame = 0
 482              		@ frame_needed = 0, uses_anonymous_args = 0
 483              		@ link register save eliminated.
 484              	.LVL15:
 934:libs/STM32F4xx_StdPeriph_Driver/src/stm32f4xx_flash.c ****   FlagStatus bitstatus = RESET;
 935:libs/STM32F4xx_StdPeriph_Driver/src/stm32f4xx_flash.c ****   /* Check the parameters */
 936:libs/STM32F4xx_StdPeriph_Driver/src/stm32f4xx_flash.c ****   assert_param(IS_FLASH_GET_FLAG(FLASH_FLAG));
 937:libs/STM32F4xx_StdPeriph_Driver/src/stm32f4xx_flash.c **** 
 938:libs/STM32F4xx_StdPeriph_Driver/src/stm32f4xx_flash.c ****   if((FLASH->SR & FLASH_FLAG) != (uint32_t)RESET)
 485              		.loc 1 938 0
 486 0000 4FF47053 		mov	r3, #15360
 487 0004 C4F20203 		movt	r3, 16386
 488 0008 DB68     		ldr	r3, [r3, #12]
 489 000a 1840     		ands	r0, r0, r3
 490              	.LVL16:
 939:libs/STM32F4xx_StdPeriph_Driver/src/stm32f4xx_flash.c ****   {
 940:libs/STM32F4xx_StdPeriph_Driver/src/stm32f4xx_flash.c ****     bitstatus = SET;
 941:libs/STM32F4xx_StdPeriph_Driver/src/stm32f4xx_flash.c ****   }
 942:libs/STM32F4xx_StdPeriph_Driver/src/stm32f4xx_flash.c ****   else
 943:libs/STM32F4xx_StdPeriph_Driver/src/stm32f4xx_flash.c ****   {
 944:libs/STM32F4xx_StdPeriph_Driver/src/stm32f4xx_flash.c ****     bitstatus = RESET;
 945:libs/STM32F4xx_StdPeriph_Driver/src/stm32f4xx_flash.c ****   }
 946:libs/STM32F4xx_StdPeriph_Driver/src/stm32f4xx_flash.c ****   /* Return the new state of FLASH_FLAG (SET or RESET) */
 947:libs/STM32F4xx_StdPeriph_Driver/src/stm32f4xx_flash.c ****   return bitstatus; 
 948:libs/STM32F4xx_StdPeriph_Driver/src/stm32f4xx_flash.c **** }
 491              		.loc 1 948 0
 492 000c 0030     		adds	r0, r0, #0
 493 000e 18BF     		it	ne
 494 0010 0120     		movne	r0, #1
 495              	.LVL17:
 496 0012 7047     		bx	lr
 497              		.cfi_endproc
 498              	.LFE136:
 500              		.section	.text.FLASH_ClearFlag,"ax",%progbits
 501              		.align	2
 502              		.global	FLASH_ClearFlag
 503              		.thumb
 504              		.thumb_func
 506              	FLASH_ClearFlag:
 507              	.LFB137:
 949:libs/STM32F4xx_StdPeriph_Driver/src/stm32f4xx_flash.c **** 
 950:libs/STM32F4xx_StdPeriph_Driver/src/stm32f4xx_flash.c **** /**
 951:libs/STM32F4xx_StdPeriph_Driver/src/stm32f4xx_flash.c ****   * @brief  Clears the FLASH's pending flags.
 952:libs/STM32F4xx_StdPeriph_Driver/src/stm32f4xx_flash.c ****   * @param  FLASH_FLAG: specifies the FLASH flags to clear.
 953:libs/STM32F4xx_StdPeriph_Driver/src/stm32f4xx_flash.c ****   *          This parameter can be any combination of the following values:
 954:libs/STM32F4xx_StdPeriph_Driver/src/stm32f4xx_flash.c ****   *            @arg FLASH_FLAG_EOP: FLASH End of Operation flag 
 955:libs/STM32F4xx_StdPeriph_Driver/src/stm32f4xx_flash.c ****   *            @arg FLASH_FLAG_OPERR: FLASH operation Error flag 
 956:libs/STM32F4xx_StdPeriph_Driver/src/stm32f4xx_flash.c ****   *            @arg FLASH_FLAG_WRPERR: FLASH Write protected error flag 
 957:libs/STM32F4xx_StdPeriph_Driver/src/stm32f4xx_flash.c ****   *            @arg FLASH_FLAG_PGAERR: FLASH Programming Alignment error flag 
 958:libs/STM32F4xx_StdPeriph_Driver/src/stm32f4xx_flash.c ****   *            @arg FLASH_FLAG_PGPERR: FLASH Programming Parallelism error flag
 959:libs/STM32F4xx_StdPeriph_Driver/src/stm32f4xx_flash.c ****   *            @arg FLASH_FLAG_PGSERR: FLASH Programming Sequence error flag
 960:libs/STM32F4xx_StdPeriph_Driver/src/stm32f4xx_flash.c ****   * @retval None
 961:libs/STM32F4xx_StdPeriph_Driver/src/stm32f4xx_flash.c ****   */
 962:libs/STM32F4xx_StdPeriph_Driver/src/stm32f4xx_flash.c **** void FLASH_ClearFlag(uint32_t FLASH_FLAG)
 963:libs/STM32F4xx_StdPeriph_Driver/src/stm32f4xx_flash.c **** {
 508              		.loc 1 963 0
 509              		.cfi_startproc
 510              		@ args = 0, pretend = 0, frame = 0
 511              		@ frame_needed = 0, uses_anonymous_args = 0
 512              		@ link register save eliminated.
 513              	.LVL18:
 964:libs/STM32F4xx_StdPeriph_Driver/src/stm32f4xx_flash.c ****   /* Check the parameters */
 965:libs/STM32F4xx_StdPeriph_Driver/src/stm32f4xx_flash.c ****   assert_param(IS_FLASH_CLEAR_FLAG(FLASH_FLAG));
 966:libs/STM32F4xx_StdPeriph_Driver/src/stm32f4xx_flash.c ****   
 967:libs/STM32F4xx_StdPeriph_Driver/src/stm32f4xx_flash.c ****   /* Clear the flags */
 968:libs/STM32F4xx_StdPeriph_Driver/src/stm32f4xx_flash.c ****   FLASH->SR = FLASH_FLAG;
 514              		.loc 1 968 0
 515 0000 4FF47053 		mov	r3, #15360
 516 0004 C4F20203 		movt	r3, 16386
 517 0008 D860     		str	r0, [r3, #12]
 518 000a 7047     		bx	lr
 519              		.cfi_endproc
 520              	.LFE137:
 522              		.section	.text.FLASH_GetStatus,"ax",%progbits
 523              		.align	2
 524              		.global	FLASH_GetStatus
 525              		.thumb
 526              		.thumb_func
 528              	FLASH_GetStatus:
 529              	.LFB138:
 969:libs/STM32F4xx_StdPeriph_Driver/src/stm32f4xx_flash.c **** }
 970:libs/STM32F4xx_StdPeriph_Driver/src/stm32f4xx_flash.c **** 
 971:libs/STM32F4xx_StdPeriph_Driver/src/stm32f4xx_flash.c **** /**
 972:libs/STM32F4xx_StdPeriph_Driver/src/stm32f4xx_flash.c ****   * @brief  Returns the FLASH Status.
 973:libs/STM32F4xx_StdPeriph_Driver/src/stm32f4xx_flash.c ****   * @param  None
 974:libs/STM32F4xx_StdPeriph_Driver/src/stm32f4xx_flash.c ****   * @retval FLASH Status: The returned value can be: FLASH_BUSY, FLASH_ERROR_PROGRAM,
 975:libs/STM32F4xx_StdPeriph_Driver/src/stm32f4xx_flash.c ****   *                       FLASH_ERROR_WRP, FLASH_ERROR_OPERATION or FLASH_COMPLETE.
 976:libs/STM32F4xx_StdPeriph_Driver/src/stm32f4xx_flash.c ****   */
 977:libs/STM32F4xx_StdPeriph_Driver/src/stm32f4xx_flash.c **** FLASH_Status FLASH_GetStatus(void)
 978:libs/STM32F4xx_StdPeriph_Driver/src/stm32f4xx_flash.c **** {
 530              		.loc 1 978 0
 531              		.cfi_startproc
 532              		@ args = 0, pretend = 0, frame = 0
 533              		@ frame_needed = 0, uses_anonymous_args = 0
 534              		@ link register save eliminated.
 535              	.LVL19:
 979:libs/STM32F4xx_StdPeriph_Driver/src/stm32f4xx_flash.c ****   FLASH_Status flashstatus = FLASH_COMPLETE;
 980:libs/STM32F4xx_StdPeriph_Driver/src/stm32f4xx_flash.c ****   
 981:libs/STM32F4xx_StdPeriph_Driver/src/stm32f4xx_flash.c ****   if((FLASH->SR & FLASH_FLAG_BSY) == FLASH_FLAG_BSY) 
 536              		.loc 1 981 0
 537 0000 4FF47053 		mov	r3, #15360
 538 0004 C4F20203 		movt	r3, 16386
 539 0008 DB68     		ldr	r3, [r3, #12]
 540 000a 13F4803F 		tst	r3, #65536
 541 000e 1BD1     		bne	.L35
 982:libs/STM32F4xx_StdPeriph_Driver/src/stm32f4xx_flash.c ****   {
 983:libs/STM32F4xx_StdPeriph_Driver/src/stm32f4xx_flash.c ****     flashstatus = FLASH_BUSY;
 984:libs/STM32F4xx_StdPeriph_Driver/src/stm32f4xx_flash.c ****   }
 985:libs/STM32F4xx_StdPeriph_Driver/src/stm32f4xx_flash.c ****   else 
 986:libs/STM32F4xx_StdPeriph_Driver/src/stm32f4xx_flash.c ****   {  
 987:libs/STM32F4xx_StdPeriph_Driver/src/stm32f4xx_flash.c ****     if((FLASH->SR & FLASH_FLAG_WRPERR) != (uint32_t)0x00)
 542              		.loc 1 987 0
 543 0010 4FF47053 		mov	r3, #15360
 544 0014 C4F20203 		movt	r3, 16386
 545 0018 DB68     		ldr	r3, [r3, #12]
 546 001a 13F0100F 		tst	r3, #16
 547 001e 15D1     		bne	.L36
 988:libs/STM32F4xx_StdPeriph_Driver/src/stm32f4xx_flash.c ****     { 
 989:libs/STM32F4xx_StdPeriph_Driver/src/stm32f4xx_flash.c ****       flashstatus = FLASH_ERROR_WRP;
 990:libs/STM32F4xx_StdPeriph_Driver/src/stm32f4xx_flash.c ****     }
 991:libs/STM32F4xx_StdPeriph_Driver/src/stm32f4xx_flash.c ****     else 
 992:libs/STM32F4xx_StdPeriph_Driver/src/stm32f4xx_flash.c ****     {
 993:libs/STM32F4xx_StdPeriph_Driver/src/stm32f4xx_flash.c ****       if((FLASH->SR & (uint32_t)0xEF) != (uint32_t)0x00)
 548              		.loc 1 993 0
 549 0020 4FF47053 		mov	r3, #15360
 550 0024 C4F20203 		movt	r3, 16386
 551 0028 DB68     		ldr	r3, [r3, #12]
 552 002a 13F0EF0F 		tst	r3, #239
 553 002e 0FD1     		bne	.L37
 994:libs/STM32F4xx_StdPeriph_Driver/src/stm32f4xx_flash.c ****       {
 995:libs/STM32F4xx_StdPeriph_Driver/src/stm32f4xx_flash.c ****         flashstatus = FLASH_ERROR_PROGRAM; 
 996:libs/STM32F4xx_StdPeriph_Driver/src/stm32f4xx_flash.c ****       }
 997:libs/STM32F4xx_StdPeriph_Driver/src/stm32f4xx_flash.c ****       else
 998:libs/STM32F4xx_StdPeriph_Driver/src/stm32f4xx_flash.c ****       {
 999:libs/STM32F4xx_StdPeriph_Driver/src/stm32f4xx_flash.c ****         if((FLASH->SR & FLASH_FLAG_OPERR) != (uint32_t)0x00)
 554              		.loc 1 999 0
 555 0030 4FF47053 		mov	r3, #15360
 556 0034 C4F20203 		movt	r3, 16386
 557 0038 D868     		ldr	r0, [r3, #12]
 558 003a 00F00200 		and	r0, r0, #2
1000:libs/STM32F4xx_StdPeriph_Driver/src/stm32f4xx_flash.c ****         {
1001:libs/STM32F4xx_StdPeriph_Driver/src/stm32f4xx_flash.c ****           flashstatus = FLASH_ERROR_OPERATION;
 559              		.loc 1 1001 0
 560 003e 0028     		cmp	r0, #0
 561 0040 0CBF     		ite	eq
 562 0042 0820     		moveq	r0, #8
 563 0044 0720     		movne	r0, #7
 564 0046 7047     		bx	lr
 565              	.L35:
 983:libs/STM32F4xx_StdPeriph_Driver/src/stm32f4xx_flash.c ****   }
 566              		.loc 1 983 0
 567 0048 0120     		movs	r0, #1
 568 004a 7047     		bx	lr
 569              	.L36:
 989:libs/STM32F4xx_StdPeriph_Driver/src/stm32f4xx_flash.c ****     }
 570              		.loc 1 989 0
 571 004c 0520     		movs	r0, #5
 572 004e 7047     		bx	lr
 573              	.L37:
 995:libs/STM32F4xx_StdPeriph_Driver/src/stm32f4xx_flash.c ****       }
 574              		.loc 1 995 0
 575 0050 0620     		movs	r0, #6
 576              	.LVL20:
1002:libs/STM32F4xx_StdPeriph_Driver/src/stm32f4xx_flash.c ****         }
1003:libs/STM32F4xx_StdPeriph_Driver/src/stm32f4xx_flash.c ****         else
1004:libs/STM32F4xx_StdPeriph_Driver/src/stm32f4xx_flash.c ****         {
1005:libs/STM32F4xx_StdPeriph_Driver/src/stm32f4xx_flash.c ****           flashstatus = FLASH_COMPLETE;
1006:libs/STM32F4xx_StdPeriph_Driver/src/stm32f4xx_flash.c ****         }
1007:libs/STM32F4xx_StdPeriph_Driver/src/stm32f4xx_flash.c ****       }
1008:libs/STM32F4xx_StdPeriph_Driver/src/stm32f4xx_flash.c ****     }
1009:libs/STM32F4xx_StdPeriph_Driver/src/stm32f4xx_flash.c ****   }
1010:libs/STM32F4xx_StdPeriph_Driver/src/stm32f4xx_flash.c ****   /* Return the FLASH Status */
1011:libs/STM32F4xx_StdPeriph_Driver/src/stm32f4xx_flash.c ****   return flashstatus;
1012:libs/STM32F4xx_StdPeriph_Driver/src/stm32f4xx_flash.c **** }
 577              		.loc 1 1012 0
 578 0052 7047     		bx	lr
 579              		.cfi_endproc
 580              	.LFE138:
 582              		.section	.text.FLASH_WaitForLastOperation,"ax",%progbits
 583              		.align	2
 584              		.global	FLASH_WaitForLastOperation
 585              		.thumb
 586              		.thumb_func
 588              	FLASH_WaitForLastOperation:
 589              	.LFB139:
1013:libs/STM32F4xx_StdPeriph_Driver/src/stm32f4xx_flash.c **** 
1014:libs/STM32F4xx_StdPeriph_Driver/src/stm32f4xx_flash.c **** /**
1015:libs/STM32F4xx_StdPeriph_Driver/src/stm32f4xx_flash.c ****   * @brief  Waits for a FLASH operation to complete.
1016:libs/STM32F4xx_StdPeriph_Driver/src/stm32f4xx_flash.c ****   * @param  None
1017:libs/STM32F4xx_StdPeriph_Driver/src/stm32f4xx_flash.c ****   * @retval FLASH Status: The returned value can be: FLASH_BUSY, FLASH_ERROR_PROGRAM,
1018:libs/STM32F4xx_StdPeriph_Driver/src/stm32f4xx_flash.c ****   *                       FLASH_ERROR_WRP, FLASH_ERROR_OPERATION or FLASH_COMPLETE.
1019:libs/STM32F4xx_StdPeriph_Driver/src/stm32f4xx_flash.c ****   */
1020:libs/STM32F4xx_StdPeriph_Driver/src/stm32f4xx_flash.c **** FLASH_Status FLASH_WaitForLastOperation(void)
1021:libs/STM32F4xx_StdPeriph_Driver/src/stm32f4xx_flash.c **** { 
 590              		.loc 1 1021 0
 591              		.cfi_startproc
 592              		@ args = 0, pretend = 0, frame = 8
 593              		@ frame_needed = 0, uses_anonymous_args = 0
 594 0000 00B5     		push	{lr}
 595              	.LCFI0:
 596              		.cfi_def_cfa_offset 4
 597              		.cfi_offset 14, -4
 598 0002 83B0     		sub	sp, sp, #12
 599              	.LCFI1:
 600              		.cfi_def_cfa_offset 16
1022:libs/STM32F4xx_StdPeriph_Driver/src/stm32f4xx_flash.c ****   __IO FLASH_Status status = FLASH_COMPLETE;
 601              		.loc 1 1022 0
 602 0004 0823     		movs	r3, #8
 603 0006 8DF80730 		strb	r3, [sp, #7]
1023:libs/STM32F4xx_StdPeriph_Driver/src/stm32f4xx_flash.c ****    
1024:libs/STM32F4xx_StdPeriph_Driver/src/stm32f4xx_flash.c ****   /* Check for the FLASH Status */
1025:libs/STM32F4xx_StdPeriph_Driver/src/stm32f4xx_flash.c ****   status = FLASH_GetStatus();
 604              		.loc 1 1025 0
 605 000a FFF7FEFF 		bl	FLASH_GetStatus
 606              	.LVL21:
 607 000e 8DF80700 		strb	r0, [sp, #7]
1026:libs/STM32F4xx_StdPeriph_Driver/src/stm32f4xx_flash.c **** 
1027:libs/STM32F4xx_StdPeriph_Driver/src/stm32f4xx_flash.c ****   /* Wait for the FLASH operation to complete by polling on BUSY flag to be reset.
1028:libs/STM32F4xx_StdPeriph_Driver/src/stm32f4xx_flash.c ****      Even if the FLASH operation fails, the BUSY flag will be reset and an error
1029:libs/STM32F4xx_StdPeriph_Driver/src/stm32f4xx_flash.c ****      flag will be set */
1030:libs/STM32F4xx_StdPeriph_Driver/src/stm32f4xx_flash.c ****   while(status == FLASH_BUSY)
 608              		.loc 1 1030 0
 609 0012 03E0     		b	.L40
 610              	.L41:
1031:libs/STM32F4xx_StdPeriph_Driver/src/stm32f4xx_flash.c ****   {
1032:libs/STM32F4xx_StdPeriph_Driver/src/stm32f4xx_flash.c ****     status = FLASH_GetStatus();
 611              		.loc 1 1032 0
 612 0014 FFF7FEFF 		bl	FLASH_GetStatus
 613              	.LVL22:
 614 0018 8DF80700 		strb	r0, [sp, #7]
 615              	.L40:
1030:libs/STM32F4xx_StdPeriph_Driver/src/stm32f4xx_flash.c ****   {
 616              		.loc 1 1030 0 discriminator 1
 617 001c 9DF80730 		ldrb	r3, [sp, #7]	@ zero_extendqisi2
 618 0020 DBB2     		uxtb	r3, r3
 619 0022 012B     		cmp	r3, #1
 620 0024 F6D0     		beq	.L41
1033:libs/STM32F4xx_StdPeriph_Driver/src/stm32f4xx_flash.c ****   }
1034:libs/STM32F4xx_StdPeriph_Driver/src/stm32f4xx_flash.c ****   /* Return the operation status */
1035:libs/STM32F4xx_StdPeriph_Driver/src/stm32f4xx_flash.c ****   return status;
 621              		.loc 1 1035 0
 622 0026 9DF80700 		ldrb	r0, [sp, #7]	@ zero_extendqisi2
1036:libs/STM32F4xx_StdPeriph_Driver/src/stm32f4xx_flash.c **** }
 623              		.loc 1 1036 0
 624 002a 03B0     		add	sp, sp, #12
 625              		@ sp needed
 626 002c 5DF804FB 		ldr	pc, [sp], #4
 627              		.cfi_endproc
 628              	.LFE139:
 630              		.section	.text.FLASH_EraseSector,"ax",%progbits
 631              		.align	2
 632              		.global	FLASH_EraseSector
 633              		.thumb
 634              		.thumb_func
 636              	FLASH_EraseSector:
 637              	.LFB118:
 340:libs/STM32F4xx_StdPeriph_Driver/src/stm32f4xx_flash.c ****   uint32_t tmp_psize = 0x0;
 638              		.loc 1 340 0
 639              		.cfi_startproc
 640              		@ args = 0, pretend = 0, frame = 0
 641              		@ frame_needed = 0, uses_anonymous_args = 0
 642              	.LVL23:
 643 0000 70B5     		push	{r4, r5, r6, lr}
 644              	.LCFI2:
 645              		.cfi_def_cfa_offset 16
 646              		.cfi_offset 4, -16
 647              		.cfi_offset 5, -12
 648              		.cfi_offset 6, -8
 649              		.cfi_offset 14, -4
 650 0002 0546     		mov	r5, r0
 651              	.LVL24:
 350:libs/STM32F4xx_StdPeriph_Driver/src/stm32f4xx_flash.c ****   }
 652              		.loc 1 350 0
 653 0004 0026     		movs	r6, #0
 348:libs/STM32F4xx_StdPeriph_Driver/src/stm32f4xx_flash.c ****   {
 654              		.loc 1 348 0
 655 0006 59B1     		cbz	r1, .L43
 352:libs/STM32F4xx_StdPeriph_Driver/src/stm32f4xx_flash.c ****   {
 656              		.loc 1 352 0
 657 0008 0129     		cmp	r1, #1
 354:libs/STM32F4xx_StdPeriph_Driver/src/stm32f4xx_flash.c ****   }
 658              		.loc 1 354 0
 659 000a 08BF     		it	eq
 660 000c 4FF48076 		moveq	r6, #256
 352:libs/STM32F4xx_StdPeriph_Driver/src/stm32f4xx_flash.c ****   {
 661              		.loc 1 352 0
 662 0010 06D0     		beq	.L43
 358:libs/STM32F4xx_StdPeriph_Driver/src/stm32f4xx_flash.c ****   }
 663              		.loc 1 358 0
 664 0012 0229     		cmp	r1, #2
 665 0014 14BF     		ite	ne
 666 0016 4FF44076 		movne	r6, #768
 667 001a 4FF40076 		moveq	r6, #512
 668 001e FFE7     		b	.L43
 669              	.L43:
 670              	.LVL25:
 365:libs/STM32F4xx_StdPeriph_Driver/src/stm32f4xx_flash.c ****   
 671              		.loc 1 365 0
 672 0020 FFF7FEFF 		bl	FLASH_WaitForLastOperation
 673              	.LVL26:
 367:libs/STM32F4xx_StdPeriph_Driver/src/stm32f4xx_flash.c ****   { 
 674              		.loc 1 367 0
 675 0024 0828     		cmp	r0, #8
 676 0026 21D1     		bne	.L44
 370:libs/STM32F4xx_StdPeriph_Driver/src/stm32f4xx_flash.c ****     FLASH->CR |= tmp_psize;
 677              		.loc 1 370 0
 678 0028 4FF47054 		mov	r4, #15360
 679 002c C4F20204 		movt	r4, 16386
 680 0030 2369     		ldr	r3, [r4, #16]
 681 0032 23F44073 		bic	r3, r3, #768
 682 0036 2361     		str	r3, [r4, #16]
 371:libs/STM32F4xx_StdPeriph_Driver/src/stm32f4xx_flash.c ****     FLASH->CR &= SECTOR_MASK;
 683              		.loc 1 371 0
 684 0038 2369     		ldr	r3, [r4, #16]
 685 003a 1E43     		orrs	r6, r6, r3
 686              	.LVL27:
 687 003c 2661     		str	r6, [r4, #16]
 372:libs/STM32F4xx_StdPeriph_Driver/src/stm32f4xx_flash.c ****     FLASH->CR |= FLASH_CR_SER | FLASH_Sector;
 688              		.loc 1 372 0
 689 003e 2369     		ldr	r3, [r4, #16]
 690 0040 23F0F803 		bic	r3, r3, #248
 691 0044 2361     		str	r3, [r4, #16]
 373:libs/STM32F4xx_StdPeriph_Driver/src/stm32f4xx_flash.c ****     FLASH->CR |= FLASH_CR_STRT;
 692              		.loc 1 373 0
 693 0046 2369     		ldr	r3, [r4, #16]
 694 0048 1D43     		orrs	r5, r5, r3
 695              	.LVL28:
 696 004a 45F00205 		orr	r5, r5, #2
 697 004e 2561     		str	r5, [r4, #16]
 374:libs/STM32F4xx_StdPeriph_Driver/src/stm32f4xx_flash.c ****     
 698              		.loc 1 374 0
 699 0050 2369     		ldr	r3, [r4, #16]
 700 0052 43F48033 		orr	r3, r3, #65536
 701 0056 2361     		str	r3, [r4, #16]
 377:libs/STM32F4xx_StdPeriph_Driver/src/stm32f4xx_flash.c ****     
 702              		.loc 1 377 0
 703 0058 FFF7FEFF 		bl	FLASH_WaitForLastOperation
 704              	.LVL29:
 380:libs/STM32F4xx_StdPeriph_Driver/src/stm32f4xx_flash.c ****     FLASH->CR &= SECTOR_MASK; 
 705              		.loc 1 380 0
 706 005c 2369     		ldr	r3, [r4, #16]
 707 005e 23F00203 		bic	r3, r3, #2
 708 0062 2361     		str	r3, [r4, #16]
 381:libs/STM32F4xx_StdPeriph_Driver/src/stm32f4xx_flash.c ****   }
 709              		.loc 1 381 0
 710 0064 2369     		ldr	r3, [r4, #16]
 711 0066 23F0F803 		bic	r3, r3, #248
 712 006a 2361     		str	r3, [r4, #16]
 713              	.LVL30:
 714              	.L44:
 385:libs/STM32F4xx_StdPeriph_Driver/src/stm32f4xx_flash.c **** 
 715              		.loc 1 385 0
 716 006c 70BD     		pop	{r4, r5, r6, pc}
 717              		.cfi_endproc
 718              	.LFE118:
 720 006e 00BF     		.section	.text.FLASH_EraseAllSectors,"ax",%progbits
 721              		.align	2
 722              		.global	FLASH_EraseAllSectors
 723              		.thumb
 724              		.thumb_func
 726              	FLASH_EraseAllSectors:
 727              	.LFB119:
 405:libs/STM32F4xx_StdPeriph_Driver/src/stm32f4xx_flash.c ****   uint32_t tmp_psize = 0x0;
 728              		.loc 1 405 0
 729              		.cfi_startproc
 730              		@ args = 0, pretend = 0, frame = 0
 731              		@ frame_needed = 0, uses_anonymous_args = 0
 732              	.LVL31:
 733 0000 38B5     		push	{r3, r4, r5, lr}
 734              	.LCFI3:
 735              		.cfi_def_cfa_offset 16
 736              		.cfi_offset 3, -16
 737              		.cfi_offset 4, -12
 738              		.cfi_offset 5, -8
 739              		.cfi_offset 14, -4
 740 0002 0446     		mov	r4, r0
 741              	.LVL32:
 410:libs/STM32F4xx_StdPeriph_Driver/src/stm32f4xx_flash.c ****   assert_param(IS_VOLTAGERANGE(VoltageRange));
 742              		.loc 1 410 0
 743 0004 FFF7FEFF 		bl	FLASH_WaitForLastOperation
 744              	.LVL33:
 413:libs/STM32F4xx_StdPeriph_Driver/src/stm32f4xx_flash.c ****   {
 745              		.loc 1 413 0
 746 0008 5CB1     		cbz	r4, .L51
 417:libs/STM32F4xx_StdPeriph_Driver/src/stm32f4xx_flash.c ****   {
 747              		.loc 1 417 0
 748 000a 012C     		cmp	r4, #1
 419:libs/STM32F4xx_StdPeriph_Driver/src/stm32f4xx_flash.c ****   }
 749              		.loc 1 419 0
 750 000c 08BF     		it	eq
 751 000e 4FF48074 		moveq	r4, #256
 417:libs/STM32F4xx_StdPeriph_Driver/src/stm32f4xx_flash.c ****   {
 752              		.loc 1 417 0
 753 0012 08D0     		beq	.L49
 423:libs/STM32F4xx_StdPeriph_Driver/src/stm32f4xx_flash.c ****   }
 754              		.loc 1 423 0
 755 0014 022C     		cmp	r4, #2
 756 0016 14BF     		ite	ne
 757 0018 4FF44074 		movne	r4, #768
 758 001c 4FF40074 		moveq	r4, #512
 759 0020 01E0     		b	.L49
 760              	.L51:
 415:libs/STM32F4xx_StdPeriph_Driver/src/stm32f4xx_flash.c ****   }
 761              		.loc 1 415 0
 762 0022 0024     		movs	r4, #0
 763 0024 FFE7     		b	.L49
 764              	.L49:
 765              	.LVL34:
 429:libs/STM32F4xx_StdPeriph_Driver/src/stm32f4xx_flash.c ****   {
 766              		.loc 1 429 0
 767 0026 0828     		cmp	r0, #8
 768 0028 18D1     		bne	.L50
 432:libs/STM32F4xx_StdPeriph_Driver/src/stm32f4xx_flash.c ****      FLASH->CR |= tmp_psize;
 769              		.loc 1 432 0
 770 002a 4FF47055 		mov	r5, #15360
 771 002e C4F20205 		movt	r5, 16386
 772 0032 2B69     		ldr	r3, [r5, #16]
 773 0034 23F44073 		bic	r3, r3, #768
 774 0038 2B61     		str	r3, [r5, #16]
 433:libs/STM32F4xx_StdPeriph_Driver/src/stm32f4xx_flash.c ****      FLASH->CR |= FLASH_CR_MER;
 775              		.loc 1 433 0
 776 003a 2B69     		ldr	r3, [r5, #16]
 777 003c 1C43     		orrs	r4, r4, r3
 778              	.LVL35:
 779 003e 2C61     		str	r4, [r5, #16]
 434:libs/STM32F4xx_StdPeriph_Driver/src/stm32f4xx_flash.c ****      FLASH->CR |= FLASH_CR_STRT;
 780              		.loc 1 434 0
 781 0040 2B69     		ldr	r3, [r5, #16]
 782 0042 43F00403 		orr	r3, r3, #4
 783 0046 2B61     		str	r3, [r5, #16]
 435:libs/STM32F4xx_StdPeriph_Driver/src/stm32f4xx_flash.c ****     
 784              		.loc 1 435 0
 785 0048 2B69     		ldr	r3, [r5, #16]
 786 004a 43F48033 		orr	r3, r3, #65536
 787 004e 2B61     		str	r3, [r5, #16]
 438:libs/STM32F4xx_StdPeriph_Driver/src/stm32f4xx_flash.c **** 
 788              		.loc 1 438 0
 789 0050 FFF7FEFF 		bl	FLASH_WaitForLastOperation
 790              	.LVL36:
 441:libs/STM32F4xx_StdPeriph_Driver/src/stm32f4xx_flash.c **** 
 791              		.loc 1 441 0
 792 0054 2B69     		ldr	r3, [r5, #16]
 793 0056 23F00403 		bic	r3, r3, #4
 794 005a 2B61     		str	r3, [r5, #16]
 795              	.LVL37:
 796              	.L50:
 446:libs/STM32F4xx_StdPeriph_Driver/src/stm32f4xx_flash.c **** 
 797              		.loc 1 446 0
 798 005c 38BD     		pop	{r3, r4, r5, pc}
 799              		.cfi_endproc
 800              	.LFE119:
 802 005e 00BF     		.section	.text.FLASH_ProgramDoubleWord,"ax",%progbits
 803              		.align	2
 804              		.global	FLASH_ProgramDoubleWord
 805              		.thumb
 806              		.thumb_func
 808              	FLASH_ProgramDoubleWord:
 809              	.LFB120:
 458:libs/STM32F4xx_StdPeriph_Driver/src/stm32f4xx_flash.c ****   FLASH_Status status = FLASH_COMPLETE;
 810              		.loc 1 458 0
 811              		.cfi_startproc
 812              		@ args = 0, pretend = 0, frame = 0
 813              		@ frame_needed = 0, uses_anonymous_args = 0
 814              	.LVL38:
 815 0000 F8B5     		push	{r3, r4, r5, r6, r7, lr}
 816              	.LCFI4:
 817              		.cfi_def_cfa_offset 24
 818              		.cfi_offset 3, -24
 819              		.cfi_offset 4, -20
 820              		.cfi_offset 5, -16
 821              		.cfi_offset 6, -12
 822              		.cfi_offset 7, -8
 823              		.cfi_offset 14, -4
 824 0002 0746     		mov	r7, r0
 825 0004 1446     		mov	r4, r2
 826 0006 1D46     		mov	r5, r3
 827              	.LVL39:
 465:libs/STM32F4xx_StdPeriph_Driver/src/stm32f4xx_flash.c ****   
 828              		.loc 1 465 0
 829 0008 FFF7FEFF 		bl	FLASH_WaitForLastOperation
 830              	.LVL40:
 467:libs/STM32F4xx_StdPeriph_Driver/src/stm32f4xx_flash.c ****   {
 831              		.loc 1 467 0
 832 000c 0828     		cmp	r0, #8
 833 000e 17D1     		bne	.L55
 470:libs/STM32F4xx_StdPeriph_Driver/src/stm32f4xx_flash.c ****     FLASH->CR |= FLASH_PSIZE_DOUBLE_WORD;
 834              		.loc 1 470 0
 835 0010 4FF47056 		mov	r6, #15360
 836 0014 C4F20206 		movt	r6, 16386
 837 0018 3369     		ldr	r3, [r6, #16]
 838 001a 23F44073 		bic	r3, r3, #768
 839 001e 3361     		str	r3, [r6, #16]
 471:libs/STM32F4xx_StdPeriph_Driver/src/stm32f4xx_flash.c ****     FLASH->CR |= FLASH_CR_PG;
 840              		.loc 1 471 0
 841 0020 3369     		ldr	r3, [r6, #16]
 842 0022 43F44073 		orr	r3, r3, #768
 843 0026 3361     		str	r3, [r6, #16]
 472:libs/STM32F4xx_StdPeriph_Driver/src/stm32f4xx_flash.c ****   
 844              		.loc 1 472 0
 845 0028 3369     		ldr	r3, [r6, #16]
 846 002a 43F00103 		orr	r3, r3, #1
 847 002e 3361     		str	r3, [r6, #16]
 474:libs/STM32F4xx_StdPeriph_Driver/src/stm32f4xx_flash.c ****         
 848              		.loc 1 474 0
 849 0030 C7E90045 		strd	r4, [r7]
 477:libs/STM32F4xx_StdPeriph_Driver/src/stm32f4xx_flash.c **** 
 850              		.loc 1 477 0
 851 0034 FFF7FEFF 		bl	FLASH_WaitForLastOperation
 852              	.LVL41:
 480:libs/STM32F4xx_StdPeriph_Driver/src/stm32f4xx_flash.c ****   } 
 853              		.loc 1 480 0
 854 0038 3369     		ldr	r3, [r6, #16]
 855 003a 23F00103 		bic	r3, r3, #1
 856 003e 3361     		str	r3, [r6, #16]
 857              	.LVL42:
 858              	.L55:
 484:libs/STM32F4xx_StdPeriph_Driver/src/stm32f4xx_flash.c **** 
 859              		.loc 1 484 0
 860 0040 F8BD     		pop	{r3, r4, r5, r6, r7, pc}
 861              		.cfi_endproc
 862              	.LFE120:
 864 0042 00BF     		.section	.text.FLASH_ProgramWord,"ax",%progbits
 865              		.align	2
 866              		.global	FLASH_ProgramWord
 867              		.thumb
 868              		.thumb_func
 870              	FLASH_ProgramWord:
 871              	.LFB121:
 496:libs/STM32F4xx_StdPeriph_Driver/src/stm32f4xx_flash.c ****   FLASH_Status status = FLASH_COMPLETE;
 872              		.loc 1 496 0
 873              		.cfi_startproc
 874              		@ args = 0, pretend = 0, frame = 0
 875              		@ frame_needed = 0, uses_anonymous_args = 0
 876              	.LVL43:
 877 0000 70B5     		push	{r4, r5, r6, lr}
 878              	.LCFI5:
 879              		.cfi_def_cfa_offset 16
 880              		.cfi_offset 4, -16
 881              		.cfi_offset 5, -12
 882              		.cfi_offset 6, -8
 883              		.cfi_offset 14, -4
 884 0002 0546     		mov	r5, r0
 885 0004 0E46     		mov	r6, r1
 886              	.LVL44:
 503:libs/STM32F4xx_StdPeriph_Driver/src/stm32f4xx_flash.c ****   
 887              		.loc 1 503 0
 888 0006 FFF7FEFF 		bl	FLASH_WaitForLastOperation
 889              	.LVL45:
 505:libs/STM32F4xx_StdPeriph_Driver/src/stm32f4xx_flash.c ****   {
 890              		.loc 1 505 0
 891 000a 0828     		cmp	r0, #8
 892 000c 16D1     		bne	.L57
 508:libs/STM32F4xx_StdPeriph_Driver/src/stm32f4xx_flash.c ****     FLASH->CR |= FLASH_PSIZE_WORD;
 893              		.loc 1 508 0
 894 000e 4FF47054 		mov	r4, #15360
 895 0012 C4F20204 		movt	r4, 16386
 896 0016 2369     		ldr	r3, [r4, #16]
 897 0018 23F44073 		bic	r3, r3, #768
 898 001c 2361     		str	r3, [r4, #16]
 509:libs/STM32F4xx_StdPeriph_Driver/src/stm32f4xx_flash.c ****     FLASH->CR |= FLASH_CR_PG;
 899              		.loc 1 509 0
 900 001e 2369     		ldr	r3, [r4, #16]
 901 0020 43F40073 		orr	r3, r3, #512
 902 0024 2361     		str	r3, [r4, #16]
 510:libs/STM32F4xx_StdPeriph_Driver/src/stm32f4xx_flash.c ****   
 903              		.loc 1 510 0
 904 0026 2369     		ldr	r3, [r4, #16]
 905 0028 43F00103 		orr	r3, r3, #1
 906 002c 2361     		str	r3, [r4, #16]
 512:libs/STM32F4xx_StdPeriph_Driver/src/stm32f4xx_flash.c ****         
 907              		.loc 1 512 0
 908 002e 2E60     		str	r6, [r5]
 515:libs/STM32F4xx_StdPeriph_Driver/src/stm32f4xx_flash.c **** 
 909              		.loc 1 515 0
 910 0030 FFF7FEFF 		bl	FLASH_WaitForLastOperation
 911              	.LVL46:
 518:libs/STM32F4xx_StdPeriph_Driver/src/stm32f4xx_flash.c ****   } 
 912              		.loc 1 518 0
 913 0034 2369     		ldr	r3, [r4, #16]
 914 0036 23F00103 		bic	r3, r3, #1
 915 003a 2361     		str	r3, [r4, #16]
 916              	.LVL47:
 917              	.L57:
 522:libs/STM32F4xx_StdPeriph_Driver/src/stm32f4xx_flash.c **** 
 918              		.loc 1 522 0
 919 003c 70BD     		pop	{r4, r5, r6, pc}
 920              		.cfi_endproc
 921              	.LFE121:
 923 003e 00BF     		.section	.text.FLASH_ProgramHalfWord,"ax",%progbits
 924              		.align	2
 925              		.global	FLASH_ProgramHalfWord
 926              		.thumb
 927              		.thumb_func
 929              	FLASH_ProgramHalfWord:
 930              	.LFB122:
 534:libs/STM32F4xx_StdPeriph_Driver/src/stm32f4xx_flash.c ****   FLASH_Status status = FLASH_COMPLETE;
 931              		.loc 1 534 0
 932              		.cfi_startproc
 933              		@ args = 0, pretend = 0, frame = 0
 934              		@ frame_needed = 0, uses_anonymous_args = 0
 935              	.LVL48:
 936 0000 70B5     		push	{r4, r5, r6, lr}
 937              	.LCFI6:
 938              		.cfi_def_cfa_offset 16
 939              		.cfi_offset 4, -16
 940              		.cfi_offset 5, -12
 941              		.cfi_offset 6, -8
 942              		.cfi_offset 14, -4
 943 0002 0546     		mov	r5, r0
 944 0004 0E46     		mov	r6, r1
 945              	.LVL49:
 541:libs/STM32F4xx_StdPeriph_Driver/src/stm32f4xx_flash.c ****   
 946              		.loc 1 541 0
 947 0006 FFF7FEFF 		bl	FLASH_WaitForLastOperation
 948              	.LVL50:
 543:libs/STM32F4xx_StdPeriph_Driver/src/stm32f4xx_flash.c ****   {
 949              		.loc 1 543 0
 950 000a 0828     		cmp	r0, #8
 951 000c 16D1     		bne	.L59
 546:libs/STM32F4xx_StdPeriph_Driver/src/stm32f4xx_flash.c ****     FLASH->CR |= FLASH_PSIZE_HALF_WORD;
 952              		.loc 1 546 0
 953 000e 4FF47054 		mov	r4, #15360
 954 0012 C4F20204 		movt	r4, 16386
 955 0016 2369     		ldr	r3, [r4, #16]
 956 0018 23F44073 		bic	r3, r3, #768
 957 001c 2361     		str	r3, [r4, #16]
 547:libs/STM32F4xx_StdPeriph_Driver/src/stm32f4xx_flash.c ****     FLASH->CR |= FLASH_CR_PG;
 958              		.loc 1 547 0
 959 001e 2369     		ldr	r3, [r4, #16]
 960 0020 43F48073 		orr	r3, r3, #256
 961 0024 2361     		str	r3, [r4, #16]
 548:libs/STM32F4xx_StdPeriph_Driver/src/stm32f4xx_flash.c ****   
 962              		.loc 1 548 0
 963 0026 2369     		ldr	r3, [r4, #16]
 964 0028 43F00103 		orr	r3, r3, #1
 965 002c 2361     		str	r3, [r4, #16]
 550:libs/STM32F4xx_StdPeriph_Driver/src/stm32f4xx_flash.c ****         
 966              		.loc 1 550 0
 967 002e 2E80     		strh	r6, [r5]	@ movhi
 553:libs/STM32F4xx_StdPeriph_Driver/src/stm32f4xx_flash.c **** 
 968              		.loc 1 553 0
 969 0030 FFF7FEFF 		bl	FLASH_WaitForLastOperation
 970              	.LVL51:
 556:libs/STM32F4xx_StdPeriph_Driver/src/stm32f4xx_flash.c ****   } 
 971              		.loc 1 556 0
 972 0034 2369     		ldr	r3, [r4, #16]
 973 0036 23F00103 		bic	r3, r3, #1
 974 003a 2361     		str	r3, [r4, #16]
 975              	.LVL52:
 976              	.L59:
 560:libs/STM32F4xx_StdPeriph_Driver/src/stm32f4xx_flash.c **** 
 977              		.loc 1 560 0
 978 003c 70BD     		pop	{r4, r5, r6, pc}
 979              		.cfi_endproc
 980              	.LFE122:
 982 003e 00BF     		.section	.text.FLASH_ProgramByte,"ax",%progbits
 983              		.align	2
 984              		.global	FLASH_ProgramByte
 985              		.thumb
 986              		.thumb_func
 988              	FLASH_ProgramByte:
 989              	.LFB123:
 572:libs/STM32F4xx_StdPeriph_Driver/src/stm32f4xx_flash.c ****   FLASH_Status status = FLASH_COMPLETE;
 990              		.loc 1 572 0
 991              		.cfi_startproc
 992              		@ args = 0, pretend = 0, frame = 0
 993              		@ frame_needed = 0, uses_anonymous_args = 0
 994              	.LVL53:
 995 0000 70B5     		push	{r4, r5, r6, lr}
 996              	.LCFI7:
 997              		.cfi_def_cfa_offset 16
 998              		.cfi_offset 4, -16
 999              		.cfi_offset 5, -12
 1000              		.cfi_offset 6, -8
 1001              		.cfi_offset 14, -4
 1002 0002 0546     		mov	r5, r0
 1003 0004 0E46     		mov	r6, r1
 1004              	.LVL54:
 579:libs/STM32F4xx_StdPeriph_Driver/src/stm32f4xx_flash.c ****   
 1005              		.loc 1 579 0
 1006 0006 FFF7FEFF 		bl	FLASH_WaitForLastOperation
 1007              	.LVL55:
 581:libs/STM32F4xx_StdPeriph_Driver/src/stm32f4xx_flash.c ****   {
 1008              		.loc 1 581 0
 1009 000a 0828     		cmp	r0, #8
 1010 000c 14D1     		bne	.L61
 584:libs/STM32F4xx_StdPeriph_Driver/src/stm32f4xx_flash.c ****     FLASH->CR |= FLASH_PSIZE_BYTE;
 1011              		.loc 1 584 0
 1012 000e 4FF47054 		mov	r4, #15360
 1013 0012 C4F20204 		movt	r4, 16386
 1014 0016 2369     		ldr	r3, [r4, #16]
 1015 0018 23F44073 		bic	r3, r3, #768
 1016 001c 2361     		str	r3, [r4, #16]
 585:libs/STM32F4xx_StdPeriph_Driver/src/stm32f4xx_flash.c ****     FLASH->CR |= FLASH_CR_PG;
 1017              		.loc 1 585 0
 1018 001e 2369     		ldr	r3, [r4, #16]
 1019 0020 2361     		str	r3, [r4, #16]
 586:libs/STM32F4xx_StdPeriph_Driver/src/stm32f4xx_flash.c ****   
 1020              		.loc 1 586 0
 1021 0022 2369     		ldr	r3, [r4, #16]
 1022 0024 43F00103 		orr	r3, r3, #1
 1023 0028 2361     		str	r3, [r4, #16]
 588:libs/STM32F4xx_StdPeriph_Driver/src/stm32f4xx_flash.c ****         
 1024              		.loc 1 588 0
 1025 002a 2E70     		strb	r6, [r5]
 591:libs/STM32F4xx_StdPeriph_Driver/src/stm32f4xx_flash.c **** 
 1026              		.loc 1 591 0
 1027 002c FFF7FEFF 		bl	FLASH_WaitForLastOperation
 1028              	.LVL56:
 594:libs/STM32F4xx_StdPeriph_Driver/src/stm32f4xx_flash.c ****   } 
 1029              		.loc 1 594 0
 1030 0030 2369     		ldr	r3, [r4, #16]
 1031 0032 23F00103 		bic	r3, r3, #1
 1032 0036 2361     		str	r3, [r4, #16]
 1033              	.LVL57:
 1034              	.L61:
 599:libs/STM32F4xx_StdPeriph_Driver/src/stm32f4xx_flash.c **** 
 1035              		.loc 1 599 0
 1036 0038 70BD     		pop	{r4, r5, r6, pc}
 1037              		.cfi_endproc
 1038              	.LFE123:
 1040 003a 00BF     		.section	.text.FLASH_OB_WRPConfig,"ax",%progbits
 1041              		.align	2
 1042              		.global	FLASH_OB_WRPConfig
 1043              		.thumb
 1044              		.thumb_func
 1046              	FLASH_OB_WRPConfig:
 1047              	.LFB126:
 688:libs/STM32F4xx_StdPeriph_Driver/src/stm32f4xx_flash.c ****   FLASH_Status status = FLASH_COMPLETE;
 1048              		.loc 1 688 0
 1049              		.cfi_startproc
 1050              		@ args = 0, pretend = 0, frame = 0
 1051              		@ frame_needed = 0, uses_anonymous_args = 0
 1052              	.LVL58:
 1053 0000 38B5     		push	{r3, r4, r5, lr}
 1054              	.LCFI8:
 1055              		.cfi_def_cfa_offset 16
 1056              		.cfi_offset 3, -16
 1057              		.cfi_offset 4, -12
 1058              		.cfi_offset 5, -8
 1059              		.cfi_offset 14, -4
 1060 0002 0546     		mov	r5, r0
 1061 0004 0C46     		mov	r4, r1
 1062              	.LVL59:
 695:libs/STM32F4xx_StdPeriph_Driver/src/stm32f4xx_flash.c **** 
 1063              		.loc 1 695 0
 1064 0006 FFF7FEFF 		bl	FLASH_WaitForLastOperation
 1065              	.LVL60:
 697:libs/STM32F4xx_StdPeriph_Driver/src/stm32f4xx_flash.c ****   { 
 1066              		.loc 1 697 0
 1067 000a 0828     		cmp	r0, #8
 1068 000c 12D1     		bne	.L62
 699:libs/STM32F4xx_StdPeriph_Driver/src/stm32f4xx_flash.c ****     {
 1069              		.loc 1 699 0
 1070 000e 4CB1     		cbz	r4, .L64
 701:libs/STM32F4xx_StdPeriph_Driver/src/stm32f4xx_flash.c ****     }
 1071              		.loc 1 701 0
 1072 0010 43F61643 		movw	r3, #15382
 1073 0014 C4F20203 		movt	r3, 16386
 1074 0018 1A88     		ldrh	r2, [r3]
 1075 001a 92B2     		uxth	r2, r2
 1076 001c 22EA0505 		bic	r5, r2, r5
 1077              	.LVL61:
 1078 0020 1D80     		strh	r5, [r3]	@ movhi
 1079 0022 38BD     		pop	{r3, r4, r5, pc}
 1080              	.LVL62:
 1081              	.L64:
 705:libs/STM32F4xx_StdPeriph_Driver/src/stm32f4xx_flash.c ****     }
 1082              		.loc 1 705 0
 1083 0024 43F61643 		movw	r3, #15382
 1084 0028 C4F20203 		movt	r3, 16386
 1085 002c 1A88     		ldrh	r2, [r3]
 1086 002e 1543     		orrs	r5, r5, r2
 1087              	.LVL63:
 1088 0030 ADB2     		uxth	r5, r5
 1089 0032 1D80     		strh	r5, [r3]	@ movhi
 1090              	.L62:
 1091 0034 38BD     		pop	{r3, r4, r5, pc}
 1092              		.cfi_endproc
 1093              	.LFE126:
 1095 0036 00BF     		.section	.text.FLASH_OB_RDPConfig,"ax",%progbits
 1096              		.align	2
 1097              		.global	FLASH_OB_RDPConfig
 1098              		.thumb
 1099              		.thumb_func
 1101              	FLASH_OB_RDPConfig:
 1102              	.LFB127:
 723:libs/STM32F4xx_StdPeriph_Driver/src/stm32f4xx_flash.c ****   FLASH_Status status = FLASH_COMPLETE;
 1103              		.loc 1 723 0
 1104              		.cfi_startproc
 1105              		@ args = 0, pretend = 0, frame = 0
 1106              		@ frame_needed = 0, uses_anonymous_args = 0
 1107              	.LVL64:
 1108 0000 10B5     		push	{r4, lr}
 1109              	.LCFI9:
 1110              		.cfi_def_cfa_offset 8
 1111              		.cfi_offset 4, -8
 1112              		.cfi_offset 14, -4
 1113 0002 0446     		mov	r4, r0
 1114              	.LVL65:
 729:libs/STM32F4xx_StdPeriph_Driver/src/stm32f4xx_flash.c **** 
 1115              		.loc 1 729 0
 1116 0004 FFF7FEFF 		bl	FLASH_WaitForLastOperation
 1117              	.LVL66:
 731:libs/STM32F4xx_StdPeriph_Driver/src/stm32f4xx_flash.c ****   {
 1118              		.loc 1 731 0
 1119 0008 0828     		cmp	r0, #8
 733:libs/STM32F4xx_StdPeriph_Driver/src/stm32f4xx_flash.c **** 
 1120              		.loc 1 733 0
 1121 000a 02BF     		ittt	eq
 1122 000c 43F61543 		movweq	r3, #15381
 1123 0010 C4F20203 		movteq	r3, 16386
 1124 0014 1C70     		strbeq	r4, [r3]
 1125 0016 10BD     		pop	{r4, pc}
 1126              		.cfi_endproc
 1127              	.LFE127:
 1129              		.section	.text.FLASH_OB_UserConfig,"ax",%progbits
 1130              		.align	2
 1131              		.global	FLASH_OB_UserConfig
 1132              		.thumb
 1133              		.thumb_func
 1135              	FLASH_OB_UserConfig:
 1136              	.LFB128:
 755:libs/STM32F4xx_StdPeriph_Driver/src/stm32f4xx_flash.c ****   uint8_t optiontmp = 0xFF;
 1137              		.loc 1 755 0
 1138              		.cfi_startproc
 1139              		@ args = 0, pretend = 0, frame = 0
 1140              		@ frame_needed = 0, uses_anonymous_args = 0
 1141              	.LVL67:
 1142 0000 70B5     		push	{r4, r5, r6, lr}
 1143              	.LCFI10:
 1144              		.cfi_def_cfa_offset 16
 1145              		.cfi_offset 4, -16
 1146              		.cfi_offset 5, -12
 1147              		.cfi_offset 6, -8
 1148              		.cfi_offset 14, -4
 1149 0002 0446     		mov	r4, r0
 1150 0004 0E46     		mov	r6, r1
 1151 0006 1546     		mov	r5, r2
 1152              	.LVL68:
 765:libs/STM32F4xx_StdPeriph_Driver/src/stm32f4xx_flash.c ****   
 1153              		.loc 1 765 0
 1154 0008 FFF7FEFF 		bl	FLASH_WaitForLastOperation
 1155              	.LVL69:
 767:libs/STM32F4xx_StdPeriph_Driver/src/stm32f4xx_flash.c ****   { 
 1156              		.loc 1 767 0
 1157 000c 0828     		cmp	r0, #8
 1158 000e 0AD1     		bne	.L67
 770:libs/STM32F4xx_StdPeriph_Driver/src/stm32f4xx_flash.c **** 
 1159              		.loc 1 770 0
 1160 0010 43F61443 		movw	r3, #15380
 1161 0014 C4F20203 		movt	r3, 16386
 1162 0018 1A78     		ldrb	r2, [r3]	@ zero_extendqisi2
 1163 001a 02F00F02 		and	r2, r2, #15
 1164              	.LVL70:
 773:libs/STM32F4xx_StdPeriph_Driver/src/stm32f4xx_flash.c ****   }  
 1165              		.loc 1 773 0
 1166 001e 1643     		orrs	r6, r6, r2
 1167 0020 3543     		orrs	r5, r5, r6
 1168 0022 2C43     		orrs	r4, r4, r5
 1169 0024 1C70     		strb	r4, [r3]
 1170              	.LVL71:
 1171              	.L67:
 1172 0026 70BD     		pop	{r4, r5, r6, pc}
 1173              		.cfi_endproc
 1174              	.LFE128:
 1176              		.section	.text.FLASH_OB_Launch,"ax",%progbits
 1177              		.align	2
 1178              		.global	FLASH_OB_Launch
 1179              		.thumb
 1180              		.thumb_func
 1182              	FLASH_OB_Launch:
 1183              	.LFB130:
 805:libs/STM32F4xx_StdPeriph_Driver/src/stm32f4xx_flash.c ****   FLASH_Status status = FLASH_COMPLETE;
 1184              		.loc 1 805 0
 1185              		.cfi_startproc
 1186              		@ args = 0, pretend = 0, frame = 0
 1187              		@ frame_needed = 0, uses_anonymous_args = 0
 1188 0000 08B5     		push	{r3, lr}
 1189              	.LCFI11:
 1190              		.cfi_def_cfa_offset 8
 1191              		.cfi_offset 3, -8
 1192              		.cfi_offset 14, -4
 1193              	.LVL72:
 809:libs/STM32F4xx_StdPeriph_Driver/src/stm32f4xx_flash.c **** 
 1194              		.loc 1 809 0
 1195 0002 43F61443 		movw	r3, #15380
 1196 0006 C4F20203 		movt	r3, 16386
 1197 000a 1A78     		ldrb	r2, [r3]	@ zero_extendqisi2
 1198 000c 42F00202 		orr	r2, r2, #2
 1199 0010 1A70     		strb	r2, [r3]
 812:libs/STM32F4xx_StdPeriph_Driver/src/stm32f4xx_flash.c **** 
 1200              		.loc 1 812 0
 1201 0012 FFF7FEFF 		bl	FLASH_WaitForLastOperation
 1202              	.LVL73:
 815:libs/STM32F4xx_StdPeriph_Driver/src/stm32f4xx_flash.c **** 
 1203              		.loc 1 815 0
 1204 0016 08BD     		pop	{r3, pc}
 1205              		.cfi_endproc
 1206              	.LFE130:
 1208              		.text
 1209              	.Letext0:
 1210              		.file 2 "/usr/include/newlib/machine/_default_types.h"
 1211              		.file 3 "/usr/include/newlib/stdint.h"
 1212              		.file 4 "libs/Device/STM32F4xx/Include/stm32f4xx.h"
 1213              		.file 5 "libs/STM32F4xx_StdPeriph_Driver/inc/stm32f4xx_flash.h"
 1214              		.file 6 "libs/CMSIS/Include/core_cm4.h"