   1              		.syntax unified
   2              		.cpu cortex-m4
   3              		.eabi_attribute 27, 3
   4              		.fpu fpv4-sp-d16
   5              		.eabi_attribute 20, 1
   6              		.eabi_attribute 21, 1
   7              		.eabi_attribute 23, 3
   8              		.eabi_attribute 24, 1
   9              		.eabi_attribute 25, 1
  10              		.eabi_attribute 26, 1
  11              		.eabi_attribute 30, 1
  12              		.eabi_attribute 34, 1
  13              		.eabi_attribute 18, 4
  14              		.thumb
  15              		.file	"stm32f4xx_wwdg.c"
  16              		.text
  17              	.Ltext0:
  18              		.cfi_sections	.debug_frame
  19              		.section	.text.WWDG_DeInit,"ax",%progbits
  20              		.align	2
  21              		.global	WWDG_DeInit
  22              		.thumb
  23              		.thumb_func
  25              	WWDG_DeInit:
  26              	.LFB110:
  27              		.file 1 "libs/STM32F4xx_StdPeriph_Driver/src/stm32f4xx_wwdg.c"
   1:libs/STM32F4xx_StdPeriph_Driver/src/stm32f4xx_wwdg.c **** /**
   2:libs/STM32F4xx_StdPeriph_Driver/src/stm32f4xx_wwdg.c ****   ******************************************************************************
   3:libs/STM32F4xx_StdPeriph_Driver/src/stm32f4xx_wwdg.c ****   * @file    stm32f4xx_wwdg.c
   4:libs/STM32F4xx_StdPeriph_Driver/src/stm32f4xx_wwdg.c ****   * @author  MCD Application Team
   5:libs/STM32F4xx_StdPeriph_Driver/src/stm32f4xx_wwdg.c ****   * @version V1.0.0RC1
   6:libs/STM32F4xx_StdPeriph_Driver/src/stm32f4xx_wwdg.c ****   * @date    25-August-2011
   7:libs/STM32F4xx_StdPeriph_Driver/src/stm32f4xx_wwdg.c ****   * @brief   This file provides firmware functions to manage the following 
   8:libs/STM32F4xx_StdPeriph_Driver/src/stm32f4xx_wwdg.c ****   *          functionalities of the Window watchdog (WWDG) peripheral:           
   9:libs/STM32F4xx_StdPeriph_Driver/src/stm32f4xx_wwdg.c ****   *           - Prescaler, Refresh window and Counter configuration
  10:libs/STM32F4xx_StdPeriph_Driver/src/stm32f4xx_wwdg.c ****   *           - WWDG activation
  11:libs/STM32F4xx_StdPeriph_Driver/src/stm32f4xx_wwdg.c ****   *           - Interrupts and flags management
  12:libs/STM32F4xx_StdPeriph_Driver/src/stm32f4xx_wwdg.c ****   *             
  13:libs/STM32F4xx_StdPeriph_Driver/src/stm32f4xx_wwdg.c ****   *  @verbatim
  14:libs/STM32F4xx_StdPeriph_Driver/src/stm32f4xx_wwdg.c ****   *    
  15:libs/STM32F4xx_StdPeriph_Driver/src/stm32f4xx_wwdg.c ****   *          ===================================================================
  16:libs/STM32F4xx_StdPeriph_Driver/src/stm32f4xx_wwdg.c ****   *                                     WWDG features
  17:libs/STM32F4xx_StdPeriph_Driver/src/stm32f4xx_wwdg.c ****   *          ===================================================================
  18:libs/STM32F4xx_StdPeriph_Driver/src/stm32f4xx_wwdg.c ****   *                                        
  19:libs/STM32F4xx_StdPeriph_Driver/src/stm32f4xx_wwdg.c ****   *          Once enabled the WWDG generates a system reset on expiry of a programmed
  20:libs/STM32F4xx_StdPeriph_Driver/src/stm32f4xx_wwdg.c ****   *          time period, unless the program refreshes the counter (downcounter) 
  21:libs/STM32F4xx_StdPeriph_Driver/src/stm32f4xx_wwdg.c ****   *          before to reach 0x3F value (i.e. a reset is generated when the counter
  22:libs/STM32F4xx_StdPeriph_Driver/src/stm32f4xx_wwdg.c ****   *          value rolls over from 0x40 to 0x3F). 
  23:libs/STM32F4xx_StdPeriph_Driver/src/stm32f4xx_wwdg.c ****   *          An MCU reset is also generated if the counter value is refreshed
  24:libs/STM32F4xx_StdPeriph_Driver/src/stm32f4xx_wwdg.c ****   *          before the counter has reached the refresh window value. This 
  25:libs/STM32F4xx_StdPeriph_Driver/src/stm32f4xx_wwdg.c ****   *          implies that the counter must be refreshed in a limited window.
  26:libs/STM32F4xx_StdPeriph_Driver/src/stm32f4xx_wwdg.c ****   *            
  27:libs/STM32F4xx_StdPeriph_Driver/src/stm32f4xx_wwdg.c ****   *          Once enabled the WWDG cannot be disabled except by a system reset.                    
  28:libs/STM32F4xx_StdPeriph_Driver/src/stm32f4xx_wwdg.c ****   *          
  29:libs/STM32F4xx_StdPeriph_Driver/src/stm32f4xx_wwdg.c ****   *          WWDGRST flag in RCC_CSR register can be used to inform when a WWDG
  30:libs/STM32F4xx_StdPeriph_Driver/src/stm32f4xx_wwdg.c ****   *          reset occurs.
  31:libs/STM32F4xx_StdPeriph_Driver/src/stm32f4xx_wwdg.c ****   *            
  32:libs/STM32F4xx_StdPeriph_Driver/src/stm32f4xx_wwdg.c ****   *          The WWDG counter input clock is derived from the APB clock divided 
  33:libs/STM32F4xx_StdPeriph_Driver/src/stm32f4xx_wwdg.c ****   *          by a programmable prescaler.
  34:libs/STM32F4xx_StdPeriph_Driver/src/stm32f4xx_wwdg.c ****   *              
  35:libs/STM32F4xx_StdPeriph_Driver/src/stm32f4xx_wwdg.c ****   *          WWDG counter clock = PCLK1 / Prescaler
  36:libs/STM32F4xx_StdPeriph_Driver/src/stm32f4xx_wwdg.c ****   *          WWDG timeout = (WWDG counter clock) * (counter value)
  37:libs/STM32F4xx_StdPeriph_Driver/src/stm32f4xx_wwdg.c ****   *                      
  38:libs/STM32F4xx_StdPeriph_Driver/src/stm32f4xx_wwdg.c ****   *          Min-max timeout value @30 MHz(PCLK1): ~136.5 us / ~69.9 ms
  39:libs/STM32F4xx_StdPeriph_Driver/src/stm32f4xx_wwdg.c ****   *                            
  40:libs/STM32F4xx_StdPeriph_Driver/src/stm32f4xx_wwdg.c ****   *          ===================================================================
  41:libs/STM32F4xx_StdPeriph_Driver/src/stm32f4xx_wwdg.c ****   *                                 How to use this driver
  42:libs/STM32F4xx_StdPeriph_Driver/src/stm32f4xx_wwdg.c ****   *          =================================================================== 
  43:libs/STM32F4xx_StdPeriph_Driver/src/stm32f4xx_wwdg.c ****   *          1. Enable WWDG clock using RCC_APB1PeriphClockCmd(RCC_APB1Periph_WWDG, ENABLE) functio
  44:libs/STM32F4xx_StdPeriph_Driver/src/stm32f4xx_wwdg.c ****   *            
  45:libs/STM32F4xx_StdPeriph_Driver/src/stm32f4xx_wwdg.c ****   *          2. Configure the WWDG prescaler using WWDG_SetPrescaler() function
  46:libs/STM32F4xx_StdPeriph_Driver/src/stm32f4xx_wwdg.c ****   *                           
  47:libs/STM32F4xx_StdPeriph_Driver/src/stm32f4xx_wwdg.c ****   *          3. Configure the WWDG refresh window using WWDG_SetWindowValue() function
  48:libs/STM32F4xx_StdPeriph_Driver/src/stm32f4xx_wwdg.c ****   *            
  49:libs/STM32F4xx_StdPeriph_Driver/src/stm32f4xx_wwdg.c ****   *          4. Set the WWDG counter value and start it using WWDG_Enable() function.
  50:libs/STM32F4xx_StdPeriph_Driver/src/stm32f4xx_wwdg.c ****   *             When the WWDG is enabled the counter value should be configured to 
  51:libs/STM32F4xx_StdPeriph_Driver/src/stm32f4xx_wwdg.c ****   *             a value greater than 0x40 to prevent generating an immediate reset.     
  52:libs/STM32F4xx_StdPeriph_Driver/src/stm32f4xx_wwdg.c ****   *            
  53:libs/STM32F4xx_StdPeriph_Driver/src/stm32f4xx_wwdg.c ****   *          5. Optionally you can enable the Early wakeup interrupt which is 
  54:libs/STM32F4xx_StdPeriph_Driver/src/stm32f4xx_wwdg.c ****   *             generated when the counter reach 0x40.
  55:libs/STM32F4xx_StdPeriph_Driver/src/stm32f4xx_wwdg.c ****   *             Once enabled this interrupt cannot be disabled except by a system reset.
  56:libs/STM32F4xx_StdPeriph_Driver/src/stm32f4xx_wwdg.c ****   *                 
  57:libs/STM32F4xx_StdPeriph_Driver/src/stm32f4xx_wwdg.c ****   *          6. Then the application program must refresh the WWDG counter at regular
  58:libs/STM32F4xx_StdPeriph_Driver/src/stm32f4xx_wwdg.c ****   *             intervals during normal operation to prevent an MCU reset, using
  59:libs/STM32F4xx_StdPeriph_Driver/src/stm32f4xx_wwdg.c ****   *             WWDG_SetCounter() function. This operation must occur only when
  60:libs/STM32F4xx_StdPeriph_Driver/src/stm32f4xx_wwdg.c ****   *             the counter value is lower than the refresh window value, 
  61:libs/STM32F4xx_StdPeriph_Driver/src/stm32f4xx_wwdg.c ****   *             programmed using WWDG_SetWindowValue().         
  62:libs/STM32F4xx_StdPeriph_Driver/src/stm32f4xx_wwdg.c ****   *
  63:libs/STM32F4xx_StdPeriph_Driver/src/stm32f4xx_wwdg.c ****   *  @endverbatim  
  64:libs/STM32F4xx_StdPeriph_Driver/src/stm32f4xx_wwdg.c ****   *                             
  65:libs/STM32F4xx_StdPeriph_Driver/src/stm32f4xx_wwdg.c ****   ******************************************************************************
  66:libs/STM32F4xx_StdPeriph_Driver/src/stm32f4xx_wwdg.c ****   * @attention
  67:libs/STM32F4xx_StdPeriph_Driver/src/stm32f4xx_wwdg.c ****   *
  68:libs/STM32F4xx_StdPeriph_Driver/src/stm32f4xx_wwdg.c ****   * THE PRESENT FIRMWARE WHICH IS FOR GUIDANCE ONLY AIMS AT PROVIDING CUSTOMERS
  69:libs/STM32F4xx_StdPeriph_Driver/src/stm32f4xx_wwdg.c ****   * WITH CODING INFORMATION REGARDING THEIR PRODUCTS IN ORDER FOR THEM TO SAVE
  70:libs/STM32F4xx_StdPeriph_Driver/src/stm32f4xx_wwdg.c ****   * TIME. AS A RESULT, STMICROELECTRONICS SHALL NOT BE HELD LIABLE FOR ANY
  71:libs/STM32F4xx_StdPeriph_Driver/src/stm32f4xx_wwdg.c ****   * DIRECT, INDIRECT OR CONSEQUENTIAL DAMAGES WITH RESPECT TO ANY CLAIMS ARISING
  72:libs/STM32F4xx_StdPeriph_Driver/src/stm32f4xx_wwdg.c ****   * FROM THE CONTENT OF SUCH FIRMWARE AND/OR THE USE MADE BY CUSTOMERS OF THE
  73:libs/STM32F4xx_StdPeriph_Driver/src/stm32f4xx_wwdg.c ****   * CODING INFORMATION CONTAINED HEREIN IN CONNECTION WITH THEIR PRODUCTS.
  74:libs/STM32F4xx_StdPeriph_Driver/src/stm32f4xx_wwdg.c ****   *
  75:libs/STM32F4xx_StdPeriph_Driver/src/stm32f4xx_wwdg.c ****   * <h2><center>&copy; COPYRIGHT 2011 STMicroelectronics</center></h2>
  76:libs/STM32F4xx_StdPeriph_Driver/src/stm32f4xx_wwdg.c ****   ******************************************************************************
  77:libs/STM32F4xx_StdPeriph_Driver/src/stm32f4xx_wwdg.c ****   */
  78:libs/STM32F4xx_StdPeriph_Driver/src/stm32f4xx_wwdg.c **** 
  79:libs/STM32F4xx_StdPeriph_Driver/src/stm32f4xx_wwdg.c **** /* Includes ------------------------------------------------------------------*/
  80:libs/STM32F4xx_StdPeriph_Driver/src/stm32f4xx_wwdg.c **** #include "stm32f4xx_wwdg.h"
  81:libs/STM32F4xx_StdPeriph_Driver/src/stm32f4xx_wwdg.c **** #include "stm32f4xx_rcc.h"
  82:libs/STM32F4xx_StdPeriph_Driver/src/stm32f4xx_wwdg.c **** 
  83:libs/STM32F4xx_StdPeriph_Driver/src/stm32f4xx_wwdg.c **** /** @addtogroup STM32F4xx_StdPeriph_Driver
  84:libs/STM32F4xx_StdPeriph_Driver/src/stm32f4xx_wwdg.c ****   * @{
  85:libs/STM32F4xx_StdPeriph_Driver/src/stm32f4xx_wwdg.c ****   */
  86:libs/STM32F4xx_StdPeriph_Driver/src/stm32f4xx_wwdg.c **** 
  87:libs/STM32F4xx_StdPeriph_Driver/src/stm32f4xx_wwdg.c **** /** @defgroup WWDG 
  88:libs/STM32F4xx_StdPeriph_Driver/src/stm32f4xx_wwdg.c ****   * @brief WWDG driver modules
  89:libs/STM32F4xx_StdPeriph_Driver/src/stm32f4xx_wwdg.c ****   * @{
  90:libs/STM32F4xx_StdPeriph_Driver/src/stm32f4xx_wwdg.c ****   */
  91:libs/STM32F4xx_StdPeriph_Driver/src/stm32f4xx_wwdg.c **** 
  92:libs/STM32F4xx_StdPeriph_Driver/src/stm32f4xx_wwdg.c **** /* Private typedef -----------------------------------------------------------*/
  93:libs/STM32F4xx_StdPeriph_Driver/src/stm32f4xx_wwdg.c **** /* Private define ------------------------------------------------------------*/
  94:libs/STM32F4xx_StdPeriph_Driver/src/stm32f4xx_wwdg.c **** 
  95:libs/STM32F4xx_StdPeriph_Driver/src/stm32f4xx_wwdg.c **** /* ----------- WWDG registers bit address in the alias region ----------- */
  96:libs/STM32F4xx_StdPeriph_Driver/src/stm32f4xx_wwdg.c **** #define WWDG_OFFSET       (WWDG_BASE - PERIPH_BASE)
  97:libs/STM32F4xx_StdPeriph_Driver/src/stm32f4xx_wwdg.c **** /* Alias word address of EWI bit */
  98:libs/STM32F4xx_StdPeriph_Driver/src/stm32f4xx_wwdg.c **** #define CFR_OFFSET        (WWDG_OFFSET + 0x04)
  99:libs/STM32F4xx_StdPeriph_Driver/src/stm32f4xx_wwdg.c **** #define EWI_BitNumber     0x09
 100:libs/STM32F4xx_StdPeriph_Driver/src/stm32f4xx_wwdg.c **** #define CFR_EWI_BB        (PERIPH_BB_BASE + (CFR_OFFSET * 32) + (EWI_BitNumber * 4))
 101:libs/STM32F4xx_StdPeriph_Driver/src/stm32f4xx_wwdg.c **** 
 102:libs/STM32F4xx_StdPeriph_Driver/src/stm32f4xx_wwdg.c **** /* --------------------- WWDG registers bit mask ------------------------ */
 103:libs/STM32F4xx_StdPeriph_Driver/src/stm32f4xx_wwdg.c **** /* CFR register bit mask */
 104:libs/STM32F4xx_StdPeriph_Driver/src/stm32f4xx_wwdg.c **** #define CFR_WDGTB_MASK    ((uint32_t)0xFFFFFE7F)
 105:libs/STM32F4xx_StdPeriph_Driver/src/stm32f4xx_wwdg.c **** #define CFR_W_MASK        ((uint32_t)0xFFFFFF80)
 106:libs/STM32F4xx_StdPeriph_Driver/src/stm32f4xx_wwdg.c **** #define BIT_MASK          ((uint8_t)0x7F)
 107:libs/STM32F4xx_StdPeriph_Driver/src/stm32f4xx_wwdg.c **** 
 108:libs/STM32F4xx_StdPeriph_Driver/src/stm32f4xx_wwdg.c **** /* Private macro -------------------------------------------------------------*/
 109:libs/STM32F4xx_StdPeriph_Driver/src/stm32f4xx_wwdg.c **** /* Private variables ---------------------------------------------------------*/
 110:libs/STM32F4xx_StdPeriph_Driver/src/stm32f4xx_wwdg.c **** /* Private function prototypes -----------------------------------------------*/
 111:libs/STM32F4xx_StdPeriph_Driver/src/stm32f4xx_wwdg.c **** /* Private functions ---------------------------------------------------------*/
 112:libs/STM32F4xx_StdPeriph_Driver/src/stm32f4xx_wwdg.c **** 
 113:libs/STM32F4xx_StdPeriph_Driver/src/stm32f4xx_wwdg.c **** /** @defgroup WWDG_Private_Functions
 114:libs/STM32F4xx_StdPeriph_Driver/src/stm32f4xx_wwdg.c ****   * @{
 115:libs/STM32F4xx_StdPeriph_Driver/src/stm32f4xx_wwdg.c ****   */
 116:libs/STM32F4xx_StdPeriph_Driver/src/stm32f4xx_wwdg.c **** 
 117:libs/STM32F4xx_StdPeriph_Driver/src/stm32f4xx_wwdg.c **** /** @defgroup WWDG_Group1 Prescaler, Refresh window and Counter configuration functions
 118:libs/STM32F4xx_StdPeriph_Driver/src/stm32f4xx_wwdg.c ****  *  @brief   Prescaler, Refresh window and Counter configuration functions 
 119:libs/STM32F4xx_StdPeriph_Driver/src/stm32f4xx_wwdg.c ****  *
 120:libs/STM32F4xx_StdPeriph_Driver/src/stm32f4xx_wwdg.c **** @verbatim   
 121:libs/STM32F4xx_StdPeriph_Driver/src/stm32f4xx_wwdg.c ****  ===============================================================================
 122:libs/STM32F4xx_StdPeriph_Driver/src/stm32f4xx_wwdg.c ****           Prescaler, Refresh window and Counter configuration functions
 123:libs/STM32F4xx_StdPeriph_Driver/src/stm32f4xx_wwdg.c ****  ===============================================================================  
 124:libs/STM32F4xx_StdPeriph_Driver/src/stm32f4xx_wwdg.c **** 
 125:libs/STM32F4xx_StdPeriph_Driver/src/stm32f4xx_wwdg.c **** @endverbatim
 126:libs/STM32F4xx_StdPeriph_Driver/src/stm32f4xx_wwdg.c ****   * @{
 127:libs/STM32F4xx_StdPeriph_Driver/src/stm32f4xx_wwdg.c ****   */
 128:libs/STM32F4xx_StdPeriph_Driver/src/stm32f4xx_wwdg.c **** 
 129:libs/STM32F4xx_StdPeriph_Driver/src/stm32f4xx_wwdg.c **** /**
 130:libs/STM32F4xx_StdPeriph_Driver/src/stm32f4xx_wwdg.c ****   * @brief  Deinitializes the WWDG peripheral registers to their default reset values.
 131:libs/STM32F4xx_StdPeriph_Driver/src/stm32f4xx_wwdg.c ****   * @param  None
 132:libs/STM32F4xx_StdPeriph_Driver/src/stm32f4xx_wwdg.c ****   * @retval None
 133:libs/STM32F4xx_StdPeriph_Driver/src/stm32f4xx_wwdg.c ****   */
 134:libs/STM32F4xx_StdPeriph_Driver/src/stm32f4xx_wwdg.c **** void WWDG_DeInit(void)
 135:libs/STM32F4xx_StdPeriph_Driver/src/stm32f4xx_wwdg.c **** {
  28              		.loc 1 135 0
  29              		.cfi_startproc
  30              		@ args = 0, pretend = 0, frame = 0
  31              		@ frame_needed = 0, uses_anonymous_args = 0
  32 0000 08B5     		push	{r3, lr}
  33              	.LCFI0:
  34              		.cfi_def_cfa_offset 8
  35              		.cfi_offset 3, -8
  36              		.cfi_offset 14, -4
 136:libs/STM32F4xx_StdPeriph_Driver/src/stm32f4xx_wwdg.c ****   RCC_APB1PeriphResetCmd(RCC_APB1Periph_WWDG, ENABLE);
  37              		.loc 1 136 0
  38 0002 4FF40060 		mov	r0, #2048
  39 0006 0121     		movs	r1, #1
  40 0008 FFF7FEFF 		bl	RCC_APB1PeriphResetCmd
  41              	.LVL0:
 137:libs/STM32F4xx_StdPeriph_Driver/src/stm32f4xx_wwdg.c ****   RCC_APB1PeriphResetCmd(RCC_APB1Periph_WWDG, DISABLE);
  42              		.loc 1 137 0
  43 000c 4FF40060 		mov	r0, #2048
  44 0010 0021     		movs	r1, #0
  45 0012 FFF7FEFF 		bl	RCC_APB1PeriphResetCmd
  46              	.LVL1:
  47 0016 08BD     		pop	{r3, pc}
  48              		.cfi_endproc
  49              	.LFE110:
  51              		.section	.text.WWDG_SetPrescaler,"ax",%progbits
  52              		.align	2
  53              		.global	WWDG_SetPrescaler
  54              		.thumb
  55              		.thumb_func
  57              	WWDG_SetPrescaler:
  58              	.LFB111:
 138:libs/STM32F4xx_StdPeriph_Driver/src/stm32f4xx_wwdg.c **** }
 139:libs/STM32F4xx_StdPeriph_Driver/src/stm32f4xx_wwdg.c **** 
 140:libs/STM32F4xx_StdPeriph_Driver/src/stm32f4xx_wwdg.c **** /**
 141:libs/STM32F4xx_StdPeriph_Driver/src/stm32f4xx_wwdg.c ****   * @brief  Sets the WWDG Prescaler.
 142:libs/STM32F4xx_StdPeriph_Driver/src/stm32f4xx_wwdg.c ****   * @param  WWDG_Prescaler: specifies the WWDG Prescaler.
 143:libs/STM32F4xx_StdPeriph_Driver/src/stm32f4xx_wwdg.c ****   *   This parameter can be one of the following values:
 144:libs/STM32F4xx_StdPeriph_Driver/src/stm32f4xx_wwdg.c ****   *     @arg WWDG_Prescaler_1: WWDG counter clock = (PCLK1/4096)/1
 145:libs/STM32F4xx_StdPeriph_Driver/src/stm32f4xx_wwdg.c ****   *     @arg WWDG_Prescaler_2: WWDG counter clock = (PCLK1/4096)/2
 146:libs/STM32F4xx_StdPeriph_Driver/src/stm32f4xx_wwdg.c ****   *     @arg WWDG_Prescaler_4: WWDG counter clock = (PCLK1/4096)/4
 147:libs/STM32F4xx_StdPeriph_Driver/src/stm32f4xx_wwdg.c ****   *     @arg WWDG_Prescaler_8: WWDG counter clock = (PCLK1/4096)/8
 148:libs/STM32F4xx_StdPeriph_Driver/src/stm32f4xx_wwdg.c ****   * @retval None
 149:libs/STM32F4xx_StdPeriph_Driver/src/stm32f4xx_wwdg.c ****   */
 150:libs/STM32F4xx_StdPeriph_Driver/src/stm32f4xx_wwdg.c **** void WWDG_SetPrescaler(uint32_t WWDG_Prescaler)
 151:libs/STM32F4xx_StdPeriph_Driver/src/stm32f4xx_wwdg.c **** {
  59              		.loc 1 151 0
  60              		.cfi_startproc
  61              		@ args = 0, pretend = 0, frame = 0
  62              		@ frame_needed = 0, uses_anonymous_args = 0
  63              		@ link register save eliminated.
  64              	.LVL2:
 152:libs/STM32F4xx_StdPeriph_Driver/src/stm32f4xx_wwdg.c ****   uint32_t tmpreg = 0;
 153:libs/STM32F4xx_StdPeriph_Driver/src/stm32f4xx_wwdg.c ****   /* Check the parameters */
 154:libs/STM32F4xx_StdPeriph_Driver/src/stm32f4xx_wwdg.c ****   assert_param(IS_WWDG_PRESCALER(WWDG_Prescaler));
 155:libs/STM32F4xx_StdPeriph_Driver/src/stm32f4xx_wwdg.c ****   /* Clear WDGTB[1:0] bits */
 156:libs/STM32F4xx_StdPeriph_Driver/src/stm32f4xx_wwdg.c ****   tmpreg = WWDG->CFR & CFR_WDGTB_MASK;
  65              		.loc 1 156 0
  66 0000 4FF43053 		mov	r3, #11264
  67 0004 C4F20003 		movt	r3, 16384
  68 0008 5A68     		ldr	r2, [r3, #4]
  69 000a 22F4C072 		bic	r2, r2, #384
  70              	.LVL3:
 157:libs/STM32F4xx_StdPeriph_Driver/src/stm32f4xx_wwdg.c ****   /* Set WDGTB[1:0] bits according to WWDG_Prescaler value */
 158:libs/STM32F4xx_StdPeriph_Driver/src/stm32f4xx_wwdg.c ****   tmpreg |= WWDG_Prescaler;
  71              		.loc 1 158 0
  72 000e 1043     		orrs	r0, r0, r2
  73              	.LVL4:
 159:libs/STM32F4xx_StdPeriph_Driver/src/stm32f4xx_wwdg.c ****   /* Store the new value */
 160:libs/STM32F4xx_StdPeriph_Driver/src/stm32f4xx_wwdg.c ****   WWDG->CFR = tmpreg;
  74              		.loc 1 160 0
  75 0010 5860     		str	r0, [r3, #4]
  76 0012 7047     		bx	lr
  77              		.cfi_endproc
  78              	.LFE111:
  80              		.section	.text.WWDG_SetWindowValue,"ax",%progbits
  81              		.align	2
  82              		.global	WWDG_SetWindowValue
  83              		.thumb
  84              		.thumb_func
  86              	WWDG_SetWindowValue:
  87              	.LFB112:
 161:libs/STM32F4xx_StdPeriph_Driver/src/stm32f4xx_wwdg.c **** }
 162:libs/STM32F4xx_StdPeriph_Driver/src/stm32f4xx_wwdg.c **** 
 163:libs/STM32F4xx_StdPeriph_Driver/src/stm32f4xx_wwdg.c **** /**
 164:libs/STM32F4xx_StdPeriph_Driver/src/stm32f4xx_wwdg.c ****   * @brief  Sets the WWDG window value.
 165:libs/STM32F4xx_StdPeriph_Driver/src/stm32f4xx_wwdg.c ****   * @param  WindowValue: specifies the window value to be compared to the downcounter.
 166:libs/STM32F4xx_StdPeriph_Driver/src/stm32f4xx_wwdg.c ****   *   This parameter value must be lower than 0x80.
 167:libs/STM32F4xx_StdPeriph_Driver/src/stm32f4xx_wwdg.c ****   * @retval None
 168:libs/STM32F4xx_StdPeriph_Driver/src/stm32f4xx_wwdg.c ****   */
 169:libs/STM32F4xx_StdPeriph_Driver/src/stm32f4xx_wwdg.c **** void WWDG_SetWindowValue(uint8_t WindowValue)
 170:libs/STM32F4xx_StdPeriph_Driver/src/stm32f4xx_wwdg.c **** {
  88              		.loc 1 170 0
  89              		.cfi_startproc
  90              		@ args = 0, pretend = 0, frame = 8
  91              		@ frame_needed = 0, uses_anonymous_args = 0
  92              		@ link register save eliminated.
  93              	.LVL5:
  94 0000 82B0     		sub	sp, sp, #8
  95              	.LCFI1:
  96              		.cfi_def_cfa_offset 8
 171:libs/STM32F4xx_StdPeriph_Driver/src/stm32f4xx_wwdg.c ****   __IO uint32_t tmpreg = 0;
  97              		.loc 1 171 0
  98 0002 0023     		movs	r3, #0
  99 0004 0193     		str	r3, [sp, #4]
 172:libs/STM32F4xx_StdPeriph_Driver/src/stm32f4xx_wwdg.c **** 
 173:libs/STM32F4xx_StdPeriph_Driver/src/stm32f4xx_wwdg.c ****   /* Check the parameters */
 174:libs/STM32F4xx_StdPeriph_Driver/src/stm32f4xx_wwdg.c ****   assert_param(IS_WWDG_WINDOW_VALUE(WindowValue));
 175:libs/STM32F4xx_StdPeriph_Driver/src/stm32f4xx_wwdg.c ****   /* Clear W[6:0] bits */
 176:libs/STM32F4xx_StdPeriph_Driver/src/stm32f4xx_wwdg.c **** 
 177:libs/STM32F4xx_StdPeriph_Driver/src/stm32f4xx_wwdg.c ****   tmpreg = WWDG->CFR & CFR_W_MASK;
 100              		.loc 1 177 0
 101 0006 4FF43053 		mov	r3, #11264
 102 000a C4F20003 		movt	r3, 16384
 103 000e 5A68     		ldr	r2, [r3, #4]
 104 0010 22F07F02 		bic	r2, r2, #127
 105 0014 0192     		str	r2, [sp, #4]
 178:libs/STM32F4xx_StdPeriph_Driver/src/stm32f4xx_wwdg.c **** 
 179:libs/STM32F4xx_StdPeriph_Driver/src/stm32f4xx_wwdg.c ****   /* Set W[6:0] bits according to WindowValue value */
 180:libs/STM32F4xx_StdPeriph_Driver/src/stm32f4xx_wwdg.c ****   tmpreg |= WindowValue & (uint32_t) BIT_MASK;
 106              		.loc 1 180 0
 107 0016 00F07F00 		and	r0, r0, #127
 108              	.LVL6:
 109 001a 019A     		ldr	r2, [sp, #4]
 110 001c 1043     		orrs	r0, r0, r2
 111 001e 0190     		str	r0, [sp, #4]
 181:libs/STM32F4xx_StdPeriph_Driver/src/stm32f4xx_wwdg.c **** 
 182:libs/STM32F4xx_StdPeriph_Driver/src/stm32f4xx_wwdg.c ****   /* Store the new value */
 183:libs/STM32F4xx_StdPeriph_Driver/src/stm32f4xx_wwdg.c ****   WWDG->CFR = tmpreg;
 112              		.loc 1 183 0
 113 0020 019A     		ldr	r2, [sp, #4]
 114 0022 5A60     		str	r2, [r3, #4]
 184:libs/STM32F4xx_StdPeriph_Driver/src/stm32f4xx_wwdg.c **** }
 115              		.loc 1 184 0
 116 0024 02B0     		add	sp, sp, #8
 117              		@ sp needed
 118 0026 7047     		bx	lr
 119              		.cfi_endproc
 120              	.LFE112:
 122              		.section	.text.WWDG_EnableIT,"ax",%progbits
 123              		.align	2
 124              		.global	WWDG_EnableIT
 125              		.thumb
 126              		.thumb_func
 128              	WWDG_EnableIT:
 129              	.LFB113:
 185:libs/STM32F4xx_StdPeriph_Driver/src/stm32f4xx_wwdg.c **** 
 186:libs/STM32F4xx_StdPeriph_Driver/src/stm32f4xx_wwdg.c **** /**
 187:libs/STM32F4xx_StdPeriph_Driver/src/stm32f4xx_wwdg.c ****   * @brief  Enables the WWDG Early Wakeup interrupt(EWI).
 188:libs/STM32F4xx_StdPeriph_Driver/src/stm32f4xx_wwdg.c ****   * @note   Once enabled this interrupt cannot be disabled except by a system reset.
 189:libs/STM32F4xx_StdPeriph_Driver/src/stm32f4xx_wwdg.c ****   * @param  None
 190:libs/STM32F4xx_StdPeriph_Driver/src/stm32f4xx_wwdg.c ****   * @retval None
 191:libs/STM32F4xx_StdPeriph_Driver/src/stm32f4xx_wwdg.c ****   */
 192:libs/STM32F4xx_StdPeriph_Driver/src/stm32f4xx_wwdg.c **** void WWDG_EnableIT(void)
 193:libs/STM32F4xx_StdPeriph_Driver/src/stm32f4xx_wwdg.c **** {
 130              		.loc 1 193 0
 131              		.cfi_startproc
 132              		@ args = 0, pretend = 0, frame = 0
 133              		@ frame_needed = 0, uses_anonymous_args = 0
 134              		@ link register save eliminated.
 194:libs/STM32F4xx_StdPeriph_Driver/src/stm32f4xx_wwdg.c ****   *(__IO uint32_t *) CFR_EWI_BB = (uint32_t)ENABLE;
 135              		.loc 1 194 0
 136 0000 48F2A403 		movw	r3, #32932
 137 0004 C4F20523 		movt	r3, 16901
 138 0008 0122     		movs	r2, #1
 139 000a 1A60     		str	r2, [r3]
 140 000c 7047     		bx	lr
 141              		.cfi_endproc
 142              	.LFE113:
 144 000e 00BF     		.section	.text.WWDG_SetCounter,"ax",%progbits
 145              		.align	2
 146              		.global	WWDG_SetCounter
 147              		.thumb
 148              		.thumb_func
 150              	WWDG_SetCounter:
 151              	.LFB114:
 195:libs/STM32F4xx_StdPeriph_Driver/src/stm32f4xx_wwdg.c **** }
 196:libs/STM32F4xx_StdPeriph_Driver/src/stm32f4xx_wwdg.c **** 
 197:libs/STM32F4xx_StdPeriph_Driver/src/stm32f4xx_wwdg.c **** /**
 198:libs/STM32F4xx_StdPeriph_Driver/src/stm32f4xx_wwdg.c ****   * @brief  Sets the WWDG counter value.
 199:libs/STM32F4xx_StdPeriph_Driver/src/stm32f4xx_wwdg.c ****   * @param  Counter: specifies the watchdog counter value.
 200:libs/STM32F4xx_StdPeriph_Driver/src/stm32f4xx_wwdg.c ****   *   This parameter must be a number between 0x40 and 0x7F (to prevent generating
 201:libs/STM32F4xx_StdPeriph_Driver/src/stm32f4xx_wwdg.c ****   *   an immediate reset) 
 202:libs/STM32F4xx_StdPeriph_Driver/src/stm32f4xx_wwdg.c ****   * @retval None
 203:libs/STM32F4xx_StdPeriph_Driver/src/stm32f4xx_wwdg.c ****   */
 204:libs/STM32F4xx_StdPeriph_Driver/src/stm32f4xx_wwdg.c **** void WWDG_SetCounter(uint8_t Counter)
 205:libs/STM32F4xx_StdPeriph_Driver/src/stm32f4xx_wwdg.c **** {
 152              		.loc 1 205 0
 153              		.cfi_startproc
 154              		@ args = 0, pretend = 0, frame = 0
 155              		@ frame_needed = 0, uses_anonymous_args = 0
 156              		@ link register save eliminated.
 157              	.LVL7:
 206:libs/STM32F4xx_StdPeriph_Driver/src/stm32f4xx_wwdg.c ****   /* Check the parameters */
 207:libs/STM32F4xx_StdPeriph_Driver/src/stm32f4xx_wwdg.c ****   assert_param(IS_WWDG_COUNTER(Counter));
 208:libs/STM32F4xx_StdPeriph_Driver/src/stm32f4xx_wwdg.c ****   /* Write to T[6:0] bits to configure the counter value, no need to do
 209:libs/STM32F4xx_StdPeriph_Driver/src/stm32f4xx_wwdg.c ****      a read-modify-write; writing a 0 to WDGA bit does nothing */
 210:libs/STM32F4xx_StdPeriph_Driver/src/stm32f4xx_wwdg.c ****   WWDG->CR = Counter & BIT_MASK;
 158              		.loc 1 210 0
 159 0000 00F07F00 		and	r0, r0, #127
 160              	.LVL8:
 161 0004 4FF43053 		mov	r3, #11264
 162 0008 C4F20003 		movt	r3, 16384
 163 000c 1860     		str	r0, [r3]
 164 000e 7047     		bx	lr
 165              		.cfi_endproc
 166              	.LFE114:
 168              		.section	.text.WWDG_Enable,"ax",%progbits
 169              		.align	2
 170              		.global	WWDG_Enable
 171              		.thumb
 172              		.thumb_func
 174              	WWDG_Enable:
 175              	.LFB115:
 211:libs/STM32F4xx_StdPeriph_Driver/src/stm32f4xx_wwdg.c **** }
 212:libs/STM32F4xx_StdPeriph_Driver/src/stm32f4xx_wwdg.c **** /**
 213:libs/STM32F4xx_StdPeriph_Driver/src/stm32f4xx_wwdg.c ****   * @}
 214:libs/STM32F4xx_StdPeriph_Driver/src/stm32f4xx_wwdg.c ****   */
 215:libs/STM32F4xx_StdPeriph_Driver/src/stm32f4xx_wwdg.c **** 
 216:libs/STM32F4xx_StdPeriph_Driver/src/stm32f4xx_wwdg.c **** /** @defgroup WWDG_Group2 WWDG activation functions
 217:libs/STM32F4xx_StdPeriph_Driver/src/stm32f4xx_wwdg.c ****  *  @brief   WWDG activation functions 
 218:libs/STM32F4xx_StdPeriph_Driver/src/stm32f4xx_wwdg.c ****  *
 219:libs/STM32F4xx_StdPeriph_Driver/src/stm32f4xx_wwdg.c **** @verbatim   
 220:libs/STM32F4xx_StdPeriph_Driver/src/stm32f4xx_wwdg.c ****  ===============================================================================
 221:libs/STM32F4xx_StdPeriph_Driver/src/stm32f4xx_wwdg.c ****                        WWDG activation function
 222:libs/STM32F4xx_StdPeriph_Driver/src/stm32f4xx_wwdg.c ****  ===============================================================================  
 223:libs/STM32F4xx_StdPeriph_Driver/src/stm32f4xx_wwdg.c **** 
 224:libs/STM32F4xx_StdPeriph_Driver/src/stm32f4xx_wwdg.c **** @endverbatim
 225:libs/STM32F4xx_StdPeriph_Driver/src/stm32f4xx_wwdg.c ****   * @{
 226:libs/STM32F4xx_StdPeriph_Driver/src/stm32f4xx_wwdg.c ****   */
 227:libs/STM32F4xx_StdPeriph_Driver/src/stm32f4xx_wwdg.c **** 
 228:libs/STM32F4xx_StdPeriph_Driver/src/stm32f4xx_wwdg.c **** /**
 229:libs/STM32F4xx_StdPeriph_Driver/src/stm32f4xx_wwdg.c ****   * @brief  Enables WWDG and load the counter value.                  
 230:libs/STM32F4xx_StdPeriph_Driver/src/stm32f4xx_wwdg.c ****   * @param  Counter: specifies the watchdog counter value.
 231:libs/STM32F4xx_StdPeriph_Driver/src/stm32f4xx_wwdg.c ****   *   This parameter must be a number between 0x40 and 0x7F (to prevent generating
 232:libs/STM32F4xx_StdPeriph_Driver/src/stm32f4xx_wwdg.c ****   *   an immediate reset)
 233:libs/STM32F4xx_StdPeriph_Driver/src/stm32f4xx_wwdg.c ****   * @retval None
 234:libs/STM32F4xx_StdPeriph_Driver/src/stm32f4xx_wwdg.c ****   */
 235:libs/STM32F4xx_StdPeriph_Driver/src/stm32f4xx_wwdg.c **** void WWDG_Enable(uint8_t Counter)
 236:libs/STM32F4xx_StdPeriph_Driver/src/stm32f4xx_wwdg.c **** {
 176              		.loc 1 236 0
 177              		.cfi_startproc
 178              		@ args = 0, pretend = 0, frame = 0
 179              		@ frame_needed = 0, uses_anonymous_args = 0
 180              		@ link register save eliminated.
 181              	.LVL9:
 237:libs/STM32F4xx_StdPeriph_Driver/src/stm32f4xx_wwdg.c ****   /* Check the parameters */
 238:libs/STM32F4xx_StdPeriph_Driver/src/stm32f4xx_wwdg.c ****   assert_param(IS_WWDG_COUNTER(Counter));
 239:libs/STM32F4xx_StdPeriph_Driver/src/stm32f4xx_wwdg.c ****   WWDG->CR = WWDG_CR_WDGA | Counter;
 182              		.loc 1 239 0
 183 0000 40F08000 		orr	r0, r0, #128
 184              	.LVL10:
 185 0004 4FF43053 		mov	r3, #11264
 186 0008 C4F20003 		movt	r3, 16384
 187 000c 1860     		str	r0, [r3]
 188 000e 7047     		bx	lr
 189              		.cfi_endproc
 190              	.LFE115:
 192              		.section	.text.WWDG_GetFlagStatus,"ax",%progbits
 193              		.align	2
 194              		.global	WWDG_GetFlagStatus
 195              		.thumb
 196              		.thumb_func
 198              	WWDG_GetFlagStatus:
 199              	.LFB116:
 240:libs/STM32F4xx_StdPeriph_Driver/src/stm32f4xx_wwdg.c **** }
 241:libs/STM32F4xx_StdPeriph_Driver/src/stm32f4xx_wwdg.c **** /**
 242:libs/STM32F4xx_StdPeriph_Driver/src/stm32f4xx_wwdg.c ****   * @}
 243:libs/STM32F4xx_StdPeriph_Driver/src/stm32f4xx_wwdg.c ****   */
 244:libs/STM32F4xx_StdPeriph_Driver/src/stm32f4xx_wwdg.c **** 
 245:libs/STM32F4xx_StdPeriph_Driver/src/stm32f4xx_wwdg.c **** /** @defgroup WWDG_Group3 Interrupts and flags management functions
 246:libs/STM32F4xx_StdPeriph_Driver/src/stm32f4xx_wwdg.c ****  *  @brief   Interrupts and flags management functions 
 247:libs/STM32F4xx_StdPeriph_Driver/src/stm32f4xx_wwdg.c ****  *
 248:libs/STM32F4xx_StdPeriph_Driver/src/stm32f4xx_wwdg.c **** @verbatim   
 249:libs/STM32F4xx_StdPeriph_Driver/src/stm32f4xx_wwdg.c ****  ===============================================================================
 250:libs/STM32F4xx_StdPeriph_Driver/src/stm32f4xx_wwdg.c ****                  Interrupts and flags management functions
 251:libs/STM32F4xx_StdPeriph_Driver/src/stm32f4xx_wwdg.c ****  ===============================================================================  
 252:libs/STM32F4xx_StdPeriph_Driver/src/stm32f4xx_wwdg.c **** 
 253:libs/STM32F4xx_StdPeriph_Driver/src/stm32f4xx_wwdg.c **** @endverbatim
 254:libs/STM32F4xx_StdPeriph_Driver/src/stm32f4xx_wwdg.c ****   * @{
 255:libs/STM32F4xx_StdPeriph_Driver/src/stm32f4xx_wwdg.c ****   */
 256:libs/STM32F4xx_StdPeriph_Driver/src/stm32f4xx_wwdg.c **** 
 257:libs/STM32F4xx_StdPeriph_Driver/src/stm32f4xx_wwdg.c **** /**
 258:libs/STM32F4xx_StdPeriph_Driver/src/stm32f4xx_wwdg.c ****   * @brief  Checks whether the Early Wakeup interrupt flag is set or not.
 259:libs/STM32F4xx_StdPeriph_Driver/src/stm32f4xx_wwdg.c ****   * @param  None
 260:libs/STM32F4xx_StdPeriph_Driver/src/stm32f4xx_wwdg.c ****   * @retval The new state of the Early Wakeup interrupt flag (SET or RESET)
 261:libs/STM32F4xx_StdPeriph_Driver/src/stm32f4xx_wwdg.c ****   */
 262:libs/STM32F4xx_StdPeriph_Driver/src/stm32f4xx_wwdg.c **** FlagStatus WWDG_GetFlagStatus(void)
 263:libs/STM32F4xx_StdPeriph_Driver/src/stm32f4xx_wwdg.c **** {
 200              		.loc 1 263 0
 201              		.cfi_startproc
 202              		@ args = 0, pretend = 0, frame = 0
 203              		@ frame_needed = 0, uses_anonymous_args = 0
 204              		@ link register save eliminated.
 205              	.LVL11:
 264:libs/STM32F4xx_StdPeriph_Driver/src/stm32f4xx_wwdg.c ****   FlagStatus bitstatus = RESET;
 265:libs/STM32F4xx_StdPeriph_Driver/src/stm32f4xx_wwdg.c ****     
 266:libs/STM32F4xx_StdPeriph_Driver/src/stm32f4xx_wwdg.c ****   if ((WWDG->SR) != (uint32_t)RESET)
 206              		.loc 1 266 0
 207 0000 4FF43053 		mov	r3, #11264
 208 0004 C4F20003 		movt	r3, 16384
 209 0008 9868     		ldr	r0, [r3, #8]
 210              	.LVL12:
 267:libs/STM32F4xx_StdPeriph_Driver/src/stm32f4xx_wwdg.c ****   {
 268:libs/STM32F4xx_StdPeriph_Driver/src/stm32f4xx_wwdg.c ****     bitstatus = SET;
 269:libs/STM32F4xx_StdPeriph_Driver/src/stm32f4xx_wwdg.c ****   }
 270:libs/STM32F4xx_StdPeriph_Driver/src/stm32f4xx_wwdg.c ****   else
 271:libs/STM32F4xx_StdPeriph_Driver/src/stm32f4xx_wwdg.c ****   {
 272:libs/STM32F4xx_StdPeriph_Driver/src/stm32f4xx_wwdg.c ****     bitstatus = RESET;
 273:libs/STM32F4xx_StdPeriph_Driver/src/stm32f4xx_wwdg.c ****   }
 274:libs/STM32F4xx_StdPeriph_Driver/src/stm32f4xx_wwdg.c ****   return bitstatus;
 275:libs/STM32F4xx_StdPeriph_Driver/src/stm32f4xx_wwdg.c **** }
 211              		.loc 1 275 0
 212 000a 0030     		adds	r0, r0, #0
 213 000c 18BF     		it	ne
 214 000e 0120     		movne	r0, #1
 215              	.LVL13:
 216 0010 7047     		bx	lr
 217              		.cfi_endproc
 218              	.LFE116:
 220 0012 00BF     		.section	.text.WWDG_ClearFlag,"ax",%progbits
 221              		.align	2
 222              		.global	WWDG_ClearFlag
 223              		.thumb
 224              		.thumb_func
 226              	WWDG_ClearFlag:
 227              	.LFB117:
 276:libs/STM32F4xx_StdPeriph_Driver/src/stm32f4xx_wwdg.c **** 
 277:libs/STM32F4xx_StdPeriph_Driver/src/stm32f4xx_wwdg.c **** /**
 278:libs/STM32F4xx_StdPeriph_Driver/src/stm32f4xx_wwdg.c ****   * @brief  Clears Early Wakeup interrupt flag.
 279:libs/STM32F4xx_StdPeriph_Driver/src/stm32f4xx_wwdg.c ****   * @param  None
 280:libs/STM32F4xx_StdPeriph_Driver/src/stm32f4xx_wwdg.c ****   * @retval None
 281:libs/STM32F4xx_StdPeriph_Driver/src/stm32f4xx_wwdg.c ****   */
 282:libs/STM32F4xx_StdPeriph_Driver/src/stm32f4xx_wwdg.c **** void WWDG_ClearFlag(void)
 283:libs/STM32F4xx_StdPeriph_Driver/src/stm32f4xx_wwdg.c **** {
 228              		.loc 1 283 0
 229              		.cfi_startproc
 230              		@ args = 0, pretend = 0, frame = 0
 231              		@ frame_needed = 0, uses_anonymous_args = 0
 232              		@ link register save eliminated.
 284:libs/STM32F4xx_StdPeriph_Driver/src/stm32f4xx_wwdg.c ****   WWDG->SR = (uint32_t)RESET;
 233              		.loc 1 284 0
 234 0000 4FF43053 		mov	r3, #11264
 235 0004 C4F20003 		movt	r3, 16384
 236 0008 0022     		movs	r2, #0
 237 000a 9A60     		str	r2, [r3, #8]
 238 000c 7047     		bx	lr
 239              		.cfi_endproc
 240              	.LFE117:
 242 000e 00BF     		.text
 243              	.Letext0:
 244              		.file 2 "/usr/include/newlib/machine/_default_types.h"
 245              		.file 3 "/usr/include/newlib/stdint.h"
 246              		.file 4 "libs/Device/STM32F4xx/Include/stm32f4xx.h"
 247              		.file 5 "libs/CMSIS/Include/core_cm4.h"
 248              		.file 6 "libs/STM32F4xx_StdPeriph_Driver/inc/stm32f4xx_rcc.h"