   1              		.syntax unified
   2              		.cpu cortex-m4
   3              		.eabi_attribute 27, 3
   4              		.fpu fpv4-sp-d16
   5              		.eabi_attribute 20, 1
   6              		.eabi_attribute 21, 1
   7              		.eabi_attribute 23, 3
   8              		.eabi_attribute 24, 1
   9              		.eabi_attribute 25, 1
  10              		.eabi_attribute 26, 1
  11              		.eabi_attribute 30, 6
  12              		.eabi_attribute 34, 1
  13              		.eabi_attribute 18, 4
  14              		.thumb
  15              		.file	"stm32f4xx_gpio.c"
  16              		.text
  17              	.Ltext0:
  18              		.cfi_sections	.debug_frame
  19              		.section	.text.GPIO_DeInit,"ax",%progbits
  20              		.align	2
  21              		.global	GPIO_DeInit
  22              		.thumb
  23              		.thumb_func
  25              	GPIO_DeInit:
  26              	.LFB110:
  27              		.file 1 "libs/STM32F4xx_StdPeriph_Driver/src/stm32f4xx_gpio.c"
   1:libs/STM32F4xx_StdPeriph_Driver/src/stm32f4xx_gpio.c **** /**
   2:libs/STM32F4xx_StdPeriph_Driver/src/stm32f4xx_gpio.c ****   ******************************************************************************
   3:libs/STM32F4xx_StdPeriph_Driver/src/stm32f4xx_gpio.c ****   * @file    stm32f4xx_gpio.c
   4:libs/STM32F4xx_StdPeriph_Driver/src/stm32f4xx_gpio.c ****   * @author  MCD Application Team
   5:libs/STM32F4xx_StdPeriph_Driver/src/stm32f4xx_gpio.c ****   * @version V1.0.0RC1
   6:libs/STM32F4xx_StdPeriph_Driver/src/stm32f4xx_gpio.c ****   * @date    25-August-2011
   7:libs/STM32F4xx_StdPeriph_Driver/src/stm32f4xx_gpio.c ****   * @brief   This file provides firmware functions to manage the following 
   8:libs/STM32F4xx_StdPeriph_Driver/src/stm32f4xx_gpio.c ****   *          functionalities of the GPIO peripheral:           
   9:libs/STM32F4xx_StdPeriph_Driver/src/stm32f4xx_gpio.c ****   *           - Initialization and Configuration
  10:libs/STM32F4xx_StdPeriph_Driver/src/stm32f4xx_gpio.c ****   *           - GPIO Read and Write
  11:libs/STM32F4xx_StdPeriph_Driver/src/stm32f4xx_gpio.c ****   *           - GPIO Alternate functions configuration
  12:libs/STM32F4xx_StdPeriph_Driver/src/stm32f4xx_gpio.c ****   * 
  13:libs/STM32F4xx_StdPeriph_Driver/src/stm32f4xx_gpio.c ****   *  @verbatim
  14:libs/STM32F4xx_StdPeriph_Driver/src/stm32f4xx_gpio.c ****   *
  15:libs/STM32F4xx_StdPeriph_Driver/src/stm32f4xx_gpio.c ****   *          ===================================================================
  16:libs/STM32F4xx_StdPeriph_Driver/src/stm32f4xx_gpio.c ****   *                                 How to use this driver
  17:libs/STM32F4xx_StdPeriph_Driver/src/stm32f4xx_gpio.c ****   *          ===================================================================       
  18:libs/STM32F4xx_StdPeriph_Driver/src/stm32f4xx_gpio.c ****   *           1. Enable the GPIO AHB clock using the following function
  19:libs/STM32F4xx_StdPeriph_Driver/src/stm32f4xx_gpio.c ****   *                RCC_AHB1PeriphClockCmd(RCC_AHB1Periph_GPIOx, ENABLE);
  20:libs/STM32F4xx_StdPeriph_Driver/src/stm32f4xx_gpio.c ****   *             
  21:libs/STM32F4xx_StdPeriph_Driver/src/stm32f4xx_gpio.c ****   *           2. Configure the GPIO pin(s) using GPIO_Init()
  22:libs/STM32F4xx_StdPeriph_Driver/src/stm32f4xx_gpio.c ****   *              Four possible configuration are available for each pin:
  23:libs/STM32F4xx_StdPeriph_Driver/src/stm32f4xx_gpio.c ****   *                - Input: Floating, Pull-up, Pull-down.
  24:libs/STM32F4xx_StdPeriph_Driver/src/stm32f4xx_gpio.c ****   *                - Output: Push-Pull (Pull-up, Pull-down or no Pull)
  25:libs/STM32F4xx_StdPeriph_Driver/src/stm32f4xx_gpio.c ****   *                          Open Drain (Pull-up, Pull-down or no Pull).
  26:libs/STM32F4xx_StdPeriph_Driver/src/stm32f4xx_gpio.c ****   *                  In output mode, the speed is configurable: 2 MHz, 25 MHz,
  27:libs/STM32F4xx_StdPeriph_Driver/src/stm32f4xx_gpio.c ****   *                  50 MHz or 100 MHz.
  28:libs/STM32F4xx_StdPeriph_Driver/src/stm32f4xx_gpio.c ****   *                - Alternate Function: Push-Pull (Pull-up, Pull-down or no Pull)
  29:libs/STM32F4xx_StdPeriph_Driver/src/stm32f4xx_gpio.c ****   *                                      Open Drain (Pull-up, Pull-down or no Pull).
  30:libs/STM32F4xx_StdPeriph_Driver/src/stm32f4xx_gpio.c ****   *                - Analog: required mode when a pin is to be used as ADC channel
  31:libs/STM32F4xx_StdPeriph_Driver/src/stm32f4xx_gpio.c ****   *                          or DAC output.
  32:libs/STM32F4xx_StdPeriph_Driver/src/stm32f4xx_gpio.c ****   * 
  33:libs/STM32F4xx_StdPeriph_Driver/src/stm32f4xx_gpio.c ****   *          3- Peripherals alternate function:
  34:libs/STM32F4xx_StdPeriph_Driver/src/stm32f4xx_gpio.c ****   *              - For ADC and DAC, configure the desired pin in analog mode using 
  35:libs/STM32F4xx_StdPeriph_Driver/src/stm32f4xx_gpio.c ****   *                  GPIO_InitStruct->GPIO_Mode = GPIO_Mode_AN;
  36:libs/STM32F4xx_StdPeriph_Driver/src/stm32f4xx_gpio.c ****   *              - For other peripherals (TIM, USART...):
  37:libs/STM32F4xx_StdPeriph_Driver/src/stm32f4xx_gpio.c ****   *                 - Connect the pin to the desired peripherals' Alternate 
  38:libs/STM32F4xx_StdPeriph_Driver/src/stm32f4xx_gpio.c ****   *                   Function (AF) using GPIO_PinAFConfig() function
  39:libs/STM32F4xx_StdPeriph_Driver/src/stm32f4xx_gpio.c ****   *                 - Configure the desired pin in alternate function mode using
  40:libs/STM32F4xx_StdPeriph_Driver/src/stm32f4xx_gpio.c ****   *                   GPIO_InitStruct->GPIO_Mode = GPIO_Mode_AF
  41:libs/STM32F4xx_StdPeriph_Driver/src/stm32f4xx_gpio.c ****   *                 - Select the type, pull-up/pull-down and output speed via 
  42:libs/STM32F4xx_StdPeriph_Driver/src/stm32f4xx_gpio.c ****   *                   GPIO_PuPd, GPIO_OType and GPIO_Speed members
  43:libs/STM32F4xx_StdPeriph_Driver/src/stm32f4xx_gpio.c ****   *                 - Call GPIO_Init() function
  44:libs/STM32F4xx_StdPeriph_Driver/src/stm32f4xx_gpio.c ****   *        
  45:libs/STM32F4xx_StdPeriph_Driver/src/stm32f4xx_gpio.c ****   *          4. To get the level of a pin configured in input mode use GPIO_ReadInputDataBit()
  46:libs/STM32F4xx_StdPeriph_Driver/src/stm32f4xx_gpio.c ****   *          
  47:libs/STM32F4xx_StdPeriph_Driver/src/stm32f4xx_gpio.c ****   *          5. To set/reset the level of a pin configured in output mode use
  48:libs/STM32F4xx_StdPeriph_Driver/src/stm32f4xx_gpio.c ****   *             GPIO_SetBits()/GPIO_ResetBits()
  49:libs/STM32F4xx_StdPeriph_Driver/src/stm32f4xx_gpio.c ****   *               
  50:libs/STM32F4xx_StdPeriph_Driver/src/stm32f4xx_gpio.c ****   *          6. During and just after reset, the alternate functions are not 
  51:libs/STM32F4xx_StdPeriph_Driver/src/stm32f4xx_gpio.c ****   *             active and the GPIO pins are configured in input floating mode
  52:libs/STM32F4xx_StdPeriph_Driver/src/stm32f4xx_gpio.c ****   *             (except JTAG pins).
  53:libs/STM32F4xx_StdPeriph_Driver/src/stm32f4xx_gpio.c ****   *
  54:libs/STM32F4xx_StdPeriph_Driver/src/stm32f4xx_gpio.c ****   *          7. The LSE oscillator pins OSC32_IN and OSC32_OUT can be used as 
  55:libs/STM32F4xx_StdPeriph_Driver/src/stm32f4xx_gpio.c ****   *             general-purpose (PC14 and PC15, respectively) when the LSE
  56:libs/STM32F4xx_StdPeriph_Driver/src/stm32f4xx_gpio.c ****   *             oscillator is off. The LSE has priority over the GPIO function.
  57:libs/STM32F4xx_StdPeriph_Driver/src/stm32f4xx_gpio.c ****   *
  58:libs/STM32F4xx_StdPeriph_Driver/src/stm32f4xx_gpio.c ****   *          8. The HSE oscillator pins OSC_IN/OSC_OUT can be used as 
  59:libs/STM32F4xx_StdPeriph_Driver/src/stm32f4xx_gpio.c ****   *             general-purpose PH0 and PH1, respectively, when the HSE 
  60:libs/STM32F4xx_StdPeriph_Driver/src/stm32f4xx_gpio.c ****   *             oscillator is off. The HSE has priority over the GPIO function.
  61:libs/STM32F4xx_StdPeriph_Driver/src/stm32f4xx_gpio.c ****   *             
  62:libs/STM32F4xx_StdPeriph_Driver/src/stm32f4xx_gpio.c ****   *  @endverbatim        
  63:libs/STM32F4xx_StdPeriph_Driver/src/stm32f4xx_gpio.c ****   *
  64:libs/STM32F4xx_StdPeriph_Driver/src/stm32f4xx_gpio.c ****   ******************************************************************************
  65:libs/STM32F4xx_StdPeriph_Driver/src/stm32f4xx_gpio.c ****   * @attention
  66:libs/STM32F4xx_StdPeriph_Driver/src/stm32f4xx_gpio.c ****   *
  67:libs/STM32F4xx_StdPeriph_Driver/src/stm32f4xx_gpio.c ****   * THE PRESENT FIRMWARE WHICH IS FOR GUIDANCE ONLY AIMS AT PROVIDING CUSTOMERS
  68:libs/STM32F4xx_StdPeriph_Driver/src/stm32f4xx_gpio.c ****   * WITH CODING INFORMATION REGARDING THEIR PRODUCTS IN ORDER FOR THEM TO SAVE
  69:libs/STM32F4xx_StdPeriph_Driver/src/stm32f4xx_gpio.c ****   * TIME. AS A RESULT, STMICROELECTRONICS SHALL NOT BE HELD LIABLE FOR ANY
  70:libs/STM32F4xx_StdPeriph_Driver/src/stm32f4xx_gpio.c ****   * DIRECT, INDIRECT OR CONSEQUENTIAL DAMAGES WITH RESPECT TO ANY CLAIMS ARISING
  71:libs/STM32F4xx_StdPeriph_Driver/src/stm32f4xx_gpio.c ****   * FROM THE CONTENT OF SUCH FIRMWARE AND/OR THE USE MADE BY CUSTOMERS OF THE
  72:libs/STM32F4xx_StdPeriph_Driver/src/stm32f4xx_gpio.c ****   * CODING INFORMATION CONTAINED HEREIN IN CONNECTION WITH THEIR PRODUCTS.
  73:libs/STM32F4xx_StdPeriph_Driver/src/stm32f4xx_gpio.c ****   *
  74:libs/STM32F4xx_StdPeriph_Driver/src/stm32f4xx_gpio.c ****   * <h2><center>&copy; COPYRIGHT 2011 STMicroelectronics</center></h2>
  75:libs/STM32F4xx_StdPeriph_Driver/src/stm32f4xx_gpio.c ****   ******************************************************************************
  76:libs/STM32F4xx_StdPeriph_Driver/src/stm32f4xx_gpio.c ****   */
  77:libs/STM32F4xx_StdPeriph_Driver/src/stm32f4xx_gpio.c **** 
  78:libs/STM32F4xx_StdPeriph_Driver/src/stm32f4xx_gpio.c **** /* Includes ------------------------------------------------------------------*/
  79:libs/STM32F4xx_StdPeriph_Driver/src/stm32f4xx_gpio.c **** #include "stm32f4xx_gpio.h"
  80:libs/STM32F4xx_StdPeriph_Driver/src/stm32f4xx_gpio.c **** #include "stm32f4xx_rcc.h"
  81:libs/STM32F4xx_StdPeriph_Driver/src/stm32f4xx_gpio.c **** 
  82:libs/STM32F4xx_StdPeriph_Driver/src/stm32f4xx_gpio.c **** /** @addtogroup STM32F4xx_StdPeriph_Driver
  83:libs/STM32F4xx_StdPeriph_Driver/src/stm32f4xx_gpio.c ****   * @{
  84:libs/STM32F4xx_StdPeriph_Driver/src/stm32f4xx_gpio.c ****   */
  85:libs/STM32F4xx_StdPeriph_Driver/src/stm32f4xx_gpio.c **** 
  86:libs/STM32F4xx_StdPeriph_Driver/src/stm32f4xx_gpio.c **** /** @defgroup GPIO 
  87:libs/STM32F4xx_StdPeriph_Driver/src/stm32f4xx_gpio.c ****   * @brief GPIO driver modules
  88:libs/STM32F4xx_StdPeriph_Driver/src/stm32f4xx_gpio.c ****   * @{
  89:libs/STM32F4xx_StdPeriph_Driver/src/stm32f4xx_gpio.c ****   */ 
  90:libs/STM32F4xx_StdPeriph_Driver/src/stm32f4xx_gpio.c **** 
  91:libs/STM32F4xx_StdPeriph_Driver/src/stm32f4xx_gpio.c **** /* Private typedef -----------------------------------------------------------*/
  92:libs/STM32F4xx_StdPeriph_Driver/src/stm32f4xx_gpio.c **** /* Private define ------------------------------------------------------------*/
  93:libs/STM32F4xx_StdPeriph_Driver/src/stm32f4xx_gpio.c **** /* Private macro -------------------------------------------------------------*/
  94:libs/STM32F4xx_StdPeriph_Driver/src/stm32f4xx_gpio.c **** /* Private variables ---------------------------------------------------------*/
  95:libs/STM32F4xx_StdPeriph_Driver/src/stm32f4xx_gpio.c **** /* Private function prototypes -----------------------------------------------*/
  96:libs/STM32F4xx_StdPeriph_Driver/src/stm32f4xx_gpio.c **** /* Private functions ---------------------------------------------------------*/
  97:libs/STM32F4xx_StdPeriph_Driver/src/stm32f4xx_gpio.c **** 
  98:libs/STM32F4xx_StdPeriph_Driver/src/stm32f4xx_gpio.c **** /** @defgroup GPIO_Private_Functions
  99:libs/STM32F4xx_StdPeriph_Driver/src/stm32f4xx_gpio.c ****   * @{
 100:libs/STM32F4xx_StdPeriph_Driver/src/stm32f4xx_gpio.c ****   */ 
 101:libs/STM32F4xx_StdPeriph_Driver/src/stm32f4xx_gpio.c **** 
 102:libs/STM32F4xx_StdPeriph_Driver/src/stm32f4xx_gpio.c **** /** @defgroup GPIO_Group1 Initialization and Configuration
 103:libs/STM32F4xx_StdPeriph_Driver/src/stm32f4xx_gpio.c ****  *  @brief   Initialization and Configuration
 104:libs/STM32F4xx_StdPeriph_Driver/src/stm32f4xx_gpio.c ****  *
 105:libs/STM32F4xx_StdPeriph_Driver/src/stm32f4xx_gpio.c **** @verbatim   
 106:libs/STM32F4xx_StdPeriph_Driver/src/stm32f4xx_gpio.c ****  ===============================================================================
 107:libs/STM32F4xx_StdPeriph_Driver/src/stm32f4xx_gpio.c ****                         Initialization and Configuration
 108:libs/STM32F4xx_StdPeriph_Driver/src/stm32f4xx_gpio.c ****  ===============================================================================  
 109:libs/STM32F4xx_StdPeriph_Driver/src/stm32f4xx_gpio.c **** 
 110:libs/STM32F4xx_StdPeriph_Driver/src/stm32f4xx_gpio.c **** @endverbatim
 111:libs/STM32F4xx_StdPeriph_Driver/src/stm32f4xx_gpio.c ****   * @{
 112:libs/STM32F4xx_StdPeriph_Driver/src/stm32f4xx_gpio.c ****   */
 113:libs/STM32F4xx_StdPeriph_Driver/src/stm32f4xx_gpio.c **** 
 114:libs/STM32F4xx_StdPeriph_Driver/src/stm32f4xx_gpio.c **** /**
 115:libs/STM32F4xx_StdPeriph_Driver/src/stm32f4xx_gpio.c ****   * @brief  Deinitializes the GPIOx peripheral registers to their default reset values.
 116:libs/STM32F4xx_StdPeriph_Driver/src/stm32f4xx_gpio.c ****   * @note   By default, The GPIO pins are configured in input floating mode (except JTAG pins).
 117:libs/STM32F4xx_StdPeriph_Driver/src/stm32f4xx_gpio.c ****   * @param  GPIOx: where x can be (A..I) to select the GPIO peripheral.
 118:libs/STM32F4xx_StdPeriph_Driver/src/stm32f4xx_gpio.c ****   * @retval None
 119:libs/STM32F4xx_StdPeriph_Driver/src/stm32f4xx_gpio.c ****   */
 120:libs/STM32F4xx_StdPeriph_Driver/src/stm32f4xx_gpio.c **** void GPIO_DeInit(GPIO_TypeDef* GPIOx)
 121:libs/STM32F4xx_StdPeriph_Driver/src/stm32f4xx_gpio.c **** {
  28              		.loc 1 121 0
  29              		.cfi_startproc
  30              		@ args = 0, pretend = 0, frame = 8
  31              		@ frame_needed = 1, uses_anonymous_args = 0
  32 0000 80B5     		push	{r7, lr}
  33              	.LCFI0:
  34              		.cfi_def_cfa_offset 8
  35              		.cfi_offset 7, -8
  36              		.cfi_offset 14, -4
  37 0002 82B0     		sub	sp, sp, #8
  38              	.LCFI1:
  39              		.cfi_def_cfa_offset 16
  40 0004 00AF     		add	r7, sp, #0
  41              	.LCFI2:
  42              		.cfi_def_cfa_register 7
  43 0006 7860     		str	r0, [r7, #4]
 122:libs/STM32F4xx_StdPeriph_Driver/src/stm32f4xx_gpio.c ****   /* Check the parameters */
 123:libs/STM32F4xx_StdPeriph_Driver/src/stm32f4xx_gpio.c ****   assert_param(IS_GPIO_ALL_PERIPH(GPIOx));
 124:libs/STM32F4xx_StdPeriph_Driver/src/stm32f4xx_gpio.c **** 
 125:libs/STM32F4xx_StdPeriph_Driver/src/stm32f4xx_gpio.c ****   if (GPIOx == GPIOA)
  44              		.loc 1 125 0
  45 0008 7A68     		ldr	r2, [r7, #4]
  46 000a 0023     		movs	r3, #0
  47 000c C4F20203 		movt	r3, 16386
  48 0010 9A42     		cmp	r2, r3
  49 0012 08D1     		bne	.L2
 126:libs/STM32F4xx_StdPeriph_Driver/src/stm32f4xx_gpio.c ****   {
 127:libs/STM32F4xx_StdPeriph_Driver/src/stm32f4xx_gpio.c ****     RCC_AHB1PeriphResetCmd(RCC_AHB1Periph_GPIOA, ENABLE);
  50              		.loc 1 127 0
  51 0014 0120     		movs	r0, #1
  52 0016 0121     		movs	r1, #1
  53 0018 FFF7FEFF 		bl	RCC_AHB1PeriphResetCmd
 128:libs/STM32F4xx_StdPeriph_Driver/src/stm32f4xx_gpio.c ****     RCC_AHB1PeriphResetCmd(RCC_AHB1Periph_GPIOA, DISABLE);
  54              		.loc 1 128 0
  55 001c 0120     		movs	r0, #1
  56 001e 0021     		movs	r1, #0
  57 0020 FFF7FEFF 		bl	RCC_AHB1PeriphResetCmd
  58 0024 80E0     		b	.L1
  59              	.L2:
 129:libs/STM32F4xx_StdPeriph_Driver/src/stm32f4xx_gpio.c ****   }
 130:libs/STM32F4xx_StdPeriph_Driver/src/stm32f4xx_gpio.c ****   else if (GPIOx == GPIOB)
  60              		.loc 1 130 0
  61 0026 7A68     		ldr	r2, [r7, #4]
  62 0028 4FF48063 		mov	r3, #1024
  63 002c C4F20203 		movt	r3, 16386
  64 0030 9A42     		cmp	r2, r3
  65 0032 08D1     		bne	.L4
 131:libs/STM32F4xx_StdPeriph_Driver/src/stm32f4xx_gpio.c ****   {
 132:libs/STM32F4xx_StdPeriph_Driver/src/stm32f4xx_gpio.c ****     RCC_AHB1PeriphResetCmd(RCC_AHB1Periph_GPIOB, ENABLE);
  66              		.loc 1 132 0
  67 0034 0220     		movs	r0, #2
  68 0036 0121     		movs	r1, #1
  69 0038 FFF7FEFF 		bl	RCC_AHB1PeriphResetCmd
 133:libs/STM32F4xx_StdPeriph_Driver/src/stm32f4xx_gpio.c ****     RCC_AHB1PeriphResetCmd(RCC_AHB1Periph_GPIOB, DISABLE);
  70              		.loc 1 133 0
  71 003c 0220     		movs	r0, #2
  72 003e 0021     		movs	r1, #0
  73 0040 FFF7FEFF 		bl	RCC_AHB1PeriphResetCmd
  74 0044 70E0     		b	.L1
  75              	.L4:
 134:libs/STM32F4xx_StdPeriph_Driver/src/stm32f4xx_gpio.c ****   }
 135:libs/STM32F4xx_StdPeriph_Driver/src/stm32f4xx_gpio.c ****   else if (GPIOx == GPIOC)
  76              		.loc 1 135 0
  77 0046 7A68     		ldr	r2, [r7, #4]
  78 0048 4FF40063 		mov	r3, #2048
  79 004c C4F20203 		movt	r3, 16386
  80 0050 9A42     		cmp	r2, r3
  81 0052 08D1     		bne	.L5
 136:libs/STM32F4xx_StdPeriph_Driver/src/stm32f4xx_gpio.c ****   {
 137:libs/STM32F4xx_StdPeriph_Driver/src/stm32f4xx_gpio.c ****     RCC_AHB1PeriphResetCmd(RCC_AHB1Periph_GPIOC, ENABLE);
  82              		.loc 1 137 0
  83 0054 0420     		movs	r0, #4
  84 0056 0121     		movs	r1, #1
  85 0058 FFF7FEFF 		bl	RCC_AHB1PeriphResetCmd
 138:libs/STM32F4xx_StdPeriph_Driver/src/stm32f4xx_gpio.c ****     RCC_AHB1PeriphResetCmd(RCC_AHB1Periph_GPIOC, DISABLE);
  86              		.loc 1 138 0
  87 005c 0420     		movs	r0, #4
  88 005e 0021     		movs	r1, #0
  89 0060 FFF7FEFF 		bl	RCC_AHB1PeriphResetCmd
  90 0064 60E0     		b	.L1
  91              	.L5:
 139:libs/STM32F4xx_StdPeriph_Driver/src/stm32f4xx_gpio.c ****   }
 140:libs/STM32F4xx_StdPeriph_Driver/src/stm32f4xx_gpio.c ****   else if (GPIOx == GPIOD)
  92              		.loc 1 140 0
  93 0066 7A68     		ldr	r2, [r7, #4]
  94 0068 4FF44063 		mov	r3, #3072
  95 006c C4F20203 		movt	r3, 16386
  96 0070 9A42     		cmp	r2, r3
  97 0072 08D1     		bne	.L6
 141:libs/STM32F4xx_StdPeriph_Driver/src/stm32f4xx_gpio.c ****   {
 142:libs/STM32F4xx_StdPeriph_Driver/src/stm32f4xx_gpio.c ****     RCC_AHB1PeriphResetCmd(RCC_AHB1Periph_GPIOD, ENABLE);
  98              		.loc 1 142 0
  99 0074 0820     		movs	r0, #8
 100 0076 0121     		movs	r1, #1
 101 0078 FFF7FEFF 		bl	RCC_AHB1PeriphResetCmd
 143:libs/STM32F4xx_StdPeriph_Driver/src/stm32f4xx_gpio.c ****     RCC_AHB1PeriphResetCmd(RCC_AHB1Periph_GPIOD, DISABLE);
 102              		.loc 1 143 0
 103 007c 0820     		movs	r0, #8
 104 007e 0021     		movs	r1, #0
 105 0080 FFF7FEFF 		bl	RCC_AHB1PeriphResetCmd
 106 0084 50E0     		b	.L1
 107              	.L6:
 144:libs/STM32F4xx_StdPeriph_Driver/src/stm32f4xx_gpio.c ****   }
 145:libs/STM32F4xx_StdPeriph_Driver/src/stm32f4xx_gpio.c ****   else if (GPIOx == GPIOE)
 108              		.loc 1 145 0
 109 0086 7A68     		ldr	r2, [r7, #4]
 110 0088 4FF48053 		mov	r3, #4096
 111 008c C4F20203 		movt	r3, 16386
 112 0090 9A42     		cmp	r2, r3
 113 0092 08D1     		bne	.L7
 146:libs/STM32F4xx_StdPeriph_Driver/src/stm32f4xx_gpio.c ****   {
 147:libs/STM32F4xx_StdPeriph_Driver/src/stm32f4xx_gpio.c ****     RCC_AHB1PeriphResetCmd(RCC_AHB1Periph_GPIOE, ENABLE);
 114              		.loc 1 147 0
 115 0094 1020     		movs	r0, #16
 116 0096 0121     		movs	r1, #1
 117 0098 FFF7FEFF 		bl	RCC_AHB1PeriphResetCmd
 148:libs/STM32F4xx_StdPeriph_Driver/src/stm32f4xx_gpio.c ****     RCC_AHB1PeriphResetCmd(RCC_AHB1Periph_GPIOE, DISABLE);
 118              		.loc 1 148 0
 119 009c 1020     		movs	r0, #16
 120 009e 0021     		movs	r1, #0
 121 00a0 FFF7FEFF 		bl	RCC_AHB1PeriphResetCmd
 122 00a4 40E0     		b	.L1
 123              	.L7:
 149:libs/STM32F4xx_StdPeriph_Driver/src/stm32f4xx_gpio.c ****   }
 150:libs/STM32F4xx_StdPeriph_Driver/src/stm32f4xx_gpio.c ****   else if (GPIOx == GPIOF)
 124              		.loc 1 150 0
 125 00a6 7A68     		ldr	r2, [r7, #4]
 126 00a8 4FF4A053 		mov	r3, #5120
 127 00ac C4F20203 		movt	r3, 16386
 128 00b0 9A42     		cmp	r2, r3
 129 00b2 08D1     		bne	.L8
 151:libs/STM32F4xx_StdPeriph_Driver/src/stm32f4xx_gpio.c ****   {
 152:libs/STM32F4xx_StdPeriph_Driver/src/stm32f4xx_gpio.c ****     RCC_AHB1PeriphResetCmd(RCC_AHB1Periph_GPIOF, ENABLE);
 130              		.loc 1 152 0
 131 00b4 2020     		movs	r0, #32
 132 00b6 0121     		movs	r1, #1
 133 00b8 FFF7FEFF 		bl	RCC_AHB1PeriphResetCmd
 153:libs/STM32F4xx_StdPeriph_Driver/src/stm32f4xx_gpio.c ****     RCC_AHB1PeriphResetCmd(RCC_AHB1Periph_GPIOF, DISABLE);
 134              		.loc 1 153 0
 135 00bc 2020     		movs	r0, #32
 136 00be 0021     		movs	r1, #0
 137 00c0 FFF7FEFF 		bl	RCC_AHB1PeriphResetCmd
 138 00c4 30E0     		b	.L1
 139              	.L8:
 154:libs/STM32F4xx_StdPeriph_Driver/src/stm32f4xx_gpio.c ****   }
 155:libs/STM32F4xx_StdPeriph_Driver/src/stm32f4xx_gpio.c ****   else if (GPIOx == GPIOG)
 140              		.loc 1 155 0
 141 00c6 7A68     		ldr	r2, [r7, #4]
 142 00c8 4FF4C053 		mov	r3, #6144
 143 00cc C4F20203 		movt	r3, 16386
 144 00d0 9A42     		cmp	r2, r3
 145 00d2 08D1     		bne	.L9
 156:libs/STM32F4xx_StdPeriph_Driver/src/stm32f4xx_gpio.c ****   {
 157:libs/STM32F4xx_StdPeriph_Driver/src/stm32f4xx_gpio.c ****     RCC_AHB1PeriphResetCmd(RCC_AHB1Periph_GPIOG, ENABLE);
 146              		.loc 1 157 0
 147 00d4 4020     		movs	r0, #64
 148 00d6 0121     		movs	r1, #1
 149 00d8 FFF7FEFF 		bl	RCC_AHB1PeriphResetCmd
 158:libs/STM32F4xx_StdPeriph_Driver/src/stm32f4xx_gpio.c ****     RCC_AHB1PeriphResetCmd(RCC_AHB1Periph_GPIOG, DISABLE);
 150              		.loc 1 158 0
 151 00dc 4020     		movs	r0, #64
 152 00de 0021     		movs	r1, #0
 153 00e0 FFF7FEFF 		bl	RCC_AHB1PeriphResetCmd
 154 00e4 20E0     		b	.L1
 155              	.L9:
 159:libs/STM32F4xx_StdPeriph_Driver/src/stm32f4xx_gpio.c ****   }
 160:libs/STM32F4xx_StdPeriph_Driver/src/stm32f4xx_gpio.c ****   else if (GPIOx == GPIOH)
 156              		.loc 1 160 0
 157 00e6 7A68     		ldr	r2, [r7, #4]
 158 00e8 4FF4E053 		mov	r3, #7168
 159 00ec C4F20203 		movt	r3, 16386
 160 00f0 9A42     		cmp	r2, r3
 161 00f2 08D1     		bne	.L10
 161:libs/STM32F4xx_StdPeriph_Driver/src/stm32f4xx_gpio.c ****   {
 162:libs/STM32F4xx_StdPeriph_Driver/src/stm32f4xx_gpio.c ****     RCC_AHB1PeriphResetCmd(RCC_AHB1Periph_GPIOH, ENABLE);
 162              		.loc 1 162 0
 163 00f4 8020     		movs	r0, #128
 164 00f6 0121     		movs	r1, #1
 165 00f8 FFF7FEFF 		bl	RCC_AHB1PeriphResetCmd
 163:libs/STM32F4xx_StdPeriph_Driver/src/stm32f4xx_gpio.c ****     RCC_AHB1PeriphResetCmd(RCC_AHB1Periph_GPIOH, DISABLE);
 166              		.loc 1 163 0
 167 00fc 8020     		movs	r0, #128
 168 00fe 0021     		movs	r1, #0
 169 0100 FFF7FEFF 		bl	RCC_AHB1PeriphResetCmd
 170 0104 10E0     		b	.L1
 171              	.L10:
 164:libs/STM32F4xx_StdPeriph_Driver/src/stm32f4xx_gpio.c ****   }
 165:libs/STM32F4xx_StdPeriph_Driver/src/stm32f4xx_gpio.c ****   else
 166:libs/STM32F4xx_StdPeriph_Driver/src/stm32f4xx_gpio.c ****   {
 167:libs/STM32F4xx_StdPeriph_Driver/src/stm32f4xx_gpio.c ****     if (GPIOx == GPIOI)
 172              		.loc 1 167 0
 173 0106 7A68     		ldr	r2, [r7, #4]
 174 0108 4FF40053 		mov	r3, #8192
 175 010c C4F20203 		movt	r3, 16386
 176 0110 9A42     		cmp	r2, r3
 177 0112 09D1     		bne	.L1
 168:libs/STM32F4xx_StdPeriph_Driver/src/stm32f4xx_gpio.c ****     {
 169:libs/STM32F4xx_StdPeriph_Driver/src/stm32f4xx_gpio.c ****       RCC_AHB1PeriphResetCmd(RCC_AHB1Periph_GPIOI, ENABLE);
 178              		.loc 1 169 0
 179 0114 4FF48070 		mov	r0, #256
 180 0118 0121     		movs	r1, #1
 181 011a FFF7FEFF 		bl	RCC_AHB1PeriphResetCmd
 170:libs/STM32F4xx_StdPeriph_Driver/src/stm32f4xx_gpio.c ****       RCC_AHB1PeriphResetCmd(RCC_AHB1Periph_GPIOI, DISABLE);
 182              		.loc 1 170 0
 183 011e 4FF48070 		mov	r0, #256
 184 0122 0021     		movs	r1, #0
 185 0124 FFF7FEFF 		bl	RCC_AHB1PeriphResetCmd
 186              	.L1:
 171:libs/STM32F4xx_StdPeriph_Driver/src/stm32f4xx_gpio.c ****     }
 172:libs/STM32F4xx_StdPeriph_Driver/src/stm32f4xx_gpio.c ****   }
 173:libs/STM32F4xx_StdPeriph_Driver/src/stm32f4xx_gpio.c **** }
 187              		.loc 1 173 0
 188 0128 0837     		adds	r7, r7, #8
 189 012a BD46     		mov	sp, r7
 190              		@ sp needed
 191 012c 80BD     		pop	{r7, pc}
 192              		.cfi_endproc
 193              	.LFE110:
 195 012e 00BF     		.section	.text.GPIO_Init,"ax",%progbits
 196              		.align	2
 197              		.global	GPIO_Init
 198              		.thumb
 199              		.thumb_func
 201              	GPIO_Init:
 202              	.LFB111:
 174:libs/STM32F4xx_StdPeriph_Driver/src/stm32f4xx_gpio.c **** 
 175:libs/STM32F4xx_StdPeriph_Driver/src/stm32f4xx_gpio.c **** /**
 176:libs/STM32F4xx_StdPeriph_Driver/src/stm32f4xx_gpio.c ****   * @brief  Initializes the GPIOx peripheral according to the specified parameters in the GPIO_Init
 177:libs/STM32F4xx_StdPeriph_Driver/src/stm32f4xx_gpio.c ****   * @param  GPIOx: where x can be (A..I) to select the GPIO peripheral.
 178:libs/STM32F4xx_StdPeriph_Driver/src/stm32f4xx_gpio.c ****   * @param  GPIO_InitStruct: pointer to a GPIO_InitTypeDef structure that contains
 179:libs/STM32F4xx_StdPeriph_Driver/src/stm32f4xx_gpio.c ****   *         the configuration information for the specified GPIO peripheral.
 180:libs/STM32F4xx_StdPeriph_Driver/src/stm32f4xx_gpio.c ****   * @retval None
 181:libs/STM32F4xx_StdPeriph_Driver/src/stm32f4xx_gpio.c ****   */
 182:libs/STM32F4xx_StdPeriph_Driver/src/stm32f4xx_gpio.c **** void GPIO_Init(GPIO_TypeDef* GPIOx, GPIO_InitTypeDef* GPIO_InitStruct)
 183:libs/STM32F4xx_StdPeriph_Driver/src/stm32f4xx_gpio.c **** {
 203              		.loc 1 183 0
 204              		.cfi_startproc
 205              		@ args = 0, pretend = 0, frame = 24
 206              		@ frame_needed = 1, uses_anonymous_args = 0
 207              		@ link register save eliminated.
 208 0000 80B4     		push	{r7}
 209              	.LCFI3:
 210              		.cfi_def_cfa_offset 4
 211              		.cfi_offset 7, -4
 212 0002 87B0     		sub	sp, sp, #28
 213              	.LCFI4:
 214              		.cfi_def_cfa_offset 32
 215 0004 00AF     		add	r7, sp, #0
 216              	.LCFI5:
 217              		.cfi_def_cfa_register 7
 218 0006 7860     		str	r0, [r7, #4]
 219 0008 3960     		str	r1, [r7]
 184:libs/STM32F4xx_StdPeriph_Driver/src/stm32f4xx_gpio.c ****   uint32_t pinpos = 0x00, pos = 0x00 , currentpin = 0x00;
 220              		.loc 1 184 0
 221 000a 0023     		movs	r3, #0
 222 000c 7B61     		str	r3, [r7, #20]
 223 000e 0023     		movs	r3, #0
 224 0010 3B61     		str	r3, [r7, #16]
 225 0012 0023     		movs	r3, #0
 226 0014 FB60     		str	r3, [r7, #12]
 185:libs/STM32F4xx_StdPeriph_Driver/src/stm32f4xx_gpio.c **** 
 186:libs/STM32F4xx_StdPeriph_Driver/src/stm32f4xx_gpio.c ****   /* Check the parameters */
 187:libs/STM32F4xx_StdPeriph_Driver/src/stm32f4xx_gpio.c ****   assert_param(IS_GPIO_ALL_PERIPH(GPIOx));
 188:libs/STM32F4xx_StdPeriph_Driver/src/stm32f4xx_gpio.c ****   assert_param(IS_GPIO_PIN(GPIO_InitStruct->GPIO_Pin));
 189:libs/STM32F4xx_StdPeriph_Driver/src/stm32f4xx_gpio.c ****   assert_param(IS_GPIO_MODE(GPIO_InitStruct->GPIO_Mode));
 190:libs/STM32F4xx_StdPeriph_Driver/src/stm32f4xx_gpio.c ****   assert_param(IS_GPIO_PUPD(GPIO_InitStruct->GPIO_PuPd));
 191:libs/STM32F4xx_StdPeriph_Driver/src/stm32f4xx_gpio.c **** 
 192:libs/STM32F4xx_StdPeriph_Driver/src/stm32f4xx_gpio.c ****   /* -------------------------Configure the port pins---------------- */
 193:libs/STM32F4xx_StdPeriph_Driver/src/stm32f4xx_gpio.c ****   /*-- GPIO Mode Configuration --*/
 194:libs/STM32F4xx_StdPeriph_Driver/src/stm32f4xx_gpio.c ****   for (pinpos = 0x00; pinpos < 0x10; pinpos++)
 227              		.loc 1 194 0
 228 0016 0023     		movs	r3, #0
 229 0018 7B61     		str	r3, [r7, #20]
 230 001a 76E0     		b	.L12
 231              	.L16:
 195:libs/STM32F4xx_StdPeriph_Driver/src/stm32f4xx_gpio.c ****   {
 196:libs/STM32F4xx_StdPeriph_Driver/src/stm32f4xx_gpio.c ****     pos = ((uint32_t)0x01) << pinpos;
 232              		.loc 1 196 0
 233 001c 7B69     		ldr	r3, [r7, #20]
 234 001e 0122     		movs	r2, #1
 235 0020 02FA03F3 		lsl	r3, r2, r3
 236 0024 3B61     		str	r3, [r7, #16]
 197:libs/STM32F4xx_StdPeriph_Driver/src/stm32f4xx_gpio.c ****     /* Get the port pins position */
 198:libs/STM32F4xx_StdPeriph_Driver/src/stm32f4xx_gpio.c ****     currentpin = (GPIO_InitStruct->GPIO_Pin) & pos;
 237              		.loc 1 198 0
 238 0026 3B68     		ldr	r3, [r7]
 239 0028 1A68     		ldr	r2, [r3]
 240 002a 3B69     		ldr	r3, [r7, #16]
 241 002c 1340     		ands	r3, r3, r2
 242 002e FB60     		str	r3, [r7, #12]
 199:libs/STM32F4xx_StdPeriph_Driver/src/stm32f4xx_gpio.c **** 
 200:libs/STM32F4xx_StdPeriph_Driver/src/stm32f4xx_gpio.c ****     if (currentpin == pos)
 243              		.loc 1 200 0
 244 0030 FA68     		ldr	r2, [r7, #12]
 245 0032 3B69     		ldr	r3, [r7, #16]
 246 0034 9A42     		cmp	r2, r3
 247 0036 65D1     		bne	.L13
 201:libs/STM32F4xx_StdPeriph_Driver/src/stm32f4xx_gpio.c ****     {
 202:libs/STM32F4xx_StdPeriph_Driver/src/stm32f4xx_gpio.c ****       GPIOx->MODER  &= ~(GPIO_MODER_MODER0 << (pinpos * 2));
 248              		.loc 1 202 0
 249 0038 7B68     		ldr	r3, [r7, #4]
 250 003a 1A68     		ldr	r2, [r3]
 251 003c 7B69     		ldr	r3, [r7, #20]
 252 003e 5B00     		lsls	r3, r3, #1
 253 0040 0321     		movs	r1, #3
 254 0042 01FA03F3 		lsl	r3, r1, r3
 255 0046 DB43     		mvns	r3, r3
 256 0048 1A40     		ands	r2, r2, r3
 257 004a 7B68     		ldr	r3, [r7, #4]
 258 004c 1A60     		str	r2, [r3]
 203:libs/STM32F4xx_StdPeriph_Driver/src/stm32f4xx_gpio.c ****       GPIOx->MODER |= (((uint32_t)GPIO_InitStruct->GPIO_Mode) << (pinpos * 2));
 259              		.loc 1 203 0
 260 004e 7B68     		ldr	r3, [r7, #4]
 261 0050 1A68     		ldr	r2, [r3]
 262 0052 3B68     		ldr	r3, [r7]
 263 0054 1B79     		ldrb	r3, [r3, #4]	@ zero_extendqisi2
 264 0056 1946     		mov	r1, r3
 265 0058 7B69     		ldr	r3, [r7, #20]
 266 005a 5B00     		lsls	r3, r3, #1
 267 005c 01FA03F3 		lsl	r3, r1, r3
 268 0060 1A43     		orrs	r2, r2, r3
 269 0062 7B68     		ldr	r3, [r7, #4]
 270 0064 1A60     		str	r2, [r3]
 204:libs/STM32F4xx_StdPeriph_Driver/src/stm32f4xx_gpio.c **** 
 205:libs/STM32F4xx_StdPeriph_Driver/src/stm32f4xx_gpio.c ****       if ((GPIO_InitStruct->GPIO_Mode == GPIO_Mode_OUT) || (GPIO_InitStruct->GPIO_Mode == GPIO_Mode
 271              		.loc 1 205 0
 272 0066 3B68     		ldr	r3, [r7]
 273 0068 1B79     		ldrb	r3, [r3, #4]	@ zero_extendqisi2
 274 006a 012B     		cmp	r3, #1
 275 006c 03D0     		beq	.L14
 276              		.loc 1 205 0 is_stmt 0 discriminator 1
 277 006e 3B68     		ldr	r3, [r7]
 278 0070 1B79     		ldrb	r3, [r3, #4]	@ zero_extendqisi2
 279 0072 022B     		cmp	r3, #2
 280 0074 2ED1     		bne	.L15
 281              	.L14:
 206:libs/STM32F4xx_StdPeriph_Driver/src/stm32f4xx_gpio.c ****       {
 207:libs/STM32F4xx_StdPeriph_Driver/src/stm32f4xx_gpio.c ****         /* Check Speed mode parameters */
 208:libs/STM32F4xx_StdPeriph_Driver/src/stm32f4xx_gpio.c ****         assert_param(IS_GPIO_SPEED(GPIO_InitStruct->GPIO_Speed));
 209:libs/STM32F4xx_StdPeriph_Driver/src/stm32f4xx_gpio.c **** 
 210:libs/STM32F4xx_StdPeriph_Driver/src/stm32f4xx_gpio.c ****         /* Speed mode configuration */
 211:libs/STM32F4xx_StdPeriph_Driver/src/stm32f4xx_gpio.c ****         GPIOx->OSPEEDR &= ~(GPIO_OSPEEDER_OSPEEDR0 << (pinpos * 2));
 282              		.loc 1 211 0 is_stmt 1
 283 0076 7B68     		ldr	r3, [r7, #4]
 284 0078 9A68     		ldr	r2, [r3, #8]
 285 007a 7B69     		ldr	r3, [r7, #20]
 286 007c 5B00     		lsls	r3, r3, #1
 287 007e 0321     		movs	r1, #3
 288 0080 01FA03F3 		lsl	r3, r1, r3
 289 0084 DB43     		mvns	r3, r3
 290 0086 1A40     		ands	r2, r2, r3
 291 0088 7B68     		ldr	r3, [r7, #4]
 292 008a 9A60     		str	r2, [r3, #8]
 212:libs/STM32F4xx_StdPeriph_Driver/src/stm32f4xx_gpio.c ****         GPIOx->OSPEEDR |= ((uint32_t)(GPIO_InitStruct->GPIO_Speed) << (pinpos * 2));
 293              		.loc 1 212 0
 294 008c 7B68     		ldr	r3, [r7, #4]
 295 008e 9A68     		ldr	r2, [r3, #8]
 296 0090 3B68     		ldr	r3, [r7]
 297 0092 5B79     		ldrb	r3, [r3, #5]	@ zero_extendqisi2
 298 0094 1946     		mov	r1, r3
 299 0096 7B69     		ldr	r3, [r7, #20]
 300 0098 5B00     		lsls	r3, r3, #1
 301 009a 01FA03F3 		lsl	r3, r1, r3
 302 009e 1A43     		orrs	r2, r2, r3
 303 00a0 7B68     		ldr	r3, [r7, #4]
 304 00a2 9A60     		str	r2, [r3, #8]
 213:libs/STM32F4xx_StdPeriph_Driver/src/stm32f4xx_gpio.c **** 
 214:libs/STM32F4xx_StdPeriph_Driver/src/stm32f4xx_gpio.c ****         /* Check Output mode parameters */
 215:libs/STM32F4xx_StdPeriph_Driver/src/stm32f4xx_gpio.c ****         assert_param(IS_GPIO_OTYPE(GPIO_InitStruct->GPIO_OType));
 216:libs/STM32F4xx_StdPeriph_Driver/src/stm32f4xx_gpio.c **** 
 217:libs/STM32F4xx_StdPeriph_Driver/src/stm32f4xx_gpio.c ****         /* Output mode configuration*/
 218:libs/STM32F4xx_StdPeriph_Driver/src/stm32f4xx_gpio.c ****         GPIOx->OTYPER  &= ~((GPIO_OTYPER_OT_0) << ((uint16_t)pinpos)) ;
 305              		.loc 1 218 0
 306 00a4 7B68     		ldr	r3, [r7, #4]
 307 00a6 5A68     		ldr	r2, [r3, #4]
 308 00a8 7B69     		ldr	r3, [r7, #20]
 309 00aa 9BB2     		uxth	r3, r3
 310 00ac 0121     		movs	r1, #1
 311 00ae 01FA03F3 		lsl	r3, r1, r3
 312 00b2 DB43     		mvns	r3, r3
 313 00b4 1A40     		ands	r2, r2, r3
 314 00b6 7B68     		ldr	r3, [r7, #4]
 315 00b8 5A60     		str	r2, [r3, #4]
 219:libs/STM32F4xx_StdPeriph_Driver/src/stm32f4xx_gpio.c ****         GPIOx->OTYPER |= (uint16_t)(((uint16_t)GPIO_InitStruct->GPIO_OType) << ((uint16_t)pinpos));
 316              		.loc 1 219 0
 317 00ba 7B68     		ldr	r3, [r7, #4]
 318 00bc 5A68     		ldr	r2, [r3, #4]
 319 00be 3B68     		ldr	r3, [r7]
 320 00c0 9B79     		ldrb	r3, [r3, #6]	@ zero_extendqisi2
 321 00c2 1946     		mov	r1, r3
 322 00c4 7B69     		ldr	r3, [r7, #20]
 323 00c6 9BB2     		uxth	r3, r3
 324 00c8 01FA03F3 		lsl	r3, r1, r3
 325 00cc 9BB2     		uxth	r3, r3
 326 00ce 1A43     		orrs	r2, r2, r3
 327 00d0 7B68     		ldr	r3, [r7, #4]
 328 00d2 5A60     		str	r2, [r3, #4]
 329              	.L15:
 220:libs/STM32F4xx_StdPeriph_Driver/src/stm32f4xx_gpio.c ****       }
 221:libs/STM32F4xx_StdPeriph_Driver/src/stm32f4xx_gpio.c **** 
 222:libs/STM32F4xx_StdPeriph_Driver/src/stm32f4xx_gpio.c ****       /* Pull-up Pull down resistor configuration*/
 223:libs/STM32F4xx_StdPeriph_Driver/src/stm32f4xx_gpio.c ****       GPIOx->PUPDR &= ~(GPIO_PUPDR_PUPDR0 << ((uint16_t)pinpos * 2));
 330              		.loc 1 223 0
 331 00d4 7B68     		ldr	r3, [r7, #4]
 332 00d6 DA68     		ldr	r2, [r3, #12]
 333 00d8 7B69     		ldr	r3, [r7, #20]
 334 00da 9BB2     		uxth	r3, r3
 335 00dc 5B00     		lsls	r3, r3, #1
 336 00de 0321     		movs	r1, #3
 337 00e0 01FA03F3 		lsl	r3, r1, r3
 338 00e4 DB43     		mvns	r3, r3
 339 00e6 1A40     		ands	r2, r2, r3
 340 00e8 7B68     		ldr	r3, [r7, #4]
 341 00ea DA60     		str	r2, [r3, #12]
 224:libs/STM32F4xx_StdPeriph_Driver/src/stm32f4xx_gpio.c ****       GPIOx->PUPDR |= (((uint32_t)GPIO_InitStruct->GPIO_PuPd) << (pinpos * 2));
 342              		.loc 1 224 0
 343 00ec 7B68     		ldr	r3, [r7, #4]
 344 00ee DA68     		ldr	r2, [r3, #12]
 345 00f0 3B68     		ldr	r3, [r7]
 346 00f2 DB79     		ldrb	r3, [r3, #7]	@ zero_extendqisi2
 347 00f4 1946     		mov	r1, r3
 348 00f6 7B69     		ldr	r3, [r7, #20]
 349 00f8 5B00     		lsls	r3, r3, #1
 350 00fa 01FA03F3 		lsl	r3, r1, r3
 351 00fe 1A43     		orrs	r2, r2, r3
 352 0100 7B68     		ldr	r3, [r7, #4]
 353 0102 DA60     		str	r2, [r3, #12]
 354              	.L13:
 194:libs/STM32F4xx_StdPeriph_Driver/src/stm32f4xx_gpio.c ****   {
 355              		.loc 1 194 0
 356 0104 7B69     		ldr	r3, [r7, #20]
 357 0106 0133     		adds	r3, r3, #1
 358 0108 7B61     		str	r3, [r7, #20]
 359              	.L12:
 194:libs/STM32F4xx_StdPeriph_Driver/src/stm32f4xx_gpio.c ****   {
 360              		.loc 1 194 0 is_stmt 0 discriminator 1
 361 010a 7B69     		ldr	r3, [r7, #20]
 362 010c 0F2B     		cmp	r3, #15
 363 010e 85D9     		bls	.L16
 225:libs/STM32F4xx_StdPeriph_Driver/src/stm32f4xx_gpio.c ****     }
 226:libs/STM32F4xx_StdPeriph_Driver/src/stm32f4xx_gpio.c ****   }
 227:libs/STM32F4xx_StdPeriph_Driver/src/stm32f4xx_gpio.c **** }
 364              		.loc 1 227 0 is_stmt 1
 365 0110 1C37     		adds	r7, r7, #28
 366 0112 BD46     		mov	sp, r7
 367              		@ sp needed
 368 0114 5DF8047B 		ldr	r7, [sp], #4
 369 0118 7047     		bx	lr
 370              		.cfi_endproc
 371              	.LFE111:
 373 011a 00BF     		.section	.text.GPIO_StructInit,"ax",%progbits
 374              		.align	2
 375              		.global	GPIO_StructInit
 376              		.thumb
 377              		.thumb_func
 379              	GPIO_StructInit:
 380              	.LFB112:
 228:libs/STM32F4xx_StdPeriph_Driver/src/stm32f4xx_gpio.c **** 
 229:libs/STM32F4xx_StdPeriph_Driver/src/stm32f4xx_gpio.c **** /**
 230:libs/STM32F4xx_StdPeriph_Driver/src/stm32f4xx_gpio.c ****   * @brief  Fills each GPIO_InitStruct member with its default value.
 231:libs/STM32F4xx_StdPeriph_Driver/src/stm32f4xx_gpio.c ****   * @param  GPIO_InitStruct : pointer to a GPIO_InitTypeDef structure which will be initialized.
 232:libs/STM32F4xx_StdPeriph_Driver/src/stm32f4xx_gpio.c ****   * @retval None
 233:libs/STM32F4xx_StdPeriph_Driver/src/stm32f4xx_gpio.c ****   */
 234:libs/STM32F4xx_StdPeriph_Driver/src/stm32f4xx_gpio.c **** void GPIO_StructInit(GPIO_InitTypeDef* GPIO_InitStruct)
 235:libs/STM32F4xx_StdPeriph_Driver/src/stm32f4xx_gpio.c **** {
 381              		.loc 1 235 0
 382              		.cfi_startproc
 383              		@ args = 0, pretend = 0, frame = 8
 384              		@ frame_needed = 1, uses_anonymous_args = 0
 385              		@ link register save eliminated.
 386 0000 80B4     		push	{r7}
 387              	.LCFI6:
 388              		.cfi_def_cfa_offset 4
 389              		.cfi_offset 7, -4
 390 0002 83B0     		sub	sp, sp, #12
 391              	.LCFI7:
 392              		.cfi_def_cfa_offset 16
 393 0004 00AF     		add	r7, sp, #0
 394              	.LCFI8:
 395              		.cfi_def_cfa_register 7
 396 0006 7860     		str	r0, [r7, #4]
 236:libs/STM32F4xx_StdPeriph_Driver/src/stm32f4xx_gpio.c ****   /* Reset GPIO init structure parameters values */
 237:libs/STM32F4xx_StdPeriph_Driver/src/stm32f4xx_gpio.c ****   GPIO_InitStruct->GPIO_Pin  = GPIO_Pin_All;
 397              		.loc 1 237 0
 398 0008 7B68     		ldr	r3, [r7, #4]
 399 000a 4FF6FF72 		movw	r2, #65535
 400 000e 1A60     		str	r2, [r3]
 238:libs/STM32F4xx_StdPeriph_Driver/src/stm32f4xx_gpio.c ****   GPIO_InitStruct->GPIO_Mode = GPIO_Mode_IN;
 401              		.loc 1 238 0
 402 0010 7B68     		ldr	r3, [r7, #4]
 403 0012 0022     		movs	r2, #0
 404 0014 1A71     		strb	r2, [r3, #4]
 239:libs/STM32F4xx_StdPeriph_Driver/src/stm32f4xx_gpio.c ****   GPIO_InitStruct->GPIO_Speed = GPIO_Speed_2MHz;
 405              		.loc 1 239 0
 406 0016 7B68     		ldr	r3, [r7, #4]
 407 0018 0022     		movs	r2, #0
 408 001a 5A71     		strb	r2, [r3, #5]
 240:libs/STM32F4xx_StdPeriph_Driver/src/stm32f4xx_gpio.c ****   GPIO_InitStruct->GPIO_OType = GPIO_OType_PP;
 409              		.loc 1 240 0
 410 001c 7B68     		ldr	r3, [r7, #4]
 411 001e 0022     		movs	r2, #0
 412 0020 9A71     		strb	r2, [r3, #6]
 241:libs/STM32F4xx_StdPeriph_Driver/src/stm32f4xx_gpio.c ****   GPIO_InitStruct->GPIO_PuPd = GPIO_PuPd_NOPULL;
 413              		.loc 1 241 0
 414 0022 7B68     		ldr	r3, [r7, #4]
 415 0024 0022     		movs	r2, #0
 416 0026 DA71     		strb	r2, [r3, #7]
 242:libs/STM32F4xx_StdPeriph_Driver/src/stm32f4xx_gpio.c **** }
 417              		.loc 1 242 0
 418 0028 0C37     		adds	r7, r7, #12
 419 002a BD46     		mov	sp, r7
 420              		@ sp needed
 421 002c 5DF8047B 		ldr	r7, [sp], #4
 422 0030 7047     		bx	lr
 423              		.cfi_endproc
 424              	.LFE112:
 426 0032 00BF     		.section	.text.GPIO_PinLockConfig,"ax",%progbits
 427              		.align	2
 428              		.global	GPIO_PinLockConfig
 429              		.thumb
 430              		.thumb_func
 432              	GPIO_PinLockConfig:
 433              	.LFB113:
 243:libs/STM32F4xx_StdPeriph_Driver/src/stm32f4xx_gpio.c **** 
 244:libs/STM32F4xx_StdPeriph_Driver/src/stm32f4xx_gpio.c **** /**
 245:libs/STM32F4xx_StdPeriph_Driver/src/stm32f4xx_gpio.c ****   * @brief  Locks GPIO Pins configuration registers.
 246:libs/STM32F4xx_StdPeriph_Driver/src/stm32f4xx_gpio.c ****   * @note   The locked registers are GPIOx_MODER, GPIOx_OTYPER, GPIOx_OSPEEDR,
 247:libs/STM32F4xx_StdPeriph_Driver/src/stm32f4xx_gpio.c ****   *         GPIOx_PUPDR, GPIOx_AFRL and GPIOx_AFRH.
 248:libs/STM32F4xx_StdPeriph_Driver/src/stm32f4xx_gpio.c ****   * @note   The configuration of the locked GPIO pins can no longer be modified
 249:libs/STM32F4xx_StdPeriph_Driver/src/stm32f4xx_gpio.c ****   *         until the next reset.
 250:libs/STM32F4xx_StdPeriph_Driver/src/stm32f4xx_gpio.c ****   * @param  GPIOx: where x can be (A..I) to select the GPIO peripheral.
 251:libs/STM32F4xx_StdPeriph_Driver/src/stm32f4xx_gpio.c ****   * @param  GPIO_Pin: specifies the port bit to be locked.
 252:libs/STM32F4xx_StdPeriph_Driver/src/stm32f4xx_gpio.c ****   *          This parameter can be any combination of GPIO_Pin_x where x can be (0..15).
 253:libs/STM32F4xx_StdPeriph_Driver/src/stm32f4xx_gpio.c ****   * @retval None
 254:libs/STM32F4xx_StdPeriph_Driver/src/stm32f4xx_gpio.c ****   */
 255:libs/STM32F4xx_StdPeriph_Driver/src/stm32f4xx_gpio.c **** void GPIO_PinLockConfig(GPIO_TypeDef* GPIOx, uint16_t GPIO_Pin)
 256:libs/STM32F4xx_StdPeriph_Driver/src/stm32f4xx_gpio.c **** {
 434              		.loc 1 256 0
 435              		.cfi_startproc
 436              		@ args = 0, pretend = 0, frame = 16
 437              		@ frame_needed = 1, uses_anonymous_args = 0
 438              		@ link register save eliminated.
 439 0000 80B4     		push	{r7}
 440              	.LCFI9:
 441              		.cfi_def_cfa_offset 4
 442              		.cfi_offset 7, -4
 443 0002 85B0     		sub	sp, sp, #20
 444              	.LCFI10:
 445              		.cfi_def_cfa_offset 24
 446 0004 00AF     		add	r7, sp, #0
 447              	.LCFI11:
 448              		.cfi_def_cfa_register 7
 449 0006 7860     		str	r0, [r7, #4]
 450 0008 0B46     		mov	r3, r1
 451 000a 7B80     		strh	r3, [r7, #2]	@ movhi
 257:libs/STM32F4xx_StdPeriph_Driver/src/stm32f4xx_gpio.c ****   __IO uint32_t tmp = 0x00010000;
 452              		.loc 1 257 0
 453 000c 4FF48033 		mov	r3, #65536
 454 0010 FB60     		str	r3, [r7, #12]
 258:libs/STM32F4xx_StdPeriph_Driver/src/stm32f4xx_gpio.c **** 
 259:libs/STM32F4xx_StdPeriph_Driver/src/stm32f4xx_gpio.c ****   /* Check the parameters */
 260:libs/STM32F4xx_StdPeriph_Driver/src/stm32f4xx_gpio.c ****   assert_param(IS_GPIO_ALL_PERIPH(GPIOx));
 261:libs/STM32F4xx_StdPeriph_Driver/src/stm32f4xx_gpio.c ****   assert_param(IS_GPIO_PIN(GPIO_Pin));
 262:libs/STM32F4xx_StdPeriph_Driver/src/stm32f4xx_gpio.c **** 
 263:libs/STM32F4xx_StdPeriph_Driver/src/stm32f4xx_gpio.c ****   tmp |= GPIO_Pin;
 455              		.loc 1 263 0
 456 0012 7A88     		ldrh	r2, [r7, #2]
 457 0014 FB68     		ldr	r3, [r7, #12]
 458 0016 1343     		orrs	r3, r3, r2
 459 0018 FB60     		str	r3, [r7, #12]
 264:libs/STM32F4xx_StdPeriph_Driver/src/stm32f4xx_gpio.c ****   /* Set LCKK bit */
 265:libs/STM32F4xx_StdPeriph_Driver/src/stm32f4xx_gpio.c ****   GPIOx->LCKR = tmp;
 460              		.loc 1 265 0
 461 001a FA68     		ldr	r2, [r7, #12]
 462 001c 7B68     		ldr	r3, [r7, #4]
 463 001e DA61     		str	r2, [r3, #28]
 266:libs/STM32F4xx_StdPeriph_Driver/src/stm32f4xx_gpio.c ****   /* Reset LCKK bit */
 267:libs/STM32F4xx_StdPeriph_Driver/src/stm32f4xx_gpio.c ****   GPIOx->LCKR =  GPIO_Pin;
 464              		.loc 1 267 0
 465 0020 7A88     		ldrh	r2, [r7, #2]
 466 0022 7B68     		ldr	r3, [r7, #4]
 467 0024 DA61     		str	r2, [r3, #28]
 268:libs/STM32F4xx_StdPeriph_Driver/src/stm32f4xx_gpio.c ****   /* Set LCKK bit */
 269:libs/STM32F4xx_StdPeriph_Driver/src/stm32f4xx_gpio.c ****   GPIOx->LCKR = tmp;
 468              		.loc 1 269 0
 469 0026 FA68     		ldr	r2, [r7, #12]
 470 0028 7B68     		ldr	r3, [r7, #4]
 471 002a DA61     		str	r2, [r3, #28]
 270:libs/STM32F4xx_StdPeriph_Driver/src/stm32f4xx_gpio.c ****   /* Read LCKK bit*/
 271:libs/STM32F4xx_StdPeriph_Driver/src/stm32f4xx_gpio.c ****   tmp = GPIOx->LCKR;
 472              		.loc 1 271 0
 473 002c 7B68     		ldr	r3, [r7, #4]
 474 002e DB69     		ldr	r3, [r3, #28]
 475 0030 FB60     		str	r3, [r7, #12]
 272:libs/STM32F4xx_StdPeriph_Driver/src/stm32f4xx_gpio.c ****   /* Read LCKK bit*/
 273:libs/STM32F4xx_StdPeriph_Driver/src/stm32f4xx_gpio.c ****   tmp = GPIOx->LCKR;
 476              		.loc 1 273 0
 477 0032 7B68     		ldr	r3, [r7, #4]
 478 0034 DB69     		ldr	r3, [r3, #28]
 479 0036 FB60     		str	r3, [r7, #12]
 274:libs/STM32F4xx_StdPeriph_Driver/src/stm32f4xx_gpio.c **** }
 480              		.loc 1 274 0
 481 0038 1437     		adds	r7, r7, #20
 482 003a BD46     		mov	sp, r7
 483              		@ sp needed
 484 003c 5DF8047B 		ldr	r7, [sp], #4
 485 0040 7047     		bx	lr
 486              		.cfi_endproc
 487              	.LFE113:
 489 0042 00BF     		.section	.text.GPIO_ReadInputDataBit,"ax",%progbits
 490              		.align	2
 491              		.global	GPIO_ReadInputDataBit
 492              		.thumb
 493              		.thumb_func
 495              	GPIO_ReadInputDataBit:
 496              	.LFB114:
 275:libs/STM32F4xx_StdPeriph_Driver/src/stm32f4xx_gpio.c **** 
 276:libs/STM32F4xx_StdPeriph_Driver/src/stm32f4xx_gpio.c **** /**
 277:libs/STM32F4xx_StdPeriph_Driver/src/stm32f4xx_gpio.c ****   * @}
 278:libs/STM32F4xx_StdPeriph_Driver/src/stm32f4xx_gpio.c ****   */
 279:libs/STM32F4xx_StdPeriph_Driver/src/stm32f4xx_gpio.c **** 
 280:libs/STM32F4xx_StdPeriph_Driver/src/stm32f4xx_gpio.c **** /** @defgroup GPIO_Group2 GPIO Read and Write
 281:libs/STM32F4xx_StdPeriph_Driver/src/stm32f4xx_gpio.c ****  *  @brief   GPIO Read and Write
 282:libs/STM32F4xx_StdPeriph_Driver/src/stm32f4xx_gpio.c ****  *
 283:libs/STM32F4xx_StdPeriph_Driver/src/stm32f4xx_gpio.c **** @verbatim   
 284:libs/STM32F4xx_StdPeriph_Driver/src/stm32f4xx_gpio.c ****  ===============================================================================
 285:libs/STM32F4xx_StdPeriph_Driver/src/stm32f4xx_gpio.c ****                               GPIO Read and Write
 286:libs/STM32F4xx_StdPeriph_Driver/src/stm32f4xx_gpio.c ****  ===============================================================================  
 287:libs/STM32F4xx_StdPeriph_Driver/src/stm32f4xx_gpio.c **** 
 288:libs/STM32F4xx_StdPeriph_Driver/src/stm32f4xx_gpio.c **** @endverbatim
 289:libs/STM32F4xx_StdPeriph_Driver/src/stm32f4xx_gpio.c ****   * @{
 290:libs/STM32F4xx_StdPeriph_Driver/src/stm32f4xx_gpio.c ****   */
 291:libs/STM32F4xx_StdPeriph_Driver/src/stm32f4xx_gpio.c **** 
 292:libs/STM32F4xx_StdPeriph_Driver/src/stm32f4xx_gpio.c **** /**
 293:libs/STM32F4xx_StdPeriph_Driver/src/stm32f4xx_gpio.c ****   * @brief  Reads the specified input port pin.
 294:libs/STM32F4xx_StdPeriph_Driver/src/stm32f4xx_gpio.c ****   * @param  GPIOx: where x can be (A..I) to select the GPIO peripheral.
 295:libs/STM32F4xx_StdPeriph_Driver/src/stm32f4xx_gpio.c ****   * @param  GPIO_Pin: specifies the port bit to read.
 296:libs/STM32F4xx_StdPeriph_Driver/src/stm32f4xx_gpio.c ****   *         This parameter can be GPIO_Pin_x where x can be (0..15).
 297:libs/STM32F4xx_StdPeriph_Driver/src/stm32f4xx_gpio.c ****   * @retval The input port pin value.
 298:libs/STM32F4xx_StdPeriph_Driver/src/stm32f4xx_gpio.c ****   */
 299:libs/STM32F4xx_StdPeriph_Driver/src/stm32f4xx_gpio.c **** uint8_t GPIO_ReadInputDataBit(GPIO_TypeDef* GPIOx, uint16_t GPIO_Pin)
 300:libs/STM32F4xx_StdPeriph_Driver/src/stm32f4xx_gpio.c **** {
 497              		.loc 1 300 0
 498              		.cfi_startproc
 499              		@ args = 0, pretend = 0, frame = 16
 500              		@ frame_needed = 1, uses_anonymous_args = 0
 501              		@ link register save eliminated.
 502 0000 80B4     		push	{r7}
 503              	.LCFI12:
 504              		.cfi_def_cfa_offset 4
 505              		.cfi_offset 7, -4
 506 0002 85B0     		sub	sp, sp, #20
 507              	.LCFI13:
 508              		.cfi_def_cfa_offset 24
 509 0004 00AF     		add	r7, sp, #0
 510              	.LCFI14:
 511              		.cfi_def_cfa_register 7
 512 0006 7860     		str	r0, [r7, #4]
 513 0008 0B46     		mov	r3, r1
 514 000a 7B80     		strh	r3, [r7, #2]	@ movhi
 301:libs/STM32F4xx_StdPeriph_Driver/src/stm32f4xx_gpio.c ****   uint8_t bitstatus = 0x00;
 515              		.loc 1 301 0
 516 000c 0023     		movs	r3, #0
 517 000e FB73     		strb	r3, [r7, #15]
 302:libs/STM32F4xx_StdPeriph_Driver/src/stm32f4xx_gpio.c **** 
 303:libs/STM32F4xx_StdPeriph_Driver/src/stm32f4xx_gpio.c ****   /* Check the parameters */
 304:libs/STM32F4xx_StdPeriph_Driver/src/stm32f4xx_gpio.c ****   assert_param(IS_GPIO_ALL_PERIPH(GPIOx));
 305:libs/STM32F4xx_StdPeriph_Driver/src/stm32f4xx_gpio.c ****   assert_param(IS_GET_GPIO_PIN(GPIO_Pin));
 306:libs/STM32F4xx_StdPeriph_Driver/src/stm32f4xx_gpio.c **** 
 307:libs/STM32F4xx_StdPeriph_Driver/src/stm32f4xx_gpio.c ****   if ((GPIOx->IDR & GPIO_Pin) != (uint32_t)Bit_RESET)
 518              		.loc 1 307 0
 519 0010 7B68     		ldr	r3, [r7, #4]
 520 0012 1A69     		ldr	r2, [r3, #16]
 521 0014 7B88     		ldrh	r3, [r7, #2]
 522 0016 1340     		ands	r3, r3, r2
 523 0018 002B     		cmp	r3, #0
 524 001a 02D0     		beq	.L20
 308:libs/STM32F4xx_StdPeriph_Driver/src/stm32f4xx_gpio.c ****   {
 309:libs/STM32F4xx_StdPeriph_Driver/src/stm32f4xx_gpio.c ****     bitstatus = (uint8_t)Bit_SET;
 525              		.loc 1 309 0
 526 001c 0123     		movs	r3, #1
 527 001e FB73     		strb	r3, [r7, #15]
 528 0020 01E0     		b	.L21
 529              	.L20:
 310:libs/STM32F4xx_StdPeriph_Driver/src/stm32f4xx_gpio.c ****   }
 311:libs/STM32F4xx_StdPeriph_Driver/src/stm32f4xx_gpio.c ****   else
 312:libs/STM32F4xx_StdPeriph_Driver/src/stm32f4xx_gpio.c ****   {
 313:libs/STM32F4xx_StdPeriph_Driver/src/stm32f4xx_gpio.c ****     bitstatus = (uint8_t)Bit_RESET;
 530              		.loc 1 313 0
 531 0022 0023     		movs	r3, #0
 532 0024 FB73     		strb	r3, [r7, #15]
 533              	.L21:
 314:libs/STM32F4xx_StdPeriph_Driver/src/stm32f4xx_gpio.c ****   }
 315:libs/STM32F4xx_StdPeriph_Driver/src/stm32f4xx_gpio.c ****   return bitstatus;
 534              		.loc 1 315 0
 535 0026 FB7B     		ldrb	r3, [r7, #15]	@ zero_extendqisi2
 316:libs/STM32F4xx_StdPeriph_Driver/src/stm32f4xx_gpio.c **** }
 536              		.loc 1 316 0
 537 0028 1846     		mov	r0, r3
 538 002a 1437     		adds	r7, r7, #20
 539 002c BD46     		mov	sp, r7
 540              		@ sp needed
 541 002e 5DF8047B 		ldr	r7, [sp], #4
 542 0032 7047     		bx	lr
 543              		.cfi_endproc
 544              	.LFE114:
 546              		.section	.text.GPIO_ReadInputData,"ax",%progbits
 547              		.align	2
 548              		.global	GPIO_ReadInputData
 549              		.thumb
 550              		.thumb_func
 552              	GPIO_ReadInputData:
 553              	.LFB115:
 317:libs/STM32F4xx_StdPeriph_Driver/src/stm32f4xx_gpio.c **** 
 318:libs/STM32F4xx_StdPeriph_Driver/src/stm32f4xx_gpio.c **** /**
 319:libs/STM32F4xx_StdPeriph_Driver/src/stm32f4xx_gpio.c ****   * @brief  Reads the specified GPIO input data port.
 320:libs/STM32F4xx_StdPeriph_Driver/src/stm32f4xx_gpio.c ****   * @param  GPIOx: where x can be (A..I) to select the GPIO peripheral.
 321:libs/STM32F4xx_StdPeriph_Driver/src/stm32f4xx_gpio.c ****   * @retval GPIO input data port value.
 322:libs/STM32F4xx_StdPeriph_Driver/src/stm32f4xx_gpio.c ****   */
 323:libs/STM32F4xx_StdPeriph_Driver/src/stm32f4xx_gpio.c **** uint16_t GPIO_ReadInputData(GPIO_TypeDef* GPIOx)
 324:libs/STM32F4xx_StdPeriph_Driver/src/stm32f4xx_gpio.c **** {
 554              		.loc 1 324 0
 555              		.cfi_startproc
 556              		@ args = 0, pretend = 0, frame = 8
 557              		@ frame_needed = 1, uses_anonymous_args = 0
 558              		@ link register save eliminated.
 559 0000 80B4     		push	{r7}
 560              	.LCFI15:
 561              		.cfi_def_cfa_offset 4
 562              		.cfi_offset 7, -4
 563 0002 83B0     		sub	sp, sp, #12
 564              	.LCFI16:
 565              		.cfi_def_cfa_offset 16
 566 0004 00AF     		add	r7, sp, #0
 567              	.LCFI17:
 568              		.cfi_def_cfa_register 7
 569 0006 7860     		str	r0, [r7, #4]
 325:libs/STM32F4xx_StdPeriph_Driver/src/stm32f4xx_gpio.c ****   /* Check the parameters */
 326:libs/STM32F4xx_StdPeriph_Driver/src/stm32f4xx_gpio.c ****   assert_param(IS_GPIO_ALL_PERIPH(GPIOx));
 327:libs/STM32F4xx_StdPeriph_Driver/src/stm32f4xx_gpio.c **** 
 328:libs/STM32F4xx_StdPeriph_Driver/src/stm32f4xx_gpio.c ****   return ((uint16_t)GPIOx->IDR);
 570              		.loc 1 328 0
 571 0008 7B68     		ldr	r3, [r7, #4]
 572 000a 1B69     		ldr	r3, [r3, #16]
 573 000c 9BB2     		uxth	r3, r3
 329:libs/STM32F4xx_StdPeriph_Driver/src/stm32f4xx_gpio.c **** }
 574              		.loc 1 329 0
 575 000e 1846     		mov	r0, r3
 576 0010 0C37     		adds	r7, r7, #12
 577 0012 BD46     		mov	sp, r7
 578              		@ sp needed
 579 0014 5DF8047B 		ldr	r7, [sp], #4
 580 0018 7047     		bx	lr
 581              		.cfi_endproc
 582              	.LFE115:
 584 001a 00BF     		.section	.text.GPIO_ReadOutputDataBit,"ax",%progbits
 585              		.align	2
 586              		.global	GPIO_ReadOutputDataBit
 587              		.thumb
 588              		.thumb_func
 590              	GPIO_ReadOutputDataBit:
 591              	.LFB116:
 330:libs/STM32F4xx_StdPeriph_Driver/src/stm32f4xx_gpio.c **** 
 331:libs/STM32F4xx_StdPeriph_Driver/src/stm32f4xx_gpio.c **** /**
 332:libs/STM32F4xx_StdPeriph_Driver/src/stm32f4xx_gpio.c ****   * @brief  Reads the specified output data port bit.
 333:libs/STM32F4xx_StdPeriph_Driver/src/stm32f4xx_gpio.c ****   * @param  GPIOx: where x can be (A..I) to select the GPIO peripheral.
 334:libs/STM32F4xx_StdPeriph_Driver/src/stm32f4xx_gpio.c ****   * @param  GPIO_Pin: specifies the port bit to read.
 335:libs/STM32F4xx_StdPeriph_Driver/src/stm32f4xx_gpio.c ****   *          This parameter can be GPIO_Pin_x where x can be (0..15).
 336:libs/STM32F4xx_StdPeriph_Driver/src/stm32f4xx_gpio.c ****   * @retval The output port pin value.
 337:libs/STM32F4xx_StdPeriph_Driver/src/stm32f4xx_gpio.c ****   */
 338:libs/STM32F4xx_StdPeriph_Driver/src/stm32f4xx_gpio.c **** uint8_t GPIO_ReadOutputDataBit(GPIO_TypeDef* GPIOx, uint16_t GPIO_Pin)
 339:libs/STM32F4xx_StdPeriph_Driver/src/stm32f4xx_gpio.c **** {
 592              		.loc 1 339 0
 593              		.cfi_startproc
 594              		@ args = 0, pretend = 0, frame = 16
 595              		@ frame_needed = 1, uses_anonymous_args = 0
 596              		@ link register save eliminated.
 597 0000 80B4     		push	{r7}
 598              	.LCFI18:
 599              		.cfi_def_cfa_offset 4
 600              		.cfi_offset 7, -4
 601 0002 85B0     		sub	sp, sp, #20
 602              	.LCFI19:
 603              		.cfi_def_cfa_offset 24
 604 0004 00AF     		add	r7, sp, #0
 605              	.LCFI20:
 606              		.cfi_def_cfa_register 7
 607 0006 7860     		str	r0, [r7, #4]
 608 0008 0B46     		mov	r3, r1
 609 000a 7B80     		strh	r3, [r7, #2]	@ movhi
 340:libs/STM32F4xx_StdPeriph_Driver/src/stm32f4xx_gpio.c ****   uint8_t bitstatus = 0x00;
 610              		.loc 1 340 0
 611 000c 0023     		movs	r3, #0
 612 000e FB73     		strb	r3, [r7, #15]
 341:libs/STM32F4xx_StdPeriph_Driver/src/stm32f4xx_gpio.c **** 
 342:libs/STM32F4xx_StdPeriph_Driver/src/stm32f4xx_gpio.c ****   /* Check the parameters */
 343:libs/STM32F4xx_StdPeriph_Driver/src/stm32f4xx_gpio.c ****   assert_param(IS_GPIO_ALL_PERIPH(GPIOx));
 344:libs/STM32F4xx_StdPeriph_Driver/src/stm32f4xx_gpio.c ****   assert_param(IS_GET_GPIO_PIN(GPIO_Pin));
 345:libs/STM32F4xx_StdPeriph_Driver/src/stm32f4xx_gpio.c **** 
 346:libs/STM32F4xx_StdPeriph_Driver/src/stm32f4xx_gpio.c ****   if ((GPIOx->ODR & GPIO_Pin) != (uint32_t)Bit_RESET)
 613              		.loc 1 346 0
 614 0010 7B68     		ldr	r3, [r7, #4]
 615 0012 5A69     		ldr	r2, [r3, #20]
 616 0014 7B88     		ldrh	r3, [r7, #2]
 617 0016 1340     		ands	r3, r3, r2
 618 0018 002B     		cmp	r3, #0
 619 001a 02D0     		beq	.L26
 347:libs/STM32F4xx_StdPeriph_Driver/src/stm32f4xx_gpio.c ****   {
 348:libs/STM32F4xx_StdPeriph_Driver/src/stm32f4xx_gpio.c ****     bitstatus = (uint8_t)Bit_SET;
 620              		.loc 1 348 0
 621 001c 0123     		movs	r3, #1
 622 001e FB73     		strb	r3, [r7, #15]
 623 0020 01E0     		b	.L27
 624              	.L26:
 349:libs/STM32F4xx_StdPeriph_Driver/src/stm32f4xx_gpio.c ****   }
 350:libs/STM32F4xx_StdPeriph_Driver/src/stm32f4xx_gpio.c ****   else
 351:libs/STM32F4xx_StdPeriph_Driver/src/stm32f4xx_gpio.c ****   {
 352:libs/STM32F4xx_StdPeriph_Driver/src/stm32f4xx_gpio.c ****     bitstatus = (uint8_t)Bit_RESET;
 625              		.loc 1 352 0
 626 0022 0023     		movs	r3, #0
 627 0024 FB73     		strb	r3, [r7, #15]
 628              	.L27:
 353:libs/STM32F4xx_StdPeriph_Driver/src/stm32f4xx_gpio.c ****   }
 354:libs/STM32F4xx_StdPeriph_Driver/src/stm32f4xx_gpio.c ****   return bitstatus;
 629              		.loc 1 354 0
 630 0026 FB7B     		ldrb	r3, [r7, #15]	@ zero_extendqisi2
 355:libs/STM32F4xx_StdPeriph_Driver/src/stm32f4xx_gpio.c **** }
 631              		.loc 1 355 0
 632 0028 1846     		mov	r0, r3
 633 002a 1437     		adds	r7, r7, #20
 634 002c BD46     		mov	sp, r7
 635              		@ sp needed
 636 002e 5DF8047B 		ldr	r7, [sp], #4
 637 0032 7047     		bx	lr
 638              		.cfi_endproc
 639              	.LFE116:
 641              		.section	.text.GPIO_ReadOutputData,"ax",%progbits
 642              		.align	2
 643              		.global	GPIO_ReadOutputData
 644              		.thumb
 645              		.thumb_func
 647              	GPIO_ReadOutputData:
 648              	.LFB117:
 356:libs/STM32F4xx_StdPeriph_Driver/src/stm32f4xx_gpio.c **** 
 357:libs/STM32F4xx_StdPeriph_Driver/src/stm32f4xx_gpio.c **** /**
 358:libs/STM32F4xx_StdPeriph_Driver/src/stm32f4xx_gpio.c ****   * @brief  Reads the specified GPIO output data port.
 359:libs/STM32F4xx_StdPeriph_Driver/src/stm32f4xx_gpio.c ****   * @param  GPIOx: where x can be (A..I) to select the GPIO peripheral.
 360:libs/STM32F4xx_StdPeriph_Driver/src/stm32f4xx_gpio.c ****   * @retval GPIO output data port value.
 361:libs/STM32F4xx_StdPeriph_Driver/src/stm32f4xx_gpio.c ****   */
 362:libs/STM32F4xx_StdPeriph_Driver/src/stm32f4xx_gpio.c **** uint16_t GPIO_ReadOutputData(GPIO_TypeDef* GPIOx)
 363:libs/STM32F4xx_StdPeriph_Driver/src/stm32f4xx_gpio.c **** {
 649              		.loc 1 363 0
 650              		.cfi_startproc
 651              		@ args = 0, pretend = 0, frame = 8
 652              		@ frame_needed = 1, uses_anonymous_args = 0
 653              		@ link register save eliminated.
 654 0000 80B4     		push	{r7}
 655              	.LCFI21:
 656              		.cfi_def_cfa_offset 4
 657              		.cfi_offset 7, -4
 658 0002 83B0     		sub	sp, sp, #12
 659              	.LCFI22:
 660              		.cfi_def_cfa_offset 16
 661 0004 00AF     		add	r7, sp, #0
 662              	.LCFI23:
 663              		.cfi_def_cfa_register 7
 664 0006 7860     		str	r0, [r7, #4]
 364:libs/STM32F4xx_StdPeriph_Driver/src/stm32f4xx_gpio.c ****   /* Check the parameters */
 365:libs/STM32F4xx_StdPeriph_Driver/src/stm32f4xx_gpio.c ****   assert_param(IS_GPIO_ALL_PERIPH(GPIOx));
 366:libs/STM32F4xx_StdPeriph_Driver/src/stm32f4xx_gpio.c **** 
 367:libs/STM32F4xx_StdPeriph_Driver/src/stm32f4xx_gpio.c ****   return ((uint16_t)GPIOx->ODR);
 665              		.loc 1 367 0
 666 0008 7B68     		ldr	r3, [r7, #4]
 667 000a 5B69     		ldr	r3, [r3, #20]
 668 000c 9BB2     		uxth	r3, r3
 368:libs/STM32F4xx_StdPeriph_Driver/src/stm32f4xx_gpio.c **** }
 669              		.loc 1 368 0
 670 000e 1846     		mov	r0, r3
 671 0010 0C37     		adds	r7, r7, #12
 672 0012 BD46     		mov	sp, r7
 673              		@ sp needed
 674 0014 5DF8047B 		ldr	r7, [sp], #4
 675 0018 7047     		bx	lr
 676              		.cfi_endproc
 677              	.LFE117:
 679 001a 00BF     		.section	.text.GPIO_SetBits,"ax",%progbits
 680              		.align	2
 681              		.global	GPIO_SetBits
 682              		.thumb
 683              		.thumb_func
 685              	GPIO_SetBits:
 686              	.LFB118:
 369:libs/STM32F4xx_StdPeriph_Driver/src/stm32f4xx_gpio.c **** 
 370:libs/STM32F4xx_StdPeriph_Driver/src/stm32f4xx_gpio.c **** /**
 371:libs/STM32F4xx_StdPeriph_Driver/src/stm32f4xx_gpio.c ****   * @brief  Sets the selected data port bits.
 372:libs/STM32F4xx_StdPeriph_Driver/src/stm32f4xx_gpio.c ****   * @note   This functions uses GPIOx_BSRR register to allow atomic read/modify 
 373:libs/STM32F4xx_StdPeriph_Driver/src/stm32f4xx_gpio.c ****   *         accesses. In this way, there is no risk of an IRQ occurring between
 374:libs/STM32F4xx_StdPeriph_Driver/src/stm32f4xx_gpio.c ****   *         the read and the modify access.
 375:libs/STM32F4xx_StdPeriph_Driver/src/stm32f4xx_gpio.c ****   * @param  GPIOx: where x can be (A..I) to select the GPIO peripheral.
 376:libs/STM32F4xx_StdPeriph_Driver/src/stm32f4xx_gpio.c ****   * @param  GPIO_Pin: specifies the port bits to be written.
 377:libs/STM32F4xx_StdPeriph_Driver/src/stm32f4xx_gpio.c ****   *          This parameter can be any combination of GPIO_Pin_x where x can be (0..15).
 378:libs/STM32F4xx_StdPeriph_Driver/src/stm32f4xx_gpio.c ****   * @retval None
 379:libs/STM32F4xx_StdPeriph_Driver/src/stm32f4xx_gpio.c ****   */
 380:libs/STM32F4xx_StdPeriph_Driver/src/stm32f4xx_gpio.c **** void GPIO_SetBits(GPIO_TypeDef* GPIOx, uint16_t GPIO_Pin)
 381:libs/STM32F4xx_StdPeriph_Driver/src/stm32f4xx_gpio.c **** {
 687              		.loc 1 381 0
 688              		.cfi_startproc
 689              		@ args = 0, pretend = 0, frame = 8
 690              		@ frame_needed = 1, uses_anonymous_args = 0
 691              		@ link register save eliminated.
 692 0000 80B4     		push	{r7}
 693              	.LCFI24:
 694              		.cfi_def_cfa_offset 4
 695              		.cfi_offset 7, -4
 696 0002 83B0     		sub	sp, sp, #12
 697              	.LCFI25:
 698              		.cfi_def_cfa_offset 16
 699 0004 00AF     		add	r7, sp, #0
 700              	.LCFI26:
 701              		.cfi_def_cfa_register 7
 702 0006 7860     		str	r0, [r7, #4]
 703 0008 0B46     		mov	r3, r1
 704 000a 7B80     		strh	r3, [r7, #2]	@ movhi
 382:libs/STM32F4xx_StdPeriph_Driver/src/stm32f4xx_gpio.c ****   /* Check the parameters */
 383:libs/STM32F4xx_StdPeriph_Driver/src/stm32f4xx_gpio.c ****   assert_param(IS_GPIO_ALL_PERIPH(GPIOx));
 384:libs/STM32F4xx_StdPeriph_Driver/src/stm32f4xx_gpio.c ****   assert_param(IS_GPIO_PIN(GPIO_Pin));
 385:libs/STM32F4xx_StdPeriph_Driver/src/stm32f4xx_gpio.c **** 
 386:libs/STM32F4xx_StdPeriph_Driver/src/stm32f4xx_gpio.c ****   GPIOx->BSRRL = GPIO_Pin;
 705              		.loc 1 386 0
 706 000c 7B68     		ldr	r3, [r7, #4]
 707 000e 7A88     		ldrh	r2, [r7, #2]	@ movhi
 708 0010 1A83     		strh	r2, [r3, #24]	@ movhi
 387:libs/STM32F4xx_StdPeriph_Driver/src/stm32f4xx_gpio.c **** }
 709              		.loc 1 387 0
 710 0012 0C37     		adds	r7, r7, #12
 711 0014 BD46     		mov	sp, r7
 712              		@ sp needed
 713 0016 5DF8047B 		ldr	r7, [sp], #4
 714 001a 7047     		bx	lr
 715              		.cfi_endproc
 716              	.LFE118:
 718              		.section	.text.GPIO_ResetBits,"ax",%progbits
 719              		.align	2
 720              		.global	GPIO_ResetBits
 721              		.thumb
 722              		.thumb_func
 724              	GPIO_ResetBits:
 725              	.LFB119:
 388:libs/STM32F4xx_StdPeriph_Driver/src/stm32f4xx_gpio.c **** 
 389:libs/STM32F4xx_StdPeriph_Driver/src/stm32f4xx_gpio.c **** /**
 390:libs/STM32F4xx_StdPeriph_Driver/src/stm32f4xx_gpio.c ****   * @brief  Clears the selected data port bits.
 391:libs/STM32F4xx_StdPeriph_Driver/src/stm32f4xx_gpio.c ****   * @note   This functions uses GPIOx_BSRR register to allow atomic read/modify 
 392:libs/STM32F4xx_StdPeriph_Driver/src/stm32f4xx_gpio.c ****   *         accesses. In this way, there is no risk of an IRQ occurring between
 393:libs/STM32F4xx_StdPeriph_Driver/src/stm32f4xx_gpio.c ****   *         the read and the modify access.
 394:libs/STM32F4xx_StdPeriph_Driver/src/stm32f4xx_gpio.c ****   * @param  GPIOx: where x can be (A..I) to select the GPIO peripheral.
 395:libs/STM32F4xx_StdPeriph_Driver/src/stm32f4xx_gpio.c ****   * @param  GPIO_Pin: specifies the port bits to be written.
 396:libs/STM32F4xx_StdPeriph_Driver/src/stm32f4xx_gpio.c ****   *          This parameter can be any combination of GPIO_Pin_x where x can be (0..15).
 397:libs/STM32F4xx_StdPeriph_Driver/src/stm32f4xx_gpio.c ****   * @retval None
 398:libs/STM32F4xx_StdPeriph_Driver/src/stm32f4xx_gpio.c ****   */
 399:libs/STM32F4xx_StdPeriph_Driver/src/stm32f4xx_gpio.c **** void GPIO_ResetBits(GPIO_TypeDef* GPIOx, uint16_t GPIO_Pin)
 400:libs/STM32F4xx_StdPeriph_Driver/src/stm32f4xx_gpio.c **** {
 726              		.loc 1 400 0
 727              		.cfi_startproc
 728              		@ args = 0, pretend = 0, frame = 8
 729              		@ frame_needed = 1, uses_anonymous_args = 0
 730              		@ link register save eliminated.
 731 0000 80B4     		push	{r7}
 732              	.LCFI27:
 733              		.cfi_def_cfa_offset 4
 734              		.cfi_offset 7, -4
 735 0002 83B0     		sub	sp, sp, #12
 736              	.LCFI28:
 737              		.cfi_def_cfa_offset 16
 738 0004 00AF     		add	r7, sp, #0
 739              	.LCFI29:
 740              		.cfi_def_cfa_register 7
 741 0006 7860     		str	r0, [r7, #4]
 742 0008 0B46     		mov	r3, r1
 743 000a 7B80     		strh	r3, [r7, #2]	@ movhi
 401:libs/STM32F4xx_StdPeriph_Driver/src/stm32f4xx_gpio.c ****   /* Check the parameters */
 402:libs/STM32F4xx_StdPeriph_Driver/src/stm32f4xx_gpio.c ****   assert_param(IS_GPIO_ALL_PERIPH(GPIOx));
 403:libs/STM32F4xx_StdPeriph_Driver/src/stm32f4xx_gpio.c ****   assert_param(IS_GPIO_PIN(GPIO_Pin));
 404:libs/STM32F4xx_StdPeriph_Driver/src/stm32f4xx_gpio.c **** 
 405:libs/STM32F4xx_StdPeriph_Driver/src/stm32f4xx_gpio.c ****   GPIOx->BSRRH = GPIO_Pin;
 744              		.loc 1 405 0
 745 000c 7B68     		ldr	r3, [r7, #4]
 746 000e 7A88     		ldrh	r2, [r7, #2]	@ movhi
 747 0010 5A83     		strh	r2, [r3, #26]	@ movhi
 406:libs/STM32F4xx_StdPeriph_Driver/src/stm32f4xx_gpio.c **** }
 748              		.loc 1 406 0
 749 0012 0C37     		adds	r7, r7, #12
 750 0014 BD46     		mov	sp, r7
 751              		@ sp needed
 752 0016 5DF8047B 		ldr	r7, [sp], #4
 753 001a 7047     		bx	lr
 754              		.cfi_endproc
 755              	.LFE119:
 757              		.section	.text.GPIO_WriteBit,"ax",%progbits
 758              		.align	2
 759              		.global	GPIO_WriteBit
 760              		.thumb
 761              		.thumb_func
 763              	GPIO_WriteBit:
 764              	.LFB120:
 407:libs/STM32F4xx_StdPeriph_Driver/src/stm32f4xx_gpio.c **** 
 408:libs/STM32F4xx_StdPeriph_Driver/src/stm32f4xx_gpio.c **** /**
 409:libs/STM32F4xx_StdPeriph_Driver/src/stm32f4xx_gpio.c ****   * @brief  Sets or clears the selected data port bit.
 410:libs/STM32F4xx_StdPeriph_Driver/src/stm32f4xx_gpio.c ****   * @param  GPIOx: where x can be (A..I) to select the GPIO peripheral.
 411:libs/STM32F4xx_StdPeriph_Driver/src/stm32f4xx_gpio.c ****   * @param  GPIO_Pin: specifies the port bit to be written.
 412:libs/STM32F4xx_StdPeriph_Driver/src/stm32f4xx_gpio.c ****   *          This parameter can be one of GPIO_Pin_x where x can be (0..15).
 413:libs/STM32F4xx_StdPeriph_Driver/src/stm32f4xx_gpio.c ****   * @param  BitVal: specifies the value to be written to the selected bit.
 414:libs/STM32F4xx_StdPeriph_Driver/src/stm32f4xx_gpio.c ****   *          This parameter can be one of the BitAction enum values:
 415:libs/STM32F4xx_StdPeriph_Driver/src/stm32f4xx_gpio.c ****   *            @arg Bit_RESET: to clear the port pin
 416:libs/STM32F4xx_StdPeriph_Driver/src/stm32f4xx_gpio.c ****   *            @arg Bit_SET: to set the port pin
 417:libs/STM32F4xx_StdPeriph_Driver/src/stm32f4xx_gpio.c ****   * @retval None
 418:libs/STM32F4xx_StdPeriph_Driver/src/stm32f4xx_gpio.c ****   */
 419:libs/STM32F4xx_StdPeriph_Driver/src/stm32f4xx_gpio.c **** void GPIO_WriteBit(GPIO_TypeDef* GPIOx, uint16_t GPIO_Pin, BitAction BitVal)
 420:libs/STM32F4xx_StdPeriph_Driver/src/stm32f4xx_gpio.c **** {
 765              		.loc 1 420 0
 766              		.cfi_startproc
 767              		@ args = 0, pretend = 0, frame = 8
 768              		@ frame_needed = 1, uses_anonymous_args = 0
 769              		@ link register save eliminated.
 770 0000 80B4     		push	{r7}
 771              	.LCFI30:
 772              		.cfi_def_cfa_offset 4
 773              		.cfi_offset 7, -4
 774 0002 83B0     		sub	sp, sp, #12
 775              	.LCFI31:
 776              		.cfi_def_cfa_offset 16
 777 0004 00AF     		add	r7, sp, #0
 778              	.LCFI32:
 779              		.cfi_def_cfa_register 7
 780 0006 7860     		str	r0, [r7, #4]
 781 0008 1346     		mov	r3, r2
 782 000a 0A46     		mov	r2, r1	@ movhi
 783 000c 7A80     		strh	r2, [r7, #2]	@ movhi
 784 000e 7B70     		strb	r3, [r7, #1]
 421:libs/STM32F4xx_StdPeriph_Driver/src/stm32f4xx_gpio.c ****   /* Check the parameters */
 422:libs/STM32F4xx_StdPeriph_Driver/src/stm32f4xx_gpio.c ****   assert_param(IS_GPIO_ALL_PERIPH(GPIOx));
 423:libs/STM32F4xx_StdPeriph_Driver/src/stm32f4xx_gpio.c ****   assert_param(IS_GET_GPIO_PIN(GPIO_Pin));
 424:libs/STM32F4xx_StdPeriph_Driver/src/stm32f4xx_gpio.c ****   assert_param(IS_GPIO_BIT_ACTION(BitVal));
 425:libs/STM32F4xx_StdPeriph_Driver/src/stm32f4xx_gpio.c **** 
 426:libs/STM32F4xx_StdPeriph_Driver/src/stm32f4xx_gpio.c ****   if (BitVal != Bit_RESET)
 785              		.loc 1 426 0
 786 0010 7B78     		ldrb	r3, [r7, #1]	@ zero_extendqisi2
 787 0012 002B     		cmp	r3, #0
 788 0014 03D0     		beq	.L34
 427:libs/STM32F4xx_StdPeriph_Driver/src/stm32f4xx_gpio.c ****   {
 428:libs/STM32F4xx_StdPeriph_Driver/src/stm32f4xx_gpio.c ****     GPIOx->BSRRL = GPIO_Pin;
 789              		.loc 1 428 0
 790 0016 7B68     		ldr	r3, [r7, #4]
 791 0018 7A88     		ldrh	r2, [r7, #2]	@ movhi
 792 001a 1A83     		strh	r2, [r3, #24]	@ movhi
 793 001c 02E0     		b	.L33
 794              	.L34:
 429:libs/STM32F4xx_StdPeriph_Driver/src/stm32f4xx_gpio.c ****   }
 430:libs/STM32F4xx_StdPeriph_Driver/src/stm32f4xx_gpio.c ****   else
 431:libs/STM32F4xx_StdPeriph_Driver/src/stm32f4xx_gpio.c ****   {
 432:libs/STM32F4xx_StdPeriph_Driver/src/stm32f4xx_gpio.c ****     GPIOx->BSRRH = GPIO_Pin ;
 795              		.loc 1 432 0
 796 001e 7B68     		ldr	r3, [r7, #4]
 797 0020 7A88     		ldrh	r2, [r7, #2]	@ movhi
 798 0022 5A83     		strh	r2, [r3, #26]	@ movhi
 799              	.L33:
 433:libs/STM32F4xx_StdPeriph_Driver/src/stm32f4xx_gpio.c ****   }
 434:libs/STM32F4xx_StdPeriph_Driver/src/stm32f4xx_gpio.c **** }
 800              		.loc 1 434 0
 801 0024 0C37     		adds	r7, r7, #12
 802 0026 BD46     		mov	sp, r7
 803              		@ sp needed
 804 0028 5DF8047B 		ldr	r7, [sp], #4
 805 002c 7047     		bx	lr
 806              		.cfi_endproc
 807              	.LFE120:
 809 002e 00BF     		.section	.text.GPIO_Write,"ax",%progbits
 810              		.align	2
 811              		.global	GPIO_Write
 812              		.thumb
 813              		.thumb_func
 815              	GPIO_Write:
 816              	.LFB121:
 435:libs/STM32F4xx_StdPeriph_Driver/src/stm32f4xx_gpio.c **** 
 436:libs/STM32F4xx_StdPeriph_Driver/src/stm32f4xx_gpio.c **** /**
 437:libs/STM32F4xx_StdPeriph_Driver/src/stm32f4xx_gpio.c ****   * @brief  Writes data to the specified GPIO data port.
 438:libs/STM32F4xx_StdPeriph_Driver/src/stm32f4xx_gpio.c ****   * @param  GPIOx: where x can be (A..I) to select the GPIO peripheral.
 439:libs/STM32F4xx_StdPeriph_Driver/src/stm32f4xx_gpio.c ****   * @param  PortVal: specifies the value to be written to the port output data register.
 440:libs/STM32F4xx_StdPeriph_Driver/src/stm32f4xx_gpio.c ****   * @retval None
 441:libs/STM32F4xx_StdPeriph_Driver/src/stm32f4xx_gpio.c ****   */
 442:libs/STM32F4xx_StdPeriph_Driver/src/stm32f4xx_gpio.c **** void GPIO_Write(GPIO_TypeDef* GPIOx, uint16_t PortVal)
 443:libs/STM32F4xx_StdPeriph_Driver/src/stm32f4xx_gpio.c **** {
 817              		.loc 1 443 0
 818              		.cfi_startproc
 819              		@ args = 0, pretend = 0, frame = 8
 820              		@ frame_needed = 1, uses_anonymous_args = 0
 821              		@ link register save eliminated.
 822 0000 80B4     		push	{r7}
 823              	.LCFI33:
 824              		.cfi_def_cfa_offset 4
 825              		.cfi_offset 7, -4
 826 0002 83B0     		sub	sp, sp, #12
 827              	.LCFI34:
 828              		.cfi_def_cfa_offset 16
 829 0004 00AF     		add	r7, sp, #0
 830              	.LCFI35:
 831              		.cfi_def_cfa_register 7
 832 0006 7860     		str	r0, [r7, #4]
 833 0008 0B46     		mov	r3, r1
 834 000a 7B80     		strh	r3, [r7, #2]	@ movhi
 444:libs/STM32F4xx_StdPeriph_Driver/src/stm32f4xx_gpio.c ****   /* Check the parameters */
 445:libs/STM32F4xx_StdPeriph_Driver/src/stm32f4xx_gpio.c ****   assert_param(IS_GPIO_ALL_PERIPH(GPIOx));
 446:libs/STM32F4xx_StdPeriph_Driver/src/stm32f4xx_gpio.c **** 
 447:libs/STM32F4xx_StdPeriph_Driver/src/stm32f4xx_gpio.c ****   GPIOx->ODR = PortVal;
 835              		.loc 1 447 0
 836 000c 7A88     		ldrh	r2, [r7, #2]
 837 000e 7B68     		ldr	r3, [r7, #4]
 838 0010 5A61     		str	r2, [r3, #20]
 448:libs/STM32F4xx_StdPeriph_Driver/src/stm32f4xx_gpio.c **** }
 839              		.loc 1 448 0
 840 0012 0C37     		adds	r7, r7, #12
 841 0014 BD46     		mov	sp, r7
 842              		@ sp needed
 843 0016 5DF8047B 		ldr	r7, [sp], #4
 844 001a 7047     		bx	lr
 845              		.cfi_endproc
 846              	.LFE121:
 848              		.section	.text.GPIO_ToggleBits,"ax",%progbits
 849              		.align	2
 850              		.global	GPIO_ToggleBits
 851              		.thumb
 852              		.thumb_func
 854              	GPIO_ToggleBits:
 855              	.LFB122:
 449:libs/STM32F4xx_StdPeriph_Driver/src/stm32f4xx_gpio.c **** 
 450:libs/STM32F4xx_StdPeriph_Driver/src/stm32f4xx_gpio.c **** /**
 451:libs/STM32F4xx_StdPeriph_Driver/src/stm32f4xx_gpio.c ****   * @brief  Toggles the specified GPIO pins..
 452:libs/STM32F4xx_StdPeriph_Driver/src/stm32f4xx_gpio.c ****   * @param  GPIOx: where x can be (A..I) to select the GPIO peripheral.
 453:libs/STM32F4xx_StdPeriph_Driver/src/stm32f4xx_gpio.c ****   * @param  GPIO_Pin: Specifies the pins to be toggled.
 454:libs/STM32F4xx_StdPeriph_Driver/src/stm32f4xx_gpio.c ****   * @retval None
 455:libs/STM32F4xx_StdPeriph_Driver/src/stm32f4xx_gpio.c ****   */
 456:libs/STM32F4xx_StdPeriph_Driver/src/stm32f4xx_gpio.c **** void GPIO_ToggleBits(GPIO_TypeDef* GPIOx, uint16_t GPIO_Pin)
 457:libs/STM32F4xx_StdPeriph_Driver/src/stm32f4xx_gpio.c **** {
 856              		.loc 1 457 0
 857              		.cfi_startproc
 858              		@ args = 0, pretend = 0, frame = 8
 859              		@ frame_needed = 1, uses_anonymous_args = 0
 860              		@ link register save eliminated.
 861 0000 80B4     		push	{r7}
 862              	.LCFI36:
 863              		.cfi_def_cfa_offset 4
 864              		.cfi_offset 7, -4
 865 0002 83B0     		sub	sp, sp, #12
 866              	.LCFI37:
 867              		.cfi_def_cfa_offset 16
 868 0004 00AF     		add	r7, sp, #0
 869              	.LCFI38:
 870              		.cfi_def_cfa_register 7
 871 0006 7860     		str	r0, [r7, #4]
 872 0008 0B46     		mov	r3, r1
 873 000a 7B80     		strh	r3, [r7, #2]	@ movhi
 458:libs/STM32F4xx_StdPeriph_Driver/src/stm32f4xx_gpio.c ****   /* Check the parameters */
 459:libs/STM32F4xx_StdPeriph_Driver/src/stm32f4xx_gpio.c ****   assert_param(IS_GPIO_ALL_PERIPH(GPIOx));
 460:libs/STM32F4xx_StdPeriph_Driver/src/stm32f4xx_gpio.c **** 
 461:libs/STM32F4xx_StdPeriph_Driver/src/stm32f4xx_gpio.c ****   GPIOx->ODR ^= GPIO_Pin;
 874              		.loc 1 461 0
 875 000c 7B68     		ldr	r3, [r7, #4]
 876 000e 5A69     		ldr	r2, [r3, #20]
 877 0010 7B88     		ldrh	r3, [r7, #2]
 878 0012 5A40     		eors	r2, r2, r3
 879 0014 7B68     		ldr	r3, [r7, #4]
 880 0016 5A61     		str	r2, [r3, #20]
 462:libs/STM32F4xx_StdPeriph_Driver/src/stm32f4xx_gpio.c **** }
 881              		.loc 1 462 0
 882 0018 0C37     		adds	r7, r7, #12
 883 001a BD46     		mov	sp, r7
 884              		@ sp needed
 885 001c 5DF8047B 		ldr	r7, [sp], #4
 886 0020 7047     		bx	lr
 887              		.cfi_endproc
 888              	.LFE122:
 890 0022 00BF     		.section	.text.GPIO_PinAFConfig,"ax",%progbits
 891              		.align	2
 892              		.global	GPIO_PinAFConfig
 893              		.thumb
 894              		.thumb_func
 896              	GPIO_PinAFConfig:
 897              	.LFB123:
 463:libs/STM32F4xx_StdPeriph_Driver/src/stm32f4xx_gpio.c **** 
 464:libs/STM32F4xx_StdPeriph_Driver/src/stm32f4xx_gpio.c **** /**
 465:libs/STM32F4xx_StdPeriph_Driver/src/stm32f4xx_gpio.c ****   * @}
 466:libs/STM32F4xx_StdPeriph_Driver/src/stm32f4xx_gpio.c ****   */
 467:libs/STM32F4xx_StdPeriph_Driver/src/stm32f4xx_gpio.c **** 
 468:libs/STM32F4xx_StdPeriph_Driver/src/stm32f4xx_gpio.c **** /** @defgroup GPIO_Group3 GPIO Alternate functions configuration function
 469:libs/STM32F4xx_StdPeriph_Driver/src/stm32f4xx_gpio.c ****  *  @brief   GPIO Alternate functions configuration function
 470:libs/STM32F4xx_StdPeriph_Driver/src/stm32f4xx_gpio.c ****  *
 471:libs/STM32F4xx_StdPeriph_Driver/src/stm32f4xx_gpio.c **** @verbatim   
 472:libs/STM32F4xx_StdPeriph_Driver/src/stm32f4xx_gpio.c ****  ===============================================================================
 473:libs/STM32F4xx_StdPeriph_Driver/src/stm32f4xx_gpio.c ****                GPIO Alternate functions configuration function
 474:libs/STM32F4xx_StdPeriph_Driver/src/stm32f4xx_gpio.c ****  ===============================================================================  
 475:libs/STM32F4xx_StdPeriph_Driver/src/stm32f4xx_gpio.c **** 
 476:libs/STM32F4xx_StdPeriph_Driver/src/stm32f4xx_gpio.c **** @endverbatim
 477:libs/STM32F4xx_StdPeriph_Driver/src/stm32f4xx_gpio.c ****   * @{
 478:libs/STM32F4xx_StdPeriph_Driver/src/stm32f4xx_gpio.c ****   */
 479:libs/STM32F4xx_StdPeriph_Driver/src/stm32f4xx_gpio.c **** 
 480:libs/STM32F4xx_StdPeriph_Driver/src/stm32f4xx_gpio.c **** /**
 481:libs/STM32F4xx_StdPeriph_Driver/src/stm32f4xx_gpio.c ****   * @brief  Changes the mapping of the specified pin.
 482:libs/STM32F4xx_StdPeriph_Driver/src/stm32f4xx_gpio.c ****   * @param  GPIOx: where x can be (A..I) to select the GPIO peripheral.
 483:libs/STM32F4xx_StdPeriph_Driver/src/stm32f4xx_gpio.c ****   * @param  GPIO_PinSource: specifies the pin for the Alternate function.
 484:libs/STM32F4xx_StdPeriph_Driver/src/stm32f4xx_gpio.c ****   *         This parameter can be GPIO_PinSourcex where x can be (0..15).
 485:libs/STM32F4xx_StdPeriph_Driver/src/stm32f4xx_gpio.c ****   * @param  GPIO_AFSelection: selects the pin to used as Alternate function.
 486:libs/STM32F4xx_StdPeriph_Driver/src/stm32f4xx_gpio.c ****   *          This parameter can be one of the following values:
 487:libs/STM32F4xx_StdPeriph_Driver/src/stm32f4xx_gpio.c ****   *            @arg GPIO_AF_RTC_50Hz: Connect RTC_50Hz pin to AF0 (default after reset) 
 488:libs/STM32F4xx_StdPeriph_Driver/src/stm32f4xx_gpio.c ****   *            @arg GPIO_AF_MCO: Connect MCO pin (MCO1 and MCO2) to AF0 (default after reset) 
 489:libs/STM32F4xx_StdPeriph_Driver/src/stm32f4xx_gpio.c ****   *            @arg GPIO_AF_TAMPER: Connect TAMPER pins (TAMPER_1 and TAMPER_2) to AF0 (default aft
 490:libs/STM32F4xx_StdPeriph_Driver/src/stm32f4xx_gpio.c ****   *            @arg GPIO_AF_SWJ: Connect SWJ pins (SWD and JTAG)to AF0 (default after reset) 
 491:libs/STM32F4xx_StdPeriph_Driver/src/stm32f4xx_gpio.c ****   *            @arg GPIO_AF_TRACE: Connect TRACE pins to AF0 (default after reset)
 492:libs/STM32F4xx_StdPeriph_Driver/src/stm32f4xx_gpio.c ****   *            @arg GPIO_AF_TIM1: Connect TIM1 pins to AF1
 493:libs/STM32F4xx_StdPeriph_Driver/src/stm32f4xx_gpio.c ****   *            @arg GPIO_AF_TIM2: Connect TIM2 pins to AF1
 494:libs/STM32F4xx_StdPeriph_Driver/src/stm32f4xx_gpio.c ****   *            @arg GPIO_AF_TIM3: Connect TIM3 pins to AF2
 495:libs/STM32F4xx_StdPeriph_Driver/src/stm32f4xx_gpio.c ****   *            @arg GPIO_AF_TIM4: Connect TIM4 pins to AF2
 496:libs/STM32F4xx_StdPeriph_Driver/src/stm32f4xx_gpio.c ****   *            @arg GPIO_AF_TIM5: Connect TIM5 pins to AF2
 497:libs/STM32F4xx_StdPeriph_Driver/src/stm32f4xx_gpio.c ****   *            @arg GPIO_AF_TIM8: Connect TIM8 pins to AF3
 498:libs/STM32F4xx_StdPeriph_Driver/src/stm32f4xx_gpio.c ****   *            @arg GPIO_AF_TIM9: Connect TIM9 pins to AF3
 499:libs/STM32F4xx_StdPeriph_Driver/src/stm32f4xx_gpio.c ****   *            @arg GPIO_AF_TIM10: Connect TIM10 pins to AF3
 500:libs/STM32F4xx_StdPeriph_Driver/src/stm32f4xx_gpio.c ****   *            @arg GPIO_AF_TIM11: Connect TIM11 pins to AF3
 501:libs/STM32F4xx_StdPeriph_Driver/src/stm32f4xx_gpio.c ****   *            @arg GPIO_AF_I2C1: Connect I2C1 pins to AF4
 502:libs/STM32F4xx_StdPeriph_Driver/src/stm32f4xx_gpio.c ****   *            @arg GPIO_AF_I2C2: Connect I2C2 pins to AF4
 503:libs/STM32F4xx_StdPeriph_Driver/src/stm32f4xx_gpio.c ****   *            @arg GPIO_AF_I2C3: Connect I2C3 pins to AF4
 504:libs/STM32F4xx_StdPeriph_Driver/src/stm32f4xx_gpio.c ****   *            @arg GPIO_AF_SPI1: Connect SPI1 pins to AF5
 505:libs/STM32F4xx_StdPeriph_Driver/src/stm32f4xx_gpio.c ****   *            @arg GPIO_AF_SPI2: Connect SPI2/I2S2 pins to AF5
 506:libs/STM32F4xx_StdPeriph_Driver/src/stm32f4xx_gpio.c ****   *            @arg GPIO_AF_SPI3: Connect SPI3/I2S3 pins to AF6
 507:libs/STM32F4xx_StdPeriph_Driver/src/stm32f4xx_gpio.c ****   *            @arg GPIO_AF_I2S3ext: Connect I2S3ext pins to AF7
 508:libs/STM32F4xx_StdPeriph_Driver/src/stm32f4xx_gpio.c ****   *            @arg GPIO_AF_USART1: Connect USART1 pins to AF7
 509:libs/STM32F4xx_StdPeriph_Driver/src/stm32f4xx_gpio.c ****   *            @arg GPIO_AF_USART2: Connect USART2 pins to AF7
 510:libs/STM32F4xx_StdPeriph_Driver/src/stm32f4xx_gpio.c ****   *            @arg GPIO_AF_USART3: Connect USART3 pins to AF7
 511:libs/STM32F4xx_StdPeriph_Driver/src/stm32f4xx_gpio.c ****   *            @arg GPIO_AF_UART4: Connect UART4 pins to AF8
 512:libs/STM32F4xx_StdPeriph_Driver/src/stm32f4xx_gpio.c ****   *            @arg GPIO_AF_UART5: Connect UART5 pins to AF8
 513:libs/STM32F4xx_StdPeriph_Driver/src/stm32f4xx_gpio.c ****   *            @arg GPIO_AF_USART6: Connect USART6 pins to AF8
 514:libs/STM32F4xx_StdPeriph_Driver/src/stm32f4xx_gpio.c ****   *            @arg GPIO_AF_CAN1: Connect CAN1 pins to AF9
 515:libs/STM32F4xx_StdPeriph_Driver/src/stm32f4xx_gpio.c ****   *            @arg GPIO_AF_CAN2: Connect CAN2 pins to AF9
 516:libs/STM32F4xx_StdPeriph_Driver/src/stm32f4xx_gpio.c ****   *            @arg GPIO_AF_TIM12: Connect TIM12 pins to AF9
 517:libs/STM32F4xx_StdPeriph_Driver/src/stm32f4xx_gpio.c ****   *            @arg GPIO_AF_TIM13: Connect TIM13 pins to AF9
 518:libs/STM32F4xx_StdPeriph_Driver/src/stm32f4xx_gpio.c ****   *            @arg GPIO_AF_TIM14: Connect TIM14 pins to AF9
 519:libs/STM32F4xx_StdPeriph_Driver/src/stm32f4xx_gpio.c ****   *            @arg GPIO_AF_OTG_FS: Connect OTG_FS pins to AF10
 520:libs/STM32F4xx_StdPeriph_Driver/src/stm32f4xx_gpio.c ****   *            @arg GPIO_AF_OTG_HS: Connect OTG_HS pins to AF10
 521:libs/STM32F4xx_StdPeriph_Driver/src/stm32f4xx_gpio.c ****   *            @arg GPIO_AF_ETH: Connect ETHERNET pins to AF11
 522:libs/STM32F4xx_StdPeriph_Driver/src/stm32f4xx_gpio.c ****   *            @arg GPIO_AF_FSMC: Connect FSMC pins to AF12
 523:libs/STM32F4xx_StdPeriph_Driver/src/stm32f4xx_gpio.c ****   *            @arg GPIO_AF_OTG_HS_FS: Connect OTG HS (configured in FS) pins to AF12
 524:libs/STM32F4xx_StdPeriph_Driver/src/stm32f4xx_gpio.c ****   *            @arg GPIO_AF_SDIO: Connect SDIO pins to AF12
 525:libs/STM32F4xx_StdPeriph_Driver/src/stm32f4xx_gpio.c ****   *            @arg GPIO_AF_DCMI: Connect DCMI pins to AF13
 526:libs/STM32F4xx_StdPeriph_Driver/src/stm32f4xx_gpio.c ****   *            @arg GPIO_AF_EVENTOUT: Connect EVENTOUT pins to AF15
 527:libs/STM32F4xx_StdPeriph_Driver/src/stm32f4xx_gpio.c ****   * @retval None
 528:libs/STM32F4xx_StdPeriph_Driver/src/stm32f4xx_gpio.c ****   */
 529:libs/STM32F4xx_StdPeriph_Driver/src/stm32f4xx_gpio.c **** void GPIO_PinAFConfig(GPIO_TypeDef* GPIOx, uint16_t GPIO_PinSource, uint8_t GPIO_AF)
 530:libs/STM32F4xx_StdPeriph_Driver/src/stm32f4xx_gpio.c **** {
 898              		.loc 1 530 0
 899              		.cfi_startproc
 900              		@ args = 0, pretend = 0, frame = 16
 901              		@ frame_needed = 1, uses_anonymous_args = 0
 902              		@ link register save eliminated.
 903 0000 80B4     		push	{r7}
 904              	.LCFI39:
 905              		.cfi_def_cfa_offset 4
 906              		.cfi_offset 7, -4
 907 0002 85B0     		sub	sp, sp, #20
 908              	.LCFI40:
 909              		.cfi_def_cfa_offset 24
 910 0004 00AF     		add	r7, sp, #0
 911              	.LCFI41:
 912              		.cfi_def_cfa_register 7
 913 0006 7860     		str	r0, [r7, #4]
 914 0008 1346     		mov	r3, r2
 915 000a 0A46     		mov	r2, r1	@ movhi
 916 000c 7A80     		strh	r2, [r7, #2]	@ movhi
 917 000e 7B70     		strb	r3, [r7, #1]
 531:libs/STM32F4xx_StdPeriph_Driver/src/stm32f4xx_gpio.c ****   uint32_t temp = 0x00;
 918              		.loc 1 531 0
 919 0010 0023     		movs	r3, #0
 920 0012 FB60     		str	r3, [r7, #12]
 532:libs/STM32F4xx_StdPeriph_Driver/src/stm32f4xx_gpio.c ****   uint32_t temp_2 = 0x00;
 921              		.loc 1 532 0
 922 0014 0023     		movs	r3, #0
 923 0016 BB60     		str	r3, [r7, #8]
 533:libs/STM32F4xx_StdPeriph_Driver/src/stm32f4xx_gpio.c ****   
 534:libs/STM32F4xx_StdPeriph_Driver/src/stm32f4xx_gpio.c ****   /* Check the parameters */
 535:libs/STM32F4xx_StdPeriph_Driver/src/stm32f4xx_gpio.c ****   assert_param(IS_GPIO_ALL_PERIPH(GPIOx));
 536:libs/STM32F4xx_StdPeriph_Driver/src/stm32f4xx_gpio.c ****   assert_param(IS_GPIO_PIN_SOURCE(GPIO_PinSource));
 537:libs/STM32F4xx_StdPeriph_Driver/src/stm32f4xx_gpio.c ****   assert_param(IS_GPIO_AF(GPIO_AF));
 538:libs/STM32F4xx_StdPeriph_Driver/src/stm32f4xx_gpio.c ****   
 539:libs/STM32F4xx_StdPeriph_Driver/src/stm32f4xx_gpio.c ****   temp = ((uint32_t)(GPIO_AF) << ((uint32_t)((uint32_t)GPIO_PinSource & (uint32_t)0x07) * 4)) ;
 924              		.loc 1 539 0
 925 0018 7A78     		ldrb	r2, [r7, #1]	@ zero_extendqisi2
 926 001a 7B88     		ldrh	r3, [r7, #2]
 927 001c 03F00703 		and	r3, r3, #7
 928 0020 9B00     		lsls	r3, r3, #2
 929 0022 02FA03F3 		lsl	r3, r2, r3
 930 0026 FB60     		str	r3, [r7, #12]
 540:libs/STM32F4xx_StdPeriph_Driver/src/stm32f4xx_gpio.c ****   GPIOx->AFR[GPIO_PinSource >> 0x03] &= ~((uint32_t)0xF << ((uint32_t)((uint32_t)GPIO_PinSource & (
 931              		.loc 1 540 0
 932 0028 7B88     		ldrh	r3, [r7, #2]
 933 002a DB08     		lsrs	r3, r3, #3
 934 002c 9BB2     		uxth	r3, r3
 935 002e 1A46     		mov	r2, r3
 936 0030 7B88     		ldrh	r3, [r7, #2]
 937 0032 DB08     		lsrs	r3, r3, #3
 938 0034 9BB2     		uxth	r3, r3
 939 0036 1946     		mov	r1, r3
 940 0038 7B68     		ldr	r3, [r7, #4]
 941 003a 0831     		adds	r1, r1, #8
 942 003c 53F82110 		ldr	r1, [r3, r1, lsl #2]
 943 0040 7B88     		ldrh	r3, [r7, #2]
 944 0042 03F00703 		and	r3, r3, #7
 945 0046 9B00     		lsls	r3, r3, #2
 946 0048 0F20     		movs	r0, #15
 947 004a 00FA03F3 		lsl	r3, r0, r3
 948 004e DB43     		mvns	r3, r3
 949 0050 1940     		ands	r1, r1, r3
 950 0052 7B68     		ldr	r3, [r7, #4]
 951 0054 0832     		adds	r2, r2, #8
 952 0056 43F82210 		str	r1, [r3, r2, lsl #2]
 541:libs/STM32F4xx_StdPeriph_Driver/src/stm32f4xx_gpio.c ****   temp_2 = GPIOx->AFR[GPIO_PinSource >> 0x03] | temp;
 953              		.loc 1 541 0
 954 005a 7B88     		ldrh	r3, [r7, #2]
 955 005c DB08     		lsrs	r3, r3, #3
 956 005e 9BB2     		uxth	r3, r3
 957 0060 1A46     		mov	r2, r3
 958 0062 7B68     		ldr	r3, [r7, #4]
 959 0064 0832     		adds	r2, r2, #8
 960 0066 53F82220 		ldr	r2, [r3, r2, lsl #2]
 961 006a FB68     		ldr	r3, [r7, #12]
 962 006c 1343     		orrs	r3, r3, r2
 963 006e BB60     		str	r3, [r7, #8]
 542:libs/STM32F4xx_StdPeriph_Driver/src/stm32f4xx_gpio.c ****   GPIOx->AFR[GPIO_PinSource >> 0x03] = temp_2;
 964              		.loc 1 542 0
 965 0070 7B88     		ldrh	r3, [r7, #2]
 966 0072 DB08     		lsrs	r3, r3, #3
 967 0074 9BB2     		uxth	r3, r3
 968 0076 1A46     		mov	r2, r3
 969 0078 7B68     		ldr	r3, [r7, #4]
 970 007a 0832     		adds	r2, r2, #8
 971 007c B968     		ldr	r1, [r7, #8]
 972 007e 43F82210 		str	r1, [r3, r2, lsl #2]
 543:libs/STM32F4xx_StdPeriph_Driver/src/stm32f4xx_gpio.c **** }
 973              		.loc 1 543 0
 974 0082 1437     		adds	r7, r7, #20
 975 0084 BD46     		mov	sp, r7
 976              		@ sp needed
 977 0086 5DF8047B 		ldr	r7, [sp], #4
 978 008a 7047     		bx	lr
 979              		.cfi_endproc
 980              	.LFE123:
 982              		.text
 983              	.Letext0:
 984              		.file 2 "/usr/include/newlib/machine/_default_types.h"
 985              		.file 3 "/usr/include/newlib/stdint.h"
 986              		.file 4 "libs/Device/STM32F4xx/Include/stm32f4xx.h"
 987              		.file 5 "libs/STM32F4xx_StdPeriph_Driver/inc/stm32f4xx_gpio.h"
 988              		.file 6 "libs/CMSIS/Include/core_cm4.h"