   1              		.syntax unified
   2              		.cpu cortex-m4
   3              		.eabi_attribute 27, 3
   4              		.fpu fpv4-sp-d16
   5              		.eabi_attribute 20, 1
   6              		.eabi_attribute 21, 1
   7              		.eabi_attribute 23, 3
   8              		.eabi_attribute 24, 1
   9              		.eabi_attribute 25, 1
  10              		.eabi_attribute 26, 1
  11              		.eabi_attribute 30, 1
  12              		.eabi_attribute 34, 1
  13              		.eabi_attribute 18, 4
  14              		.thumb
  15              		.file	"stm32f4xx_fsmc.c"
  16              		.text
  17              	.Ltext0:
  18              		.cfi_sections	.debug_frame
  19              		.section	.text.FSMC_NORSRAMDeInit,"ax",%progbits
  20              		.align	2
  21              		.global	FSMC_NORSRAMDeInit
  22              		.thumb
  23              		.thumb_func
  25              	FSMC_NORSRAMDeInit:
  26              	.LFB110:
  27              		.file 1 "libs/STM32F4xx_StdPeriph_Driver/src/stm32f4xx_fsmc.c"
   1:libs/STM32F4xx_StdPeriph_Driver/src/stm32f4xx_fsmc.c **** /**
   2:libs/STM32F4xx_StdPeriph_Driver/src/stm32f4xx_fsmc.c ****   ******************************************************************************
   3:libs/STM32F4xx_StdPeriph_Driver/src/stm32f4xx_fsmc.c ****   * @file    stm32f4xx_fsmc.c
   4:libs/STM32F4xx_StdPeriph_Driver/src/stm32f4xx_fsmc.c ****   * @author  MCD Application Team
   5:libs/STM32F4xx_StdPeriph_Driver/src/stm32f4xx_fsmc.c ****   * @version V1.0.0RC1
   6:libs/STM32F4xx_StdPeriph_Driver/src/stm32f4xx_fsmc.c ****   * @date    25-August-2011
   7:libs/STM32F4xx_StdPeriph_Driver/src/stm32f4xx_fsmc.c ****  * @brief    This file provides firmware functions to manage the following 
   8:libs/STM32F4xx_StdPeriph_Driver/src/stm32f4xx_fsmc.c ****   *          functionalities of the FSMC peripheral:           
   9:libs/STM32F4xx_StdPeriph_Driver/src/stm32f4xx_fsmc.c ****   *           - Interface with SRAM, PSRAM, NOR and OneNAND memories
  10:libs/STM32F4xx_StdPeriph_Driver/src/stm32f4xx_fsmc.c ****   *           - Interface with NAND memories
  11:libs/STM32F4xx_StdPeriph_Driver/src/stm32f4xx_fsmc.c ****   *           - Interface with 16-bit PC Card compatible memories  
  12:libs/STM32F4xx_StdPeriph_Driver/src/stm32f4xx_fsmc.c ****   *           - Interrupts and flags management   
  13:libs/STM32F4xx_StdPeriph_Driver/src/stm32f4xx_fsmc.c ****   *           
  14:libs/STM32F4xx_StdPeriph_Driver/src/stm32f4xx_fsmc.c ****   ******************************************************************************
  15:libs/STM32F4xx_StdPeriph_Driver/src/stm32f4xx_fsmc.c **** 
  16:libs/STM32F4xx_StdPeriph_Driver/src/stm32f4xx_fsmc.c ****   * @attention
  17:libs/STM32F4xx_StdPeriph_Driver/src/stm32f4xx_fsmc.c ****   *
  18:libs/STM32F4xx_StdPeriph_Driver/src/stm32f4xx_fsmc.c ****   * THE PRESENT FIRMWARE WHICH IS FOR GUIDANCE ONLY AIMS AT PROVIDING CUSTOMERS
  19:libs/STM32F4xx_StdPeriph_Driver/src/stm32f4xx_fsmc.c ****   * WITH CODING INFORMATION REGARDING THEIR PRODUCTS IN ORDER FOR THEM TO SAVE
  20:libs/STM32F4xx_StdPeriph_Driver/src/stm32f4xx_fsmc.c ****   * TIME. AS A RESULT, STMICROELECTRONICS SHALL NOT BE HELD LIABLE FOR ANY
  21:libs/STM32F4xx_StdPeriph_Driver/src/stm32f4xx_fsmc.c ****   * DIRECT, INDIRECT OR CONSEQUENTIAL DAMAGES WITH RESPECT TO ANY CLAIMS ARISING
  22:libs/STM32F4xx_StdPeriph_Driver/src/stm32f4xx_fsmc.c ****   * FROM THE CONTENT OF SUCH FIRMWARE AND/OR THE USE MADE BY CUSTOMERS OF THE
  23:libs/STM32F4xx_StdPeriph_Driver/src/stm32f4xx_fsmc.c ****   * CODING INFORMATION CONTAINED HEREIN IN CONNECTION WITH THEIR PRODUCTS.
  24:libs/STM32F4xx_StdPeriph_Driver/src/stm32f4xx_fsmc.c ****   *
  25:libs/STM32F4xx_StdPeriph_Driver/src/stm32f4xx_fsmc.c ****   * <h2><center>&copy; COPYRIGHT 2011 STMicroelectronics</center></h2>
  26:libs/STM32F4xx_StdPeriph_Driver/src/stm32f4xx_fsmc.c ****   ******************************************************************************
  27:libs/STM32F4xx_StdPeriph_Driver/src/stm32f4xx_fsmc.c ****   */
  28:libs/STM32F4xx_StdPeriph_Driver/src/stm32f4xx_fsmc.c **** 
  29:libs/STM32F4xx_StdPeriph_Driver/src/stm32f4xx_fsmc.c **** /* Includes ------------------------------------------------------------------*/
  30:libs/STM32F4xx_StdPeriph_Driver/src/stm32f4xx_fsmc.c **** #include "stm32f4xx_fsmc.h"
  31:libs/STM32F4xx_StdPeriph_Driver/src/stm32f4xx_fsmc.c **** #include "stm32f4xx_rcc.h"
  32:libs/STM32F4xx_StdPeriph_Driver/src/stm32f4xx_fsmc.c **** 
  33:libs/STM32F4xx_StdPeriph_Driver/src/stm32f4xx_fsmc.c **** /** @addtogroup STM32F4xx_StdPeriph_Driver
  34:libs/STM32F4xx_StdPeriph_Driver/src/stm32f4xx_fsmc.c ****   * @{
  35:libs/STM32F4xx_StdPeriph_Driver/src/stm32f4xx_fsmc.c ****   */
  36:libs/STM32F4xx_StdPeriph_Driver/src/stm32f4xx_fsmc.c **** 
  37:libs/STM32F4xx_StdPeriph_Driver/src/stm32f4xx_fsmc.c **** /** @defgroup FSMC 
  38:libs/STM32F4xx_StdPeriph_Driver/src/stm32f4xx_fsmc.c ****   * @brief FSMC driver modules
  39:libs/STM32F4xx_StdPeriph_Driver/src/stm32f4xx_fsmc.c ****   * @{
  40:libs/STM32F4xx_StdPeriph_Driver/src/stm32f4xx_fsmc.c ****   */ 
  41:libs/STM32F4xx_StdPeriph_Driver/src/stm32f4xx_fsmc.c **** 
  42:libs/STM32F4xx_StdPeriph_Driver/src/stm32f4xx_fsmc.c **** /* Private typedef -----------------------------------------------------------*/
  43:libs/STM32F4xx_StdPeriph_Driver/src/stm32f4xx_fsmc.c **** /* Private define ------------------------------------------------------------*/
  44:libs/STM32F4xx_StdPeriph_Driver/src/stm32f4xx_fsmc.c **** 
  45:libs/STM32F4xx_StdPeriph_Driver/src/stm32f4xx_fsmc.c **** /* --------------------- FSMC registers bit mask ---------------------------- */
  46:libs/STM32F4xx_StdPeriph_Driver/src/stm32f4xx_fsmc.c **** /* FSMC BCRx Mask */
  47:libs/STM32F4xx_StdPeriph_Driver/src/stm32f4xx_fsmc.c **** #define BCR_MBKEN_SET          ((uint32_t)0x00000001)
  48:libs/STM32F4xx_StdPeriph_Driver/src/stm32f4xx_fsmc.c **** #define BCR_MBKEN_RESET        ((uint32_t)0x000FFFFE)
  49:libs/STM32F4xx_StdPeriph_Driver/src/stm32f4xx_fsmc.c **** #define BCR_FACCEN_SET         ((uint32_t)0x00000040)
  50:libs/STM32F4xx_StdPeriph_Driver/src/stm32f4xx_fsmc.c **** 
  51:libs/STM32F4xx_StdPeriph_Driver/src/stm32f4xx_fsmc.c **** /* FSMC PCRx Mask */
  52:libs/STM32F4xx_StdPeriph_Driver/src/stm32f4xx_fsmc.c **** #define PCR_PBKEN_SET          ((uint32_t)0x00000004)
  53:libs/STM32F4xx_StdPeriph_Driver/src/stm32f4xx_fsmc.c **** #define PCR_PBKEN_RESET        ((uint32_t)0x000FFFFB)
  54:libs/STM32F4xx_StdPeriph_Driver/src/stm32f4xx_fsmc.c **** #define PCR_ECCEN_SET          ((uint32_t)0x00000040)
  55:libs/STM32F4xx_StdPeriph_Driver/src/stm32f4xx_fsmc.c **** #define PCR_ECCEN_RESET        ((uint32_t)0x000FFFBF)
  56:libs/STM32F4xx_StdPeriph_Driver/src/stm32f4xx_fsmc.c **** #define PCR_MEMORYTYPE_NAND    ((uint32_t)0x00000008)
  57:libs/STM32F4xx_StdPeriph_Driver/src/stm32f4xx_fsmc.c **** 
  58:libs/STM32F4xx_StdPeriph_Driver/src/stm32f4xx_fsmc.c **** /* Private macro -------------------------------------------------------------*/
  59:libs/STM32F4xx_StdPeriph_Driver/src/stm32f4xx_fsmc.c **** /* Private variables ---------------------------------------------------------*/
  60:libs/STM32F4xx_StdPeriph_Driver/src/stm32f4xx_fsmc.c **** /* Private function prototypes -----------------------------------------------*/
  61:libs/STM32F4xx_StdPeriph_Driver/src/stm32f4xx_fsmc.c **** /* Private functions ---------------------------------------------------------*/
  62:libs/STM32F4xx_StdPeriph_Driver/src/stm32f4xx_fsmc.c **** 
  63:libs/STM32F4xx_StdPeriph_Driver/src/stm32f4xx_fsmc.c **** /** @defgroup FSMC_Private_Functions
  64:libs/STM32F4xx_StdPeriph_Driver/src/stm32f4xx_fsmc.c ****   * @{
  65:libs/STM32F4xx_StdPeriph_Driver/src/stm32f4xx_fsmc.c ****   */
  66:libs/STM32F4xx_StdPeriph_Driver/src/stm32f4xx_fsmc.c **** 
  67:libs/STM32F4xx_StdPeriph_Driver/src/stm32f4xx_fsmc.c **** /** @defgroup FSMC_Group1 NOR/SRAM Controller functions
  68:libs/STM32F4xx_StdPeriph_Driver/src/stm32f4xx_fsmc.c ****  *  @brief   NOR/SRAM Controller functions 
  69:libs/STM32F4xx_StdPeriph_Driver/src/stm32f4xx_fsmc.c ****  *
  70:libs/STM32F4xx_StdPeriph_Driver/src/stm32f4xx_fsmc.c **** @verbatim   
  71:libs/STM32F4xx_StdPeriph_Driver/src/stm32f4xx_fsmc.c ****  ===============================================================================
  72:libs/STM32F4xx_StdPeriph_Driver/src/stm32f4xx_fsmc.c ****                     NOR/SRAM Controller functions
  73:libs/STM32F4xx_StdPeriph_Driver/src/stm32f4xx_fsmc.c ****  ===============================================================================  
  74:libs/STM32F4xx_StdPeriph_Driver/src/stm32f4xx_fsmc.c **** 
  75:libs/STM32F4xx_StdPeriph_Driver/src/stm32f4xx_fsmc.c ****  The following sequence should be followed to configure the FSMC to interface with
  76:libs/STM32F4xx_StdPeriph_Driver/src/stm32f4xx_fsmc.c ****  SRAM, PSRAM, NOR or OneNAND memory connected to the NOR/SRAM Bank:
  77:libs/STM32F4xx_StdPeriph_Driver/src/stm32f4xx_fsmc.c ****  
  78:libs/STM32F4xx_StdPeriph_Driver/src/stm32f4xx_fsmc.c ****    1. Enable the clock for the FSMC and associated GPIOs using the following functions:
  79:libs/STM32F4xx_StdPeriph_Driver/src/stm32f4xx_fsmc.c ****           RCC_AHB3PeriphClockCmd(RCC_AHB3Periph_FSMC, ENABLE);
  80:libs/STM32F4xx_StdPeriph_Driver/src/stm32f4xx_fsmc.c ****           RCC_AHB1PeriphClockCmd(RCC_AHB1Periph_GPIOx, ENABLE);
  81:libs/STM32F4xx_StdPeriph_Driver/src/stm32f4xx_fsmc.c **** 
  82:libs/STM32F4xx_StdPeriph_Driver/src/stm32f4xx_fsmc.c ****    2. FSMC pins configuration 
  83:libs/STM32F4xx_StdPeriph_Driver/src/stm32f4xx_fsmc.c ****        - Connect the involved FSMC pins to AF12 using the following function 
  84:libs/STM32F4xx_StdPeriph_Driver/src/stm32f4xx_fsmc.c ****           GPIO_PinAFConfig(GPIOx, GPIO_PinSourcex, GPIO_AF_FSMC); 
  85:libs/STM32F4xx_StdPeriph_Driver/src/stm32f4xx_fsmc.c ****        - Configure these FSMC pins in alternate function mode by calling the function
  86:libs/STM32F4xx_StdPeriph_Driver/src/stm32f4xx_fsmc.c ****           GPIO_Init();    
  87:libs/STM32F4xx_StdPeriph_Driver/src/stm32f4xx_fsmc.c ****        
  88:libs/STM32F4xx_StdPeriph_Driver/src/stm32f4xx_fsmc.c ****    3. Declare a FSMC_NORSRAMInitTypeDef structure, for example:
  89:libs/STM32F4xx_StdPeriph_Driver/src/stm32f4xx_fsmc.c ****           FSMC_NORSRAMInitTypeDef  FSMC_NORSRAMInitStructure;
  90:libs/STM32F4xx_StdPeriph_Driver/src/stm32f4xx_fsmc.c ****       and fill the FSMC_NORSRAMInitStructure variable with the allowed values of
  91:libs/STM32F4xx_StdPeriph_Driver/src/stm32f4xx_fsmc.c ****       the structure member.
  92:libs/STM32F4xx_StdPeriph_Driver/src/stm32f4xx_fsmc.c ****       
  93:libs/STM32F4xx_StdPeriph_Driver/src/stm32f4xx_fsmc.c ****    4. Initialize the NOR/SRAM Controller by calling the function
  94:libs/STM32F4xx_StdPeriph_Driver/src/stm32f4xx_fsmc.c ****           FSMC_NORSRAMInit(&FSMC_NORSRAMInitStructure); 
  95:libs/STM32F4xx_StdPeriph_Driver/src/stm32f4xx_fsmc.c **** 
  96:libs/STM32F4xx_StdPeriph_Driver/src/stm32f4xx_fsmc.c ****    5. Then enable the NOR/SRAM Bank, for example:
  97:libs/STM32F4xx_StdPeriph_Driver/src/stm32f4xx_fsmc.c ****           FSMC_NORSRAMCmd(FSMC_Bank1_NORSRAM2, ENABLE);  
  98:libs/STM32F4xx_StdPeriph_Driver/src/stm32f4xx_fsmc.c **** 
  99:libs/STM32F4xx_StdPeriph_Driver/src/stm32f4xx_fsmc.c ****    6. At this stage you can read/write from/to the memory connected to the NOR/SRAM Bank. 
 100:libs/STM32F4xx_StdPeriph_Driver/src/stm32f4xx_fsmc.c ****    
 101:libs/STM32F4xx_StdPeriph_Driver/src/stm32f4xx_fsmc.c **** @endverbatim
 102:libs/STM32F4xx_StdPeriph_Driver/src/stm32f4xx_fsmc.c ****   * @{
 103:libs/STM32F4xx_StdPeriph_Driver/src/stm32f4xx_fsmc.c ****   */
 104:libs/STM32F4xx_StdPeriph_Driver/src/stm32f4xx_fsmc.c **** 
 105:libs/STM32F4xx_StdPeriph_Driver/src/stm32f4xx_fsmc.c **** /**
 106:libs/STM32F4xx_StdPeriph_Driver/src/stm32f4xx_fsmc.c ****   * @brief  Deinitializes the FSMC NOR/SRAM Banks registers to their default 
 107:libs/STM32F4xx_StdPeriph_Driver/src/stm32f4xx_fsmc.c ****   *   reset values.
 108:libs/STM32F4xx_StdPeriph_Driver/src/stm32f4xx_fsmc.c ****   * @param  FSMC_Bank: specifies the FSMC Bank to be used
 109:libs/STM32F4xx_StdPeriph_Driver/src/stm32f4xx_fsmc.c ****   *          This parameter can be one of the following values:
 110:libs/STM32F4xx_StdPeriph_Driver/src/stm32f4xx_fsmc.c ****   *            @arg FSMC_Bank1_NORSRAM1: FSMC Bank1 NOR/SRAM1  
 111:libs/STM32F4xx_StdPeriph_Driver/src/stm32f4xx_fsmc.c ****   *            @arg FSMC_Bank1_NORSRAM2: FSMC Bank1 NOR/SRAM2 
 112:libs/STM32F4xx_StdPeriph_Driver/src/stm32f4xx_fsmc.c ****   *            @arg FSMC_Bank1_NORSRAM3: FSMC Bank1 NOR/SRAM3 
 113:libs/STM32F4xx_StdPeriph_Driver/src/stm32f4xx_fsmc.c ****   *            @arg FSMC_Bank1_NORSRAM4: FSMC Bank1 NOR/SRAM4 
 114:libs/STM32F4xx_StdPeriph_Driver/src/stm32f4xx_fsmc.c ****   * @retval None
 115:libs/STM32F4xx_StdPeriph_Driver/src/stm32f4xx_fsmc.c ****   */
 116:libs/STM32F4xx_StdPeriph_Driver/src/stm32f4xx_fsmc.c **** void FSMC_NORSRAMDeInit(uint32_t FSMC_Bank)
 117:libs/STM32F4xx_StdPeriph_Driver/src/stm32f4xx_fsmc.c **** {
  28              		.loc 1 117 0
  29              		.cfi_startproc
  30              		@ args = 0, pretend = 0, frame = 0
  31              		@ frame_needed = 0, uses_anonymous_args = 0
  32              		@ link register save eliminated.
  33              	.LVL0:
 118:libs/STM32F4xx_StdPeriph_Driver/src/stm32f4xx_fsmc.c ****   /* Check the parameter */
 119:libs/STM32F4xx_StdPeriph_Driver/src/stm32f4xx_fsmc.c ****   assert_param(IS_FSMC_NORSRAM_BANK(FSMC_Bank));
 120:libs/STM32F4xx_StdPeriph_Driver/src/stm32f4xx_fsmc.c ****   
 121:libs/STM32F4xx_StdPeriph_Driver/src/stm32f4xx_fsmc.c ****   /* FSMC_Bank1_NORSRAM1 */
 122:libs/STM32F4xx_StdPeriph_Driver/src/stm32f4xx_fsmc.c ****   if(FSMC_Bank == FSMC_Bank1_NORSRAM1)
  34              		.loc 1 122 0
  35 0000 0346     		mov	r3, r0
  36 0002 30B9     		cbnz	r0, .L2
 123:libs/STM32F4xx_StdPeriph_Driver/src/stm32f4xx_fsmc.c ****   {
 124:libs/STM32F4xx_StdPeriph_Driver/src/stm32f4xx_fsmc.c ****     FSMC_Bank1->BTCR[FSMC_Bank] = 0x000030DB;    
  37              		.loc 1 124 0
  38 0004 43F2DB01 		movw	r1, #12507
  39 0008 4FF02042 		mov	r2, #-1610612736
  40 000c 42F82010 		str	r1, [r2, r0, lsl #2]
  41 0010 05E0     		b	.L3
  42              	.L2:
 125:libs/STM32F4xx_StdPeriph_Driver/src/stm32f4xx_fsmc.c ****   }
 126:libs/STM32F4xx_StdPeriph_Driver/src/stm32f4xx_fsmc.c ****   /* FSMC_Bank1_NORSRAM2,  FSMC_Bank1_NORSRAM3 or FSMC_Bank1_NORSRAM4 */
 127:libs/STM32F4xx_StdPeriph_Driver/src/stm32f4xx_fsmc.c ****   else
 128:libs/STM32F4xx_StdPeriph_Driver/src/stm32f4xx_fsmc.c ****   {   
 129:libs/STM32F4xx_StdPeriph_Driver/src/stm32f4xx_fsmc.c ****     FSMC_Bank1->BTCR[FSMC_Bank] = 0x000030D2; 
  43              		.loc 1 129 0
  44 0012 43F2D201 		movw	r1, #12498
  45 0016 4FF02042 		mov	r2, #-1610612736
  46 001a 42F82010 		str	r1, [r2, r0, lsl #2]
  47              	.L3:
 130:libs/STM32F4xx_StdPeriph_Driver/src/stm32f4xx_fsmc.c ****   }
 131:libs/STM32F4xx_StdPeriph_Driver/src/stm32f4xx_fsmc.c ****   FSMC_Bank1->BTCR[FSMC_Bank + 1] = 0x0FFFFFFF;
  48              		.loc 1 131 0
  49 001e 581C     		adds	r0, r3, #1
  50              	.LVL1:
  51 0020 6FF07041 		mvn	r1, #-268435456
  52 0024 4FF02042 		mov	r2, #-1610612736
  53 0028 42F82010 		str	r1, [r2, r0, lsl #2]
 132:libs/STM32F4xx_StdPeriph_Driver/src/stm32f4xx_fsmc.c ****   FSMC_Bank1E->BWTR[FSMC_Bank] = 0x0FFFFFFF;  
  54              		.loc 1 132 0
  55 002c 4FF48272 		mov	r2, #260
  56 0030 CAF20002 		movt	r2, 40960
  57 0034 42F82310 		str	r1, [r2, r3, lsl #2]
  58 0038 7047     		bx	lr
  59              		.cfi_endproc
  60              	.LFE110:
  62 003a 00BF     		.section	.text.FSMC_NORSRAMInit,"ax",%progbits
  63              		.align	2
  64              		.global	FSMC_NORSRAMInit
  65              		.thumb
  66              		.thumb_func
  68              	FSMC_NORSRAMInit:
  69              	.LFB111:
 133:libs/STM32F4xx_StdPeriph_Driver/src/stm32f4xx_fsmc.c **** }
 134:libs/STM32F4xx_StdPeriph_Driver/src/stm32f4xx_fsmc.c **** 
 135:libs/STM32F4xx_StdPeriph_Driver/src/stm32f4xx_fsmc.c **** /**
 136:libs/STM32F4xx_StdPeriph_Driver/src/stm32f4xx_fsmc.c ****   * @brief  Initializes the FSMC NOR/SRAM Banks according to the specified
 137:libs/STM32F4xx_StdPeriph_Driver/src/stm32f4xx_fsmc.c ****   *         parameters in the FSMC_NORSRAMInitStruct.
 138:libs/STM32F4xx_StdPeriph_Driver/src/stm32f4xx_fsmc.c ****   * @param  FSMC_NORSRAMInitStruct : pointer to a FSMC_NORSRAMInitTypeDef structure
 139:libs/STM32F4xx_StdPeriph_Driver/src/stm32f4xx_fsmc.c ****   *         that contains the configuration information for the FSMC NOR/SRAM 
 140:libs/STM32F4xx_StdPeriph_Driver/src/stm32f4xx_fsmc.c ****   *         specified Banks.                       
 141:libs/STM32F4xx_StdPeriph_Driver/src/stm32f4xx_fsmc.c ****   * @retval None
 142:libs/STM32F4xx_StdPeriph_Driver/src/stm32f4xx_fsmc.c ****   */
 143:libs/STM32F4xx_StdPeriph_Driver/src/stm32f4xx_fsmc.c **** void FSMC_NORSRAMInit(FSMC_NORSRAMInitTypeDef* FSMC_NORSRAMInitStruct)
 144:libs/STM32F4xx_StdPeriph_Driver/src/stm32f4xx_fsmc.c **** { 
  70              		.loc 1 144 0
  71              		.cfi_startproc
  72              		@ args = 0, pretend = 0, frame = 0
  73              		@ frame_needed = 0, uses_anonymous_args = 0
  74              		@ link register save eliminated.
  75              	.LVL2:
  76 0000 10B4     		push	{r4}
  77              	.LCFI0:
  78              		.cfi_def_cfa_offset 4
  79              		.cfi_offset 4, -4
 145:libs/STM32F4xx_StdPeriph_Driver/src/stm32f4xx_fsmc.c ****   /* Check the parameters */
 146:libs/STM32F4xx_StdPeriph_Driver/src/stm32f4xx_fsmc.c ****   assert_param(IS_FSMC_NORSRAM_BANK(FSMC_NORSRAMInitStruct->FSMC_Bank));
 147:libs/STM32F4xx_StdPeriph_Driver/src/stm32f4xx_fsmc.c ****   assert_param(IS_FSMC_MUX(FSMC_NORSRAMInitStruct->FSMC_DataAddressMux));
 148:libs/STM32F4xx_StdPeriph_Driver/src/stm32f4xx_fsmc.c ****   assert_param(IS_FSMC_MEMORY(FSMC_NORSRAMInitStruct->FSMC_MemoryType));
 149:libs/STM32F4xx_StdPeriph_Driver/src/stm32f4xx_fsmc.c ****   assert_param(IS_FSMC_MEMORY_WIDTH(FSMC_NORSRAMInitStruct->FSMC_MemoryDataWidth));
 150:libs/STM32F4xx_StdPeriph_Driver/src/stm32f4xx_fsmc.c ****   assert_param(IS_FSMC_BURSTMODE(FSMC_NORSRAMInitStruct->FSMC_BurstAccessMode));
 151:libs/STM32F4xx_StdPeriph_Driver/src/stm32f4xx_fsmc.c ****   assert_param(IS_FSMC_ASYNWAIT(FSMC_NORSRAMInitStruct->FSMC_AsynchronousWait));
 152:libs/STM32F4xx_StdPeriph_Driver/src/stm32f4xx_fsmc.c ****   assert_param(IS_FSMC_WAIT_POLARITY(FSMC_NORSRAMInitStruct->FSMC_WaitSignalPolarity));
 153:libs/STM32F4xx_StdPeriph_Driver/src/stm32f4xx_fsmc.c ****   assert_param(IS_FSMC_WRAP_MODE(FSMC_NORSRAMInitStruct->FSMC_WrapMode));
 154:libs/STM32F4xx_StdPeriph_Driver/src/stm32f4xx_fsmc.c ****   assert_param(IS_FSMC_WAIT_SIGNAL_ACTIVE(FSMC_NORSRAMInitStruct->FSMC_WaitSignalActive));
 155:libs/STM32F4xx_StdPeriph_Driver/src/stm32f4xx_fsmc.c ****   assert_param(IS_FSMC_WRITE_OPERATION(FSMC_NORSRAMInitStruct->FSMC_WriteOperation));
 156:libs/STM32F4xx_StdPeriph_Driver/src/stm32f4xx_fsmc.c ****   assert_param(IS_FSMC_WAITE_SIGNAL(FSMC_NORSRAMInitStruct->FSMC_WaitSignal));
 157:libs/STM32F4xx_StdPeriph_Driver/src/stm32f4xx_fsmc.c ****   assert_param(IS_FSMC_EXTENDED_MODE(FSMC_NORSRAMInitStruct->FSMC_ExtendedMode));
 158:libs/STM32F4xx_StdPeriph_Driver/src/stm32f4xx_fsmc.c ****   assert_param(IS_FSMC_WRITE_BURST(FSMC_NORSRAMInitStruct->FSMC_WriteBurst));  
 159:libs/STM32F4xx_StdPeriph_Driver/src/stm32f4xx_fsmc.c ****   assert_param(IS_FSMC_ADDRESS_SETUP_TIME(FSMC_NORSRAMInitStruct->FSMC_ReadWriteTimingStruct->FSMC_
 160:libs/STM32F4xx_StdPeriph_Driver/src/stm32f4xx_fsmc.c ****   assert_param(IS_FSMC_ADDRESS_HOLD_TIME(FSMC_NORSRAMInitStruct->FSMC_ReadWriteTimingStruct->FSMC_A
 161:libs/STM32F4xx_StdPeriph_Driver/src/stm32f4xx_fsmc.c ****   assert_param(IS_FSMC_DATASETUP_TIME(FSMC_NORSRAMInitStruct->FSMC_ReadWriteTimingStruct->FSMC_Data
 162:libs/STM32F4xx_StdPeriph_Driver/src/stm32f4xx_fsmc.c ****   assert_param(IS_FSMC_TURNAROUND_TIME(FSMC_NORSRAMInitStruct->FSMC_ReadWriteTimingStruct->FSMC_Bus
 163:libs/STM32F4xx_StdPeriph_Driver/src/stm32f4xx_fsmc.c ****   assert_param(IS_FSMC_CLK_DIV(FSMC_NORSRAMInitStruct->FSMC_ReadWriteTimingStruct->FSMC_CLKDivision
 164:libs/STM32F4xx_StdPeriph_Driver/src/stm32f4xx_fsmc.c ****   assert_param(IS_FSMC_DATA_LATENCY(FSMC_NORSRAMInitStruct->FSMC_ReadWriteTimingStruct->FSMC_DataLa
 165:libs/STM32F4xx_StdPeriph_Driver/src/stm32f4xx_fsmc.c ****   assert_param(IS_FSMC_ACCESS_MODE(FSMC_NORSRAMInitStruct->FSMC_ReadWriteTimingStruct->FSMC_AccessM
 166:libs/STM32F4xx_StdPeriph_Driver/src/stm32f4xx_fsmc.c ****   
 167:libs/STM32F4xx_StdPeriph_Driver/src/stm32f4xx_fsmc.c ****   /* Bank1 NOR/SRAM control register configuration */ 
 168:libs/STM32F4xx_StdPeriph_Driver/src/stm32f4xx_fsmc.c ****   FSMC_Bank1->BTCR[FSMC_NORSRAMInitStruct->FSMC_Bank] = 
  80              		.loc 1 168 0
  81 0002 0368     		ldr	r3, [r0]
 169:libs/STM32F4xx_StdPeriph_Driver/src/stm32f4xx_fsmc.c ****             (uint32_t)FSMC_NORSRAMInitStruct->FSMC_DataAddressMux |
  82              		.loc 1 169 0
  83 0004 4168     		ldr	r1, [r0, #4]
 170:libs/STM32F4xx_StdPeriph_Driver/src/stm32f4xx_fsmc.c ****             FSMC_NORSRAMInitStruct->FSMC_MemoryType |
  84              		.loc 1 170 0
  85 0006 8268     		ldr	r2, [r0, #8]
 169:libs/STM32F4xx_StdPeriph_Driver/src/stm32f4xx_fsmc.c ****             (uint32_t)FSMC_NORSRAMInitStruct->FSMC_DataAddressMux |
  86              		.loc 1 169 0
  87 0008 1143     		orrs	r1, r1, r2
 171:libs/STM32F4xx_StdPeriph_Driver/src/stm32f4xx_fsmc.c ****             FSMC_NORSRAMInitStruct->FSMC_MemoryDataWidth |
  88              		.loc 1 171 0
  89 000a C268     		ldr	r2, [r0, #12]
 170:libs/STM32F4xx_StdPeriph_Driver/src/stm32f4xx_fsmc.c ****             FSMC_NORSRAMInitStruct->FSMC_MemoryType |
  90              		.loc 1 170 0
  91 000c 1143     		orrs	r1, r1, r2
 172:libs/STM32F4xx_StdPeriph_Driver/src/stm32f4xx_fsmc.c ****             FSMC_NORSRAMInitStruct->FSMC_BurstAccessMode |
  92              		.loc 1 172 0
  93 000e 0269     		ldr	r2, [r0, #16]
 171:libs/STM32F4xx_StdPeriph_Driver/src/stm32f4xx_fsmc.c ****             FSMC_NORSRAMInitStruct->FSMC_MemoryDataWidth |
  94              		.loc 1 171 0
  95 0010 1143     		orrs	r1, r1, r2
 173:libs/STM32F4xx_StdPeriph_Driver/src/stm32f4xx_fsmc.c ****             FSMC_NORSRAMInitStruct->FSMC_AsynchronousWait |
  96              		.loc 1 173 0
  97 0012 4269     		ldr	r2, [r0, #20]
 172:libs/STM32F4xx_StdPeriph_Driver/src/stm32f4xx_fsmc.c ****             FSMC_NORSRAMInitStruct->FSMC_BurstAccessMode |
  98              		.loc 1 172 0
  99 0014 1143     		orrs	r1, r1, r2
 174:libs/STM32F4xx_StdPeriph_Driver/src/stm32f4xx_fsmc.c ****             FSMC_NORSRAMInitStruct->FSMC_WaitSignalPolarity |
 100              		.loc 1 174 0
 101 0016 8269     		ldr	r2, [r0, #24]
 173:libs/STM32F4xx_StdPeriph_Driver/src/stm32f4xx_fsmc.c ****             FSMC_NORSRAMInitStruct->FSMC_AsynchronousWait |
 102              		.loc 1 173 0
 103 0018 1143     		orrs	r1, r1, r2
 175:libs/STM32F4xx_StdPeriph_Driver/src/stm32f4xx_fsmc.c ****             FSMC_NORSRAMInitStruct->FSMC_WrapMode |
 104              		.loc 1 175 0
 105 001a C269     		ldr	r2, [r0, #28]
 174:libs/STM32F4xx_StdPeriph_Driver/src/stm32f4xx_fsmc.c ****             FSMC_NORSRAMInitStruct->FSMC_WaitSignalPolarity |
 106              		.loc 1 174 0
 107 001c 1143     		orrs	r1, r1, r2
 176:libs/STM32F4xx_StdPeriph_Driver/src/stm32f4xx_fsmc.c ****             FSMC_NORSRAMInitStruct->FSMC_WaitSignalActive |
 108              		.loc 1 176 0
 109 001e 026A     		ldr	r2, [r0, #32]
 175:libs/STM32F4xx_StdPeriph_Driver/src/stm32f4xx_fsmc.c ****             FSMC_NORSRAMInitStruct->FSMC_WrapMode |
 110              		.loc 1 175 0
 111 0020 1143     		orrs	r1, r1, r2
 177:libs/STM32F4xx_StdPeriph_Driver/src/stm32f4xx_fsmc.c ****             FSMC_NORSRAMInitStruct->FSMC_WriteOperation |
 112              		.loc 1 177 0
 113 0022 426A     		ldr	r2, [r0, #36]
 176:libs/STM32F4xx_StdPeriph_Driver/src/stm32f4xx_fsmc.c ****             FSMC_NORSRAMInitStruct->FSMC_WaitSignalActive |
 114              		.loc 1 176 0
 115 0024 1143     		orrs	r1, r1, r2
 178:libs/STM32F4xx_StdPeriph_Driver/src/stm32f4xx_fsmc.c ****             FSMC_NORSRAMInitStruct->FSMC_WaitSignal |
 116              		.loc 1 178 0
 117 0026 826A     		ldr	r2, [r0, #40]
 177:libs/STM32F4xx_StdPeriph_Driver/src/stm32f4xx_fsmc.c ****             FSMC_NORSRAMInitStruct->FSMC_WriteOperation |
 118              		.loc 1 177 0
 119 0028 1143     		orrs	r1, r1, r2
 179:libs/STM32F4xx_StdPeriph_Driver/src/stm32f4xx_fsmc.c ****             FSMC_NORSRAMInitStruct->FSMC_ExtendedMode |
 120              		.loc 1 179 0
 121 002a C26A     		ldr	r2, [r0, #44]
 178:libs/STM32F4xx_StdPeriph_Driver/src/stm32f4xx_fsmc.c ****             FSMC_NORSRAMInitStruct->FSMC_WaitSignal |
 122              		.loc 1 178 0
 123 002c 1143     		orrs	r1, r1, r2
 180:libs/STM32F4xx_StdPeriph_Driver/src/stm32f4xx_fsmc.c ****             FSMC_NORSRAMInitStruct->FSMC_WriteBurst;
 124              		.loc 1 180 0
 125 002e 026B     		ldr	r2, [r0, #48]
 179:libs/STM32F4xx_StdPeriph_Driver/src/stm32f4xx_fsmc.c ****             FSMC_NORSRAMInitStruct->FSMC_ExtendedMode |
 126              		.loc 1 179 0
 127 0030 0A43     		orrs	r2, r2, r1
 168:libs/STM32F4xx_StdPeriph_Driver/src/stm32f4xx_fsmc.c ****             (uint32_t)FSMC_NORSRAMInitStruct->FSMC_DataAddressMux |
 128              		.loc 1 168 0
 129 0032 4FF02041 		mov	r1, #-1610612736
 130 0036 41F82320 		str	r2, [r1, r3, lsl #2]
 181:libs/STM32F4xx_StdPeriph_Driver/src/stm32f4xx_fsmc.c ****   if(FSMC_NORSRAMInitStruct->FSMC_MemoryType == FSMC_MemoryType_NOR)
 131              		.loc 1 181 0
 132 003a 8368     		ldr	r3, [r0, #8]
 133 003c 082B     		cmp	r3, #8
 182:libs/STM32F4xx_StdPeriph_Driver/src/stm32f4xx_fsmc.c ****   {
 183:libs/STM32F4xx_StdPeriph_Driver/src/stm32f4xx_fsmc.c ****     FSMC_Bank1->BTCR[FSMC_NORSRAMInitStruct->FSMC_Bank] |= (uint32_t)BCR_FACCEN_SET;
 134              		.loc 1 183 0
 135 003e 01BF     		itttt	eq
 136 0040 0268     		ldreq	r2, [r0]
 137 0042 0B46     		moveq	r3, r1
 138 0044 53F82210 		ldreq	r1, [r3, r2, lsl #2]
 139 0048 41F04001 		orreq	r1, r1, #64
 140 004c 08BF     		it	eq
 141 004e 43F82210 		streq	r1, [r3, r2, lsl #2]
 184:libs/STM32F4xx_StdPeriph_Driver/src/stm32f4xx_fsmc.c ****   }
 185:libs/STM32F4xx_StdPeriph_Driver/src/stm32f4xx_fsmc.c ****   /* Bank1 NOR/SRAM timing register configuration */
 186:libs/STM32F4xx_StdPeriph_Driver/src/stm32f4xx_fsmc.c ****   FSMC_Bank1->BTCR[FSMC_NORSRAMInitStruct->FSMC_Bank+1] = 
 142              		.loc 1 186 0
 143 0052 0368     		ldr	r3, [r0]
 144 0054 5C1C     		adds	r4, r3, #1
 187:libs/STM32F4xx_StdPeriph_Driver/src/stm32f4xx_fsmc.c ****             (uint32_t)FSMC_NORSRAMInitStruct->FSMC_ReadWriteTimingStruct->FSMC_AddressSetupTime |
 145              		.loc 1 187 0
 146 0056 436B     		ldr	r3, [r0, #52]
 147 0058 1A68     		ldr	r2, [r3]
 188:libs/STM32F4xx_StdPeriph_Driver/src/stm32f4xx_fsmc.c ****             (FSMC_NORSRAMInitStruct->FSMC_ReadWriteTimingStruct->FSMC_AddressHoldTime << 4) |
 148              		.loc 1 188 0
 149 005a 5968     		ldr	r1, [r3, #4]
 187:libs/STM32F4xx_StdPeriph_Driver/src/stm32f4xx_fsmc.c ****             (uint32_t)FSMC_NORSRAMInitStruct->FSMC_ReadWriteTimingStruct->FSMC_AddressSetupTime |
 150              		.loc 1 187 0
 151 005c 42EA0111 		orr	r1, r2, r1, lsl #4
 189:libs/STM32F4xx_StdPeriph_Driver/src/stm32f4xx_fsmc.c ****             (FSMC_NORSRAMInitStruct->FSMC_ReadWriteTimingStruct->FSMC_DataSetupTime << 8) |
 152              		.loc 1 189 0
 153 0060 9A68     		ldr	r2, [r3, #8]
 188:libs/STM32F4xx_StdPeriph_Driver/src/stm32f4xx_fsmc.c ****             (FSMC_NORSRAMInitStruct->FSMC_ReadWriteTimingStruct->FSMC_AddressHoldTime << 4) |
 154              		.loc 1 188 0
 155 0062 41EA0221 		orr	r1, r1, r2, lsl #8
 190:libs/STM32F4xx_StdPeriph_Driver/src/stm32f4xx_fsmc.c ****             (FSMC_NORSRAMInitStruct->FSMC_ReadWriteTimingStruct->FSMC_BusTurnAroundDuration << 16) 
 156              		.loc 1 190 0
 157 0066 DA68     		ldr	r2, [r3, #12]
 189:libs/STM32F4xx_StdPeriph_Driver/src/stm32f4xx_fsmc.c ****             (FSMC_NORSRAMInitStruct->FSMC_ReadWriteTimingStruct->FSMC_DataSetupTime << 8) |
 158              		.loc 1 189 0
 159 0068 41EA0241 		orr	r1, r1, r2, lsl #16
 191:libs/STM32F4xx_StdPeriph_Driver/src/stm32f4xx_fsmc.c ****             (FSMC_NORSRAMInitStruct->FSMC_ReadWriteTimingStruct->FSMC_CLKDivision << 20) |
 160              		.loc 1 191 0
 161 006c 1A69     		ldr	r2, [r3, #16]
 190:libs/STM32F4xx_StdPeriph_Driver/src/stm32f4xx_fsmc.c ****             (FSMC_NORSRAMInitStruct->FSMC_ReadWriteTimingStruct->FSMC_BusTurnAroundDuration << 16) 
 162              		.loc 1 190 0
 163 006e 41EA0251 		orr	r1, r1, r2, lsl #20
 192:libs/STM32F4xx_StdPeriph_Driver/src/stm32f4xx_fsmc.c ****             (FSMC_NORSRAMInitStruct->FSMC_ReadWriteTimingStruct->FSMC_DataLatency << 24) |
 164              		.loc 1 192 0
 165 0072 5A69     		ldr	r2, [r3, #20]
 191:libs/STM32F4xx_StdPeriph_Driver/src/stm32f4xx_fsmc.c ****             (FSMC_NORSRAMInitStruct->FSMC_ReadWriteTimingStruct->FSMC_CLKDivision << 20) |
 166              		.loc 1 191 0
 167 0074 41EA0262 		orr	r2, r1, r2, lsl #24
 193:libs/STM32F4xx_StdPeriph_Driver/src/stm32f4xx_fsmc.c ****              FSMC_NORSRAMInitStruct->FSMC_ReadWriteTimingStruct->FSMC_AccessMode;
 168              		.loc 1 193 0
 169 0078 9B69     		ldr	r3, [r3, #24]
 192:libs/STM32F4xx_StdPeriph_Driver/src/stm32f4xx_fsmc.c ****             (FSMC_NORSRAMInitStruct->FSMC_ReadWriteTimingStruct->FSMC_DataLatency << 24) |
 170              		.loc 1 192 0
 171 007a 1A43     		orrs	r2, r2, r3
 186:libs/STM32F4xx_StdPeriph_Driver/src/stm32f4xx_fsmc.c ****             (uint32_t)FSMC_NORSRAMInitStruct->FSMC_ReadWriteTimingStruct->FSMC_AddressSetupTime |
 172              		.loc 1 186 0
 173 007c 4FF02041 		mov	r1, #-1610612736
 174 0080 41F82420 		str	r2, [r1, r4, lsl #2]
 194:libs/STM32F4xx_StdPeriph_Driver/src/stm32f4xx_fsmc.c ****             
 195:libs/STM32F4xx_StdPeriph_Driver/src/stm32f4xx_fsmc.c ****     
 196:libs/STM32F4xx_StdPeriph_Driver/src/stm32f4xx_fsmc.c ****   /* Bank1 NOR/SRAM timing register for write configuration, if extended mode is used */
 197:libs/STM32F4xx_StdPeriph_Driver/src/stm32f4xx_fsmc.c ****   if(FSMC_NORSRAMInitStruct->FSMC_ExtendedMode == FSMC_ExtendedMode_Enable)
 175              		.loc 1 197 0
 176 0084 C36A     		ldr	r3, [r0, #44]
 177 0086 B3F5804F 		cmp	r3, #16384
 178 008a 17D1     		bne	.L6
 198:libs/STM32F4xx_StdPeriph_Driver/src/stm32f4xx_fsmc.c ****   {
 199:libs/STM32F4xx_StdPeriph_Driver/src/stm32f4xx_fsmc.c ****     assert_param(IS_FSMC_ADDRESS_SETUP_TIME(FSMC_NORSRAMInitStruct->FSMC_WriteTimingStruct->FSMC_Ad
 200:libs/STM32F4xx_StdPeriph_Driver/src/stm32f4xx_fsmc.c ****     assert_param(IS_FSMC_ADDRESS_HOLD_TIME(FSMC_NORSRAMInitStruct->FSMC_WriteTimingStruct->FSMC_Add
 201:libs/STM32F4xx_StdPeriph_Driver/src/stm32f4xx_fsmc.c ****     assert_param(IS_FSMC_DATASETUP_TIME(FSMC_NORSRAMInitStruct->FSMC_WriteTimingStruct->FSMC_DataSe
 202:libs/STM32F4xx_StdPeriph_Driver/src/stm32f4xx_fsmc.c ****     assert_param(IS_FSMC_CLK_DIV(FSMC_NORSRAMInitStruct->FSMC_WriteTimingStruct->FSMC_CLKDivision))
 203:libs/STM32F4xx_StdPeriph_Driver/src/stm32f4xx_fsmc.c ****     assert_param(IS_FSMC_DATA_LATENCY(FSMC_NORSRAMInitStruct->FSMC_WriteTimingStruct->FSMC_DataLate
 204:libs/STM32F4xx_StdPeriph_Driver/src/stm32f4xx_fsmc.c ****     assert_param(IS_FSMC_ACCESS_MODE(FSMC_NORSRAMInitStruct->FSMC_WriteTimingStruct->FSMC_AccessMod
 205:libs/STM32F4xx_StdPeriph_Driver/src/stm32f4xx_fsmc.c ****     FSMC_Bank1E->BWTR[FSMC_NORSRAMInitStruct->FSMC_Bank] = 
 179              		.loc 1 205 0
 180 008c 0468     		ldr	r4, [r0]
 206:libs/STM32F4xx_StdPeriph_Driver/src/stm32f4xx_fsmc.c ****               (uint32_t)FSMC_NORSRAMInitStruct->FSMC_WriteTimingStruct->FSMC_AddressSetupTime |
 181              		.loc 1 206 0
 182 008e 836B     		ldr	r3, [r0, #56]
 183 0090 1A68     		ldr	r2, [r3]
 207:libs/STM32F4xx_StdPeriph_Driver/src/stm32f4xx_fsmc.c ****               (FSMC_NORSRAMInitStruct->FSMC_WriteTimingStruct->FSMC_AddressHoldTime << 4 )|
 184              		.loc 1 207 0
 185 0092 5968     		ldr	r1, [r3, #4]
 206:libs/STM32F4xx_StdPeriph_Driver/src/stm32f4xx_fsmc.c ****               (uint32_t)FSMC_NORSRAMInitStruct->FSMC_WriteTimingStruct->FSMC_AddressSetupTime |
 186              		.loc 1 206 0
 187 0094 42EA0111 		orr	r1, r2, r1, lsl #4
 208:libs/STM32F4xx_StdPeriph_Driver/src/stm32f4xx_fsmc.c ****               (FSMC_NORSRAMInitStruct->FSMC_WriteTimingStruct->FSMC_DataSetupTime << 8) |
 188              		.loc 1 208 0
 189 0098 9A68     		ldr	r2, [r3, #8]
 207:libs/STM32F4xx_StdPeriph_Driver/src/stm32f4xx_fsmc.c ****               (FSMC_NORSRAMInitStruct->FSMC_WriteTimingStruct->FSMC_AddressHoldTime << 4 )|
 190              		.loc 1 207 0
 191 009a 41EA0221 		orr	r1, r1, r2, lsl #8
 209:libs/STM32F4xx_StdPeriph_Driver/src/stm32f4xx_fsmc.c ****               (FSMC_NORSRAMInitStruct->FSMC_WriteTimingStruct->FSMC_CLKDivision << 20) |
 192              		.loc 1 209 0
 193 009e 1A69     		ldr	r2, [r3, #16]
 208:libs/STM32F4xx_StdPeriph_Driver/src/stm32f4xx_fsmc.c ****               (FSMC_NORSRAMInitStruct->FSMC_WriteTimingStruct->FSMC_DataSetupTime << 8) |
 194              		.loc 1 208 0
 195 00a0 41EA0251 		orr	r1, r1, r2, lsl #20
 210:libs/STM32F4xx_StdPeriph_Driver/src/stm32f4xx_fsmc.c ****               (FSMC_NORSRAMInitStruct->FSMC_WriteTimingStruct->FSMC_DataLatency << 24) |
 196              		.loc 1 210 0
 197 00a4 5A69     		ldr	r2, [r3, #20]
 209:libs/STM32F4xx_StdPeriph_Driver/src/stm32f4xx_fsmc.c ****               (FSMC_NORSRAMInitStruct->FSMC_WriteTimingStruct->FSMC_CLKDivision << 20) |
 198              		.loc 1 209 0
 199 00a6 41EA0262 		orr	r2, r1, r2, lsl #24
 211:libs/STM32F4xx_StdPeriph_Driver/src/stm32f4xx_fsmc.c ****                FSMC_NORSRAMInitStruct->FSMC_WriteTimingStruct->FSMC_AccessMode;
 200              		.loc 1 211 0
 201 00aa 9B69     		ldr	r3, [r3, #24]
 210:libs/STM32F4xx_StdPeriph_Driver/src/stm32f4xx_fsmc.c ****               (FSMC_NORSRAMInitStruct->FSMC_WriteTimingStruct->FSMC_DataLatency << 24) |
 202              		.loc 1 210 0
 203 00ac 1A43     		orrs	r2, r2, r3
 205:libs/STM32F4xx_StdPeriph_Driver/src/stm32f4xx_fsmc.c ****               (uint32_t)FSMC_NORSRAMInitStruct->FSMC_WriteTimingStruct->FSMC_AddressSetupTime |
 204              		.loc 1 205 0
 205 00ae 4FF48273 		mov	r3, #260
 206 00b2 CAF20003 		movt	r3, 40960
 207 00b6 43F82420 		str	r2, [r3, r4, lsl #2]
 208 00ba 08E0     		b	.L4
 209              	.L6:
 212:libs/STM32F4xx_StdPeriph_Driver/src/stm32f4xx_fsmc.c ****   }
 213:libs/STM32F4xx_StdPeriph_Driver/src/stm32f4xx_fsmc.c ****   else
 214:libs/STM32F4xx_StdPeriph_Driver/src/stm32f4xx_fsmc.c ****   {
 215:libs/STM32F4xx_StdPeriph_Driver/src/stm32f4xx_fsmc.c ****     FSMC_Bank1E->BWTR[FSMC_NORSRAMInitStruct->FSMC_Bank] = 0x0FFFFFFF;
 210              		.loc 1 215 0
 211 00bc 0268     		ldr	r2, [r0]
 212 00be 4FF48273 		mov	r3, #260
 213 00c2 CAF20003 		movt	r3, 40960
 214 00c6 6FF07041 		mvn	r1, #-268435456
 215 00ca 43F82210 		str	r1, [r3, r2, lsl #2]
 216              	.L4:
 216:libs/STM32F4xx_StdPeriph_Driver/src/stm32f4xx_fsmc.c ****   }
 217:libs/STM32F4xx_StdPeriph_Driver/src/stm32f4xx_fsmc.c **** }
 217              		.loc 1 217 0
 218 00ce 5DF8044B 		ldr	r4, [sp], #4
 219 00d2 7047     		bx	lr
 220              		.cfi_endproc
 221              	.LFE111:
 223              		.section	.text.FSMC_NORSRAMStructInit,"ax",%progbits
 224              		.align	2
 225              		.global	FSMC_NORSRAMStructInit
 226              		.thumb
 227              		.thumb_func
 229              	FSMC_NORSRAMStructInit:
 230              	.LFB112:
 218:libs/STM32F4xx_StdPeriph_Driver/src/stm32f4xx_fsmc.c **** 
 219:libs/STM32F4xx_StdPeriph_Driver/src/stm32f4xx_fsmc.c **** /**
 220:libs/STM32F4xx_StdPeriph_Driver/src/stm32f4xx_fsmc.c ****   * @brief  Fills each FSMC_NORSRAMInitStruct member with its default value.
 221:libs/STM32F4xx_StdPeriph_Driver/src/stm32f4xx_fsmc.c ****   * @param  FSMC_NORSRAMInitStruct: pointer to a FSMC_NORSRAMInitTypeDef structure 
 222:libs/STM32F4xx_StdPeriph_Driver/src/stm32f4xx_fsmc.c ****   *         which will be initialized.
 223:libs/STM32F4xx_StdPeriph_Driver/src/stm32f4xx_fsmc.c ****   * @retval None
 224:libs/STM32F4xx_StdPeriph_Driver/src/stm32f4xx_fsmc.c ****   */
 225:libs/STM32F4xx_StdPeriph_Driver/src/stm32f4xx_fsmc.c **** void FSMC_NORSRAMStructInit(FSMC_NORSRAMInitTypeDef* FSMC_NORSRAMInitStruct)
 226:libs/STM32F4xx_StdPeriph_Driver/src/stm32f4xx_fsmc.c **** {  
 231              		.loc 1 226 0
 232              		.cfi_startproc
 233              		@ args = 0, pretend = 0, frame = 0
 234              		@ frame_needed = 0, uses_anonymous_args = 0
 235              		@ link register save eliminated.
 236              	.LVL3:
 237 0000 10B4     		push	{r4}
 238              	.LCFI1:
 239              		.cfi_def_cfa_offset 4
 240              		.cfi_offset 4, -4
 227:libs/STM32F4xx_StdPeriph_Driver/src/stm32f4xx_fsmc.c ****   /* Reset NOR/SRAM Init structure parameters values */
 228:libs/STM32F4xx_StdPeriph_Driver/src/stm32f4xx_fsmc.c ****   FSMC_NORSRAMInitStruct->FSMC_Bank = FSMC_Bank1_NORSRAM1;
 241              		.loc 1 228 0
 242 0002 0023     		movs	r3, #0
 243 0004 0360     		str	r3, [r0]
 229:libs/STM32F4xx_StdPeriph_Driver/src/stm32f4xx_fsmc.c ****   FSMC_NORSRAMInitStruct->FSMC_DataAddressMux = FSMC_DataAddressMux_Enable;
 244              		.loc 1 229 0
 245 0006 0222     		movs	r2, #2
 246 0008 4260     		str	r2, [r0, #4]
 230:libs/STM32F4xx_StdPeriph_Driver/src/stm32f4xx_fsmc.c ****   FSMC_NORSRAMInitStruct->FSMC_MemoryType = FSMC_MemoryType_SRAM;
 247              		.loc 1 230 0
 248 000a 8360     		str	r3, [r0, #8]
 231:libs/STM32F4xx_StdPeriph_Driver/src/stm32f4xx_fsmc.c ****   FSMC_NORSRAMInitStruct->FSMC_MemoryDataWidth = FSMC_MemoryDataWidth_8b;
 249              		.loc 1 231 0
 250 000c C360     		str	r3, [r0, #12]
 232:libs/STM32F4xx_StdPeriph_Driver/src/stm32f4xx_fsmc.c ****   FSMC_NORSRAMInitStruct->FSMC_BurstAccessMode = FSMC_BurstAccessMode_Disable;
 251              		.loc 1 232 0
 252 000e 0361     		str	r3, [r0, #16]
 233:libs/STM32F4xx_StdPeriph_Driver/src/stm32f4xx_fsmc.c ****   FSMC_NORSRAMInitStruct->FSMC_AsynchronousWait = FSMC_AsynchronousWait_Disable;
 253              		.loc 1 233 0
 254 0010 4361     		str	r3, [r0, #20]
 234:libs/STM32F4xx_StdPeriph_Driver/src/stm32f4xx_fsmc.c ****   FSMC_NORSRAMInitStruct->FSMC_WaitSignalPolarity = FSMC_WaitSignalPolarity_Low;
 255              		.loc 1 234 0
 256 0012 8361     		str	r3, [r0, #24]
 235:libs/STM32F4xx_StdPeriph_Driver/src/stm32f4xx_fsmc.c ****   FSMC_NORSRAMInitStruct->FSMC_WrapMode = FSMC_WrapMode_Disable;
 257              		.loc 1 235 0
 258 0014 C361     		str	r3, [r0, #28]
 236:libs/STM32F4xx_StdPeriph_Driver/src/stm32f4xx_fsmc.c ****   FSMC_NORSRAMInitStruct->FSMC_WaitSignalActive = FSMC_WaitSignalActive_BeforeWaitState;
 259              		.loc 1 236 0
 260 0016 0362     		str	r3, [r0, #32]
 237:libs/STM32F4xx_StdPeriph_Driver/src/stm32f4xx_fsmc.c ****   FSMC_NORSRAMInitStruct->FSMC_WriteOperation = FSMC_WriteOperation_Enable;
 261              		.loc 1 237 0
 262 0018 4FF48052 		mov	r2, #4096
 263 001c 4262     		str	r2, [r0, #36]
 238:libs/STM32F4xx_StdPeriph_Driver/src/stm32f4xx_fsmc.c ****   FSMC_NORSRAMInitStruct->FSMC_WaitSignal = FSMC_WaitSignal_Enable;
 264              		.loc 1 238 0
 265 001e 4FF40052 		mov	r2, #8192
 266 0022 8262     		str	r2, [r0, #40]
 239:libs/STM32F4xx_StdPeriph_Driver/src/stm32f4xx_fsmc.c ****   FSMC_NORSRAMInitStruct->FSMC_ExtendedMode = FSMC_ExtendedMode_Disable;
 267              		.loc 1 239 0
 268 0024 C362     		str	r3, [r0, #44]
 240:libs/STM32F4xx_StdPeriph_Driver/src/stm32f4xx_fsmc.c ****   FSMC_NORSRAMInitStruct->FSMC_WriteBurst = FSMC_WriteBurst_Disable;
 269              		.loc 1 240 0
 270 0026 0363     		str	r3, [r0, #48]
 241:libs/STM32F4xx_StdPeriph_Driver/src/stm32f4xx_fsmc.c ****   FSMC_NORSRAMInitStruct->FSMC_ReadWriteTimingStruct->FSMC_AddressSetupTime = 0xF;
 271              		.loc 1 241 0
 272 0028 416B     		ldr	r1, [r0, #52]
 273 002a 0F22     		movs	r2, #15
 274 002c 0A60     		str	r2, [r1]
 242:libs/STM32F4xx_StdPeriph_Driver/src/stm32f4xx_fsmc.c ****   FSMC_NORSRAMInitStruct->FSMC_ReadWriteTimingStruct->FSMC_AddressHoldTime = 0xF;
 275              		.loc 1 242 0
 276 002e 416B     		ldr	r1, [r0, #52]
 277 0030 4A60     		str	r2, [r1, #4]
 243:libs/STM32F4xx_StdPeriph_Driver/src/stm32f4xx_fsmc.c ****   FSMC_NORSRAMInitStruct->FSMC_ReadWriteTimingStruct->FSMC_DataSetupTime = 0xFF;
 278              		.loc 1 243 0
 279 0032 446B     		ldr	r4, [r0, #52]
 280 0034 FF21     		movs	r1, #255
 281 0036 A160     		str	r1, [r4, #8]
 244:libs/STM32F4xx_StdPeriph_Driver/src/stm32f4xx_fsmc.c ****   FSMC_NORSRAMInitStruct->FSMC_ReadWriteTimingStruct->FSMC_BusTurnAroundDuration = 0xF;
 282              		.loc 1 244 0
 283 0038 446B     		ldr	r4, [r0, #52]
 284 003a E260     		str	r2, [r4, #12]
 245:libs/STM32F4xx_StdPeriph_Driver/src/stm32f4xx_fsmc.c ****   FSMC_NORSRAMInitStruct->FSMC_ReadWriteTimingStruct->FSMC_CLKDivision = 0xF;
 285              		.loc 1 245 0
 286 003c 446B     		ldr	r4, [r0, #52]
 287 003e 2261     		str	r2, [r4, #16]
 246:libs/STM32F4xx_StdPeriph_Driver/src/stm32f4xx_fsmc.c ****   FSMC_NORSRAMInitStruct->FSMC_ReadWriteTimingStruct->FSMC_DataLatency = 0xF;
 288              		.loc 1 246 0
 289 0040 446B     		ldr	r4, [r0, #52]
 290 0042 6261     		str	r2, [r4, #20]
 247:libs/STM32F4xx_StdPeriph_Driver/src/stm32f4xx_fsmc.c ****   FSMC_NORSRAMInitStruct->FSMC_ReadWriteTimingStruct->FSMC_AccessMode = FSMC_AccessMode_A; 
 291              		.loc 1 247 0
 292 0044 446B     		ldr	r4, [r0, #52]
 293 0046 A361     		str	r3, [r4, #24]
 248:libs/STM32F4xx_StdPeriph_Driver/src/stm32f4xx_fsmc.c ****   FSMC_NORSRAMInitStruct->FSMC_WriteTimingStruct->FSMC_AddressSetupTime = 0xF;
 294              		.loc 1 248 0
 295 0048 846B     		ldr	r4, [r0, #56]
 296 004a 2260     		str	r2, [r4]
 249:libs/STM32F4xx_StdPeriph_Driver/src/stm32f4xx_fsmc.c ****   FSMC_NORSRAMInitStruct->FSMC_WriteTimingStruct->FSMC_AddressHoldTime = 0xF;
 297              		.loc 1 249 0
 298 004c 846B     		ldr	r4, [r0, #56]
 299 004e 6260     		str	r2, [r4, #4]
 250:libs/STM32F4xx_StdPeriph_Driver/src/stm32f4xx_fsmc.c ****   FSMC_NORSRAMInitStruct->FSMC_WriteTimingStruct->FSMC_DataSetupTime = 0xFF;
 300              		.loc 1 250 0
 301 0050 846B     		ldr	r4, [r0, #56]
 302 0052 A160     		str	r1, [r4, #8]
 251:libs/STM32F4xx_StdPeriph_Driver/src/stm32f4xx_fsmc.c ****   FSMC_NORSRAMInitStruct->FSMC_WriteTimingStruct->FSMC_BusTurnAroundDuration = 0xF;
 303              		.loc 1 251 0
 304 0054 816B     		ldr	r1, [r0, #56]
 305 0056 CA60     		str	r2, [r1, #12]
 252:libs/STM32F4xx_StdPeriph_Driver/src/stm32f4xx_fsmc.c ****   FSMC_NORSRAMInitStruct->FSMC_WriteTimingStruct->FSMC_CLKDivision = 0xF;
 306              		.loc 1 252 0
 307 0058 816B     		ldr	r1, [r0, #56]
 308 005a 0A61     		str	r2, [r1, #16]
 253:libs/STM32F4xx_StdPeriph_Driver/src/stm32f4xx_fsmc.c ****   FSMC_NORSRAMInitStruct->FSMC_WriteTimingStruct->FSMC_DataLatency = 0xF;
 309              		.loc 1 253 0
 310 005c 816B     		ldr	r1, [r0, #56]
 311 005e 4A61     		str	r2, [r1, #20]
 254:libs/STM32F4xx_StdPeriph_Driver/src/stm32f4xx_fsmc.c ****   FSMC_NORSRAMInitStruct->FSMC_WriteTimingStruct->FSMC_AccessMode = FSMC_AccessMode_A;
 312              		.loc 1 254 0
 313 0060 826B     		ldr	r2, [r0, #56]
 314 0062 9361     		str	r3, [r2, #24]
 255:libs/STM32F4xx_StdPeriph_Driver/src/stm32f4xx_fsmc.c **** }
 315              		.loc 1 255 0
 316 0064 5DF8044B 		ldr	r4, [sp], #4
 317 0068 7047     		bx	lr
 318              		.cfi_endproc
 319              	.LFE112:
 321 006a 00BF     		.section	.text.FSMC_NORSRAMCmd,"ax",%progbits
 322              		.align	2
 323              		.global	FSMC_NORSRAMCmd
 324              		.thumb
 325              		.thumb_func
 327              	FSMC_NORSRAMCmd:
 328              	.LFB113:
 256:libs/STM32F4xx_StdPeriph_Driver/src/stm32f4xx_fsmc.c **** 
 257:libs/STM32F4xx_StdPeriph_Driver/src/stm32f4xx_fsmc.c **** /**
 258:libs/STM32F4xx_StdPeriph_Driver/src/stm32f4xx_fsmc.c ****   * @brief  Enables or disables the specified NOR/SRAM Memory Bank.
 259:libs/STM32F4xx_StdPeriph_Driver/src/stm32f4xx_fsmc.c ****   * @param  FSMC_Bank: specifies the FSMC Bank to be used
 260:libs/STM32F4xx_StdPeriph_Driver/src/stm32f4xx_fsmc.c ****   *          This parameter can be one of the following values:
 261:libs/STM32F4xx_StdPeriph_Driver/src/stm32f4xx_fsmc.c ****   *            @arg FSMC_Bank1_NORSRAM1: FSMC Bank1 NOR/SRAM1  
 262:libs/STM32F4xx_StdPeriph_Driver/src/stm32f4xx_fsmc.c ****   *            @arg FSMC_Bank1_NORSRAM2: FSMC Bank1 NOR/SRAM2 
 263:libs/STM32F4xx_StdPeriph_Driver/src/stm32f4xx_fsmc.c ****   *            @arg FSMC_Bank1_NORSRAM3: FSMC Bank1 NOR/SRAM3 
 264:libs/STM32F4xx_StdPeriph_Driver/src/stm32f4xx_fsmc.c ****   *            @arg FSMC_Bank1_NORSRAM4: FSMC Bank1 NOR/SRAM4 
 265:libs/STM32F4xx_StdPeriph_Driver/src/stm32f4xx_fsmc.c ****   * @param  NewState: new state of the FSMC_Bank. This parameter can be: ENABLE or DISABLE.
 266:libs/STM32F4xx_StdPeriph_Driver/src/stm32f4xx_fsmc.c ****   * @retval None
 267:libs/STM32F4xx_StdPeriph_Driver/src/stm32f4xx_fsmc.c ****   */
 268:libs/STM32F4xx_StdPeriph_Driver/src/stm32f4xx_fsmc.c **** void FSMC_NORSRAMCmd(uint32_t FSMC_Bank, FunctionalState NewState)
 269:libs/STM32F4xx_StdPeriph_Driver/src/stm32f4xx_fsmc.c **** {
 329              		.loc 1 269 0
 330              		.cfi_startproc
 331              		@ args = 0, pretend = 0, frame = 0
 332              		@ frame_needed = 0, uses_anonymous_args = 0
 333              		@ link register save eliminated.
 334              	.LVL4:
 270:libs/STM32F4xx_StdPeriph_Driver/src/stm32f4xx_fsmc.c ****   assert_param(IS_FSMC_NORSRAM_BANK(FSMC_Bank));
 271:libs/STM32F4xx_StdPeriph_Driver/src/stm32f4xx_fsmc.c ****   assert_param(IS_FUNCTIONAL_STATE(NewState));
 272:libs/STM32F4xx_StdPeriph_Driver/src/stm32f4xx_fsmc.c ****   
 273:libs/STM32F4xx_StdPeriph_Driver/src/stm32f4xx_fsmc.c ****   if (NewState != DISABLE)
 335              		.loc 1 273 0
 336 0000 41B1     		cbz	r1, .L10
 274:libs/STM32F4xx_StdPeriph_Driver/src/stm32f4xx_fsmc.c ****   {
 275:libs/STM32F4xx_StdPeriph_Driver/src/stm32f4xx_fsmc.c ****     /* Enable the selected NOR/SRAM Bank by setting the PBKEN bit in the BCRx register */
 276:libs/STM32F4xx_StdPeriph_Driver/src/stm32f4xx_fsmc.c ****     FSMC_Bank1->BTCR[FSMC_Bank] |= BCR_MBKEN_SET;
 337              		.loc 1 276 0
 338 0002 4FF02043 		mov	r3, #-1610612736
 339 0006 53F82020 		ldr	r2, [r3, r0, lsl #2]
 340 000a 42F00102 		orr	r2, r2, #1
 341 000e 43F82020 		str	r2, [r3, r0, lsl #2]
 342 0012 7047     		bx	lr
 343              	.L10:
 277:libs/STM32F4xx_StdPeriph_Driver/src/stm32f4xx_fsmc.c ****   }
 278:libs/STM32F4xx_StdPeriph_Driver/src/stm32f4xx_fsmc.c ****   else
 279:libs/STM32F4xx_StdPeriph_Driver/src/stm32f4xx_fsmc.c ****   {
 280:libs/STM32F4xx_StdPeriph_Driver/src/stm32f4xx_fsmc.c ****     /* Disable the selected NOR/SRAM Bank by clearing the PBKEN bit in the BCRx register */
 281:libs/STM32F4xx_StdPeriph_Driver/src/stm32f4xx_fsmc.c ****     FSMC_Bank1->BTCR[FSMC_Bank] &= BCR_MBKEN_RESET;
 344              		.loc 1 281 0
 345 0014 4FF02042 		mov	r2, #-1610612736
 346 0018 52F82010 		ldr	r1, [r2, r0, lsl #2]
 347              	.LVL5:
 348 001c 4FF6FE73 		movw	r3, #65534
 349 0020 C0F20F03 		movt	r3, 15
 350 0024 0B40     		ands	r3, r3, r1
 351 0026 42F82030 		str	r3, [r2, r0, lsl #2]
 352 002a 7047     		bx	lr
 353              		.cfi_endproc
 354              	.LFE113:
 356              		.section	.text.FSMC_NANDDeInit,"ax",%progbits
 357              		.align	2
 358              		.global	FSMC_NANDDeInit
 359              		.thumb
 360              		.thumb_func
 362              	FSMC_NANDDeInit:
 363              	.LFB114:
 282:libs/STM32F4xx_StdPeriph_Driver/src/stm32f4xx_fsmc.c ****   }
 283:libs/STM32F4xx_StdPeriph_Driver/src/stm32f4xx_fsmc.c **** }
 284:libs/STM32F4xx_StdPeriph_Driver/src/stm32f4xx_fsmc.c **** /**
 285:libs/STM32F4xx_StdPeriph_Driver/src/stm32f4xx_fsmc.c ****   * @}
 286:libs/STM32F4xx_StdPeriph_Driver/src/stm32f4xx_fsmc.c ****   */
 287:libs/STM32F4xx_StdPeriph_Driver/src/stm32f4xx_fsmc.c **** 
 288:libs/STM32F4xx_StdPeriph_Driver/src/stm32f4xx_fsmc.c **** /** @defgroup FSMC_Group2 NAND Controller functions
 289:libs/STM32F4xx_StdPeriph_Driver/src/stm32f4xx_fsmc.c ****  *  @brief   NAND Controller functions 
 290:libs/STM32F4xx_StdPeriph_Driver/src/stm32f4xx_fsmc.c ****  *
 291:libs/STM32F4xx_StdPeriph_Driver/src/stm32f4xx_fsmc.c **** @verbatim   
 292:libs/STM32F4xx_StdPeriph_Driver/src/stm32f4xx_fsmc.c ****  ===============================================================================
 293:libs/STM32F4xx_StdPeriph_Driver/src/stm32f4xx_fsmc.c ****                     NAND Controller functions
 294:libs/STM32F4xx_StdPeriph_Driver/src/stm32f4xx_fsmc.c ****  ===============================================================================  
 295:libs/STM32F4xx_StdPeriph_Driver/src/stm32f4xx_fsmc.c **** 
 296:libs/STM32F4xx_StdPeriph_Driver/src/stm32f4xx_fsmc.c ****  The following sequence should be followed to configure the FSMC to interface with
 297:libs/STM32F4xx_StdPeriph_Driver/src/stm32f4xx_fsmc.c ****  8-bit or 16-bit NAND memory connected to the NAND Bank:
 298:libs/STM32F4xx_StdPeriph_Driver/src/stm32f4xx_fsmc.c ****  
 299:libs/STM32F4xx_StdPeriph_Driver/src/stm32f4xx_fsmc.c ****    1. Enable the clock for the FSMC and associated GPIOs using the following functions:
 300:libs/STM32F4xx_StdPeriph_Driver/src/stm32f4xx_fsmc.c ****           RCC_AHB3PeriphClockCmd(RCC_AHB3Periph_FSMC, ENABLE);
 301:libs/STM32F4xx_StdPeriph_Driver/src/stm32f4xx_fsmc.c ****           RCC_AHB1PeriphClockCmd(RCC_AHB1Periph_GPIOx, ENABLE);
 302:libs/STM32F4xx_StdPeriph_Driver/src/stm32f4xx_fsmc.c **** 
 303:libs/STM32F4xx_StdPeriph_Driver/src/stm32f4xx_fsmc.c ****    2. FSMC pins configuration 
 304:libs/STM32F4xx_StdPeriph_Driver/src/stm32f4xx_fsmc.c ****        - Connect the involved FSMC pins to AF12 using the following function 
 305:libs/STM32F4xx_StdPeriph_Driver/src/stm32f4xx_fsmc.c ****           GPIO_PinAFConfig(GPIOx, GPIO_PinSourcex, GPIO_AF_FSMC); 
 306:libs/STM32F4xx_StdPeriph_Driver/src/stm32f4xx_fsmc.c ****        - Configure these FSMC pins in alternate function mode by calling the function
 307:libs/STM32F4xx_StdPeriph_Driver/src/stm32f4xx_fsmc.c ****           GPIO_Init();    
 308:libs/STM32F4xx_StdPeriph_Driver/src/stm32f4xx_fsmc.c ****        
 309:libs/STM32F4xx_StdPeriph_Driver/src/stm32f4xx_fsmc.c ****    3. Declare a FSMC_NANDInitTypeDef structure, for example:
 310:libs/STM32F4xx_StdPeriph_Driver/src/stm32f4xx_fsmc.c ****           FSMC_NANDInitTypeDef  FSMC_NANDInitStructure;
 311:libs/STM32F4xx_StdPeriph_Driver/src/stm32f4xx_fsmc.c ****       and fill the FSMC_NANDInitStructure variable with the allowed values of
 312:libs/STM32F4xx_StdPeriph_Driver/src/stm32f4xx_fsmc.c ****       the structure member.
 313:libs/STM32F4xx_StdPeriph_Driver/src/stm32f4xx_fsmc.c ****       
 314:libs/STM32F4xx_StdPeriph_Driver/src/stm32f4xx_fsmc.c ****    4. Initialize the NAND Controller by calling the function
 315:libs/STM32F4xx_StdPeriph_Driver/src/stm32f4xx_fsmc.c ****           FSMC_NANDInit(&FSMC_NANDInitStructure); 
 316:libs/STM32F4xx_StdPeriph_Driver/src/stm32f4xx_fsmc.c **** 
 317:libs/STM32F4xx_StdPeriph_Driver/src/stm32f4xx_fsmc.c ****    5. Then enable the NAND Bank, for example:
 318:libs/STM32F4xx_StdPeriph_Driver/src/stm32f4xx_fsmc.c ****           FSMC_NANDCmd(FSMC_Bank3_NAND, ENABLE);  
 319:libs/STM32F4xx_StdPeriph_Driver/src/stm32f4xx_fsmc.c **** 
 320:libs/STM32F4xx_StdPeriph_Driver/src/stm32f4xx_fsmc.c ****    6. At this stage you can read/write from/to the memory connected to the NAND Bank. 
 321:libs/STM32F4xx_StdPeriph_Driver/src/stm32f4xx_fsmc.c ****    
 322:libs/STM32F4xx_StdPeriph_Driver/src/stm32f4xx_fsmc.c **** @note To enable the Error Correction Code (ECC), you have to use the function
 323:libs/STM32F4xx_StdPeriph_Driver/src/stm32f4xx_fsmc.c ****           FSMC_NANDECCCmd(FSMC_Bank3_NAND, ENABLE);  
 324:libs/STM32F4xx_StdPeriph_Driver/src/stm32f4xx_fsmc.c ****       and to get the current ECC value you have to use the function
 325:libs/STM32F4xx_StdPeriph_Driver/src/stm32f4xx_fsmc.c ****           ECCval = FSMC_GetECC(FSMC_Bank3_NAND); 
 326:libs/STM32F4xx_StdPeriph_Driver/src/stm32f4xx_fsmc.c **** 
 327:libs/STM32F4xx_StdPeriph_Driver/src/stm32f4xx_fsmc.c **** @endverbatim
 328:libs/STM32F4xx_StdPeriph_Driver/src/stm32f4xx_fsmc.c ****   * @{
 329:libs/STM32F4xx_StdPeriph_Driver/src/stm32f4xx_fsmc.c ****   */
 330:libs/STM32F4xx_StdPeriph_Driver/src/stm32f4xx_fsmc.c ****   
 331:libs/STM32F4xx_StdPeriph_Driver/src/stm32f4xx_fsmc.c **** /**
 332:libs/STM32F4xx_StdPeriph_Driver/src/stm32f4xx_fsmc.c ****   * @brief  Deinitializes the FSMC NAND Banks registers to their default reset values.
 333:libs/STM32F4xx_StdPeriph_Driver/src/stm32f4xx_fsmc.c ****   * @param  FSMC_Bank: specifies the FSMC Bank to be used
 334:libs/STM32F4xx_StdPeriph_Driver/src/stm32f4xx_fsmc.c ****   *          This parameter can be one of the following values:
 335:libs/STM32F4xx_StdPeriph_Driver/src/stm32f4xx_fsmc.c ****   *            @arg FSMC_Bank2_NAND: FSMC Bank2 NAND 
 336:libs/STM32F4xx_StdPeriph_Driver/src/stm32f4xx_fsmc.c ****   *            @arg FSMC_Bank3_NAND: FSMC Bank3 NAND 
 337:libs/STM32F4xx_StdPeriph_Driver/src/stm32f4xx_fsmc.c ****   * @retval None
 338:libs/STM32F4xx_StdPeriph_Driver/src/stm32f4xx_fsmc.c ****   */
 339:libs/STM32F4xx_StdPeriph_Driver/src/stm32f4xx_fsmc.c **** void FSMC_NANDDeInit(uint32_t FSMC_Bank)
 340:libs/STM32F4xx_StdPeriph_Driver/src/stm32f4xx_fsmc.c **** {
 364              		.loc 1 340 0
 365              		.cfi_startproc
 366              		@ args = 0, pretend = 0, frame = 0
 367              		@ frame_needed = 0, uses_anonymous_args = 0
 368              		@ link register save eliminated.
 369              	.LVL6:
 341:libs/STM32F4xx_StdPeriph_Driver/src/stm32f4xx_fsmc.c ****   /* Check the parameter */
 342:libs/STM32F4xx_StdPeriph_Driver/src/stm32f4xx_fsmc.c ****   assert_param(IS_FSMC_NAND_BANK(FSMC_Bank));
 343:libs/STM32F4xx_StdPeriph_Driver/src/stm32f4xx_fsmc.c ****   
 344:libs/STM32F4xx_StdPeriph_Driver/src/stm32f4xx_fsmc.c ****   if(FSMC_Bank == FSMC_Bank2_NAND)
 370              		.loc 1 344 0
 371 0000 1028     		cmp	r0, #16
 345:libs/STM32F4xx_StdPeriph_Driver/src/stm32f4xx_fsmc.c ****   {
 346:libs/STM32F4xx_StdPeriph_Driver/src/stm32f4xx_fsmc.c ****     /* Set the FSMC_Bank2 registers to their reset values */
 347:libs/STM32F4xx_StdPeriph_Driver/src/stm32f4xx_fsmc.c ****     FSMC_Bank2->PCR2 = 0x00000018;
 372              		.loc 1 347 0
 373 0002 0CBF     		ite	eq
 374 0004 6023     		moveq	r3, #96
 348:libs/STM32F4xx_StdPeriph_Driver/src/stm32f4xx_fsmc.c ****     FSMC_Bank2->SR2 = 0x00000040;
 349:libs/STM32F4xx_StdPeriph_Driver/src/stm32f4xx_fsmc.c ****     FSMC_Bank2->PMEM2 = 0xFCFCFCFC;
 350:libs/STM32F4xx_StdPeriph_Driver/src/stm32f4xx_fsmc.c ****     FSMC_Bank2->PATT2 = 0xFCFCFCFC;  
 351:libs/STM32F4xx_StdPeriph_Driver/src/stm32f4xx_fsmc.c ****   }
 352:libs/STM32F4xx_StdPeriph_Driver/src/stm32f4xx_fsmc.c ****   /* FSMC_Bank3_NAND */  
 353:libs/STM32F4xx_StdPeriph_Driver/src/stm32f4xx_fsmc.c ****   else
 354:libs/STM32F4xx_StdPeriph_Driver/src/stm32f4xx_fsmc.c ****   {
 355:libs/STM32F4xx_StdPeriph_Driver/src/stm32f4xx_fsmc.c ****     /* Set the FSMC_Bank3 registers to their reset values */
 356:libs/STM32F4xx_StdPeriph_Driver/src/stm32f4xx_fsmc.c ****     FSMC_Bank3->PCR3 = 0x00000018;
 375              		.loc 1 356 0
 376 0006 8023     		movne	r3, #128
 377 0008 CAF20003 		movt	r3, 40960
 378 000c 1822     		movs	r2, #24
 379 000e 1A60     		str	r2, [r3]
 357:libs/STM32F4xx_StdPeriph_Driver/src/stm32f4xx_fsmc.c ****     FSMC_Bank3->SR3 = 0x00000040;
 380              		.loc 1 357 0
 381 0010 4022     		movs	r2, #64
 382 0012 5A60     		str	r2, [r3, #4]
 358:libs/STM32F4xx_StdPeriph_Driver/src/stm32f4xx_fsmc.c ****     FSMC_Bank3->PMEM3 = 0xFCFCFCFC;
 383              		.loc 1 358 0
 384 0014 4FF0FC32 		mov	r2, #-50529028
 385 0018 9A60     		str	r2, [r3, #8]
 359:libs/STM32F4xx_StdPeriph_Driver/src/stm32f4xx_fsmc.c ****     FSMC_Bank3->PATT3 = 0xFCFCFCFC; 
 386              		.loc 1 359 0
 387 001a DA60     		str	r2, [r3, #12]
 388 001c 7047     		bx	lr
 389              		.cfi_endproc
 390              	.LFE114:
 392 001e 00BF     		.section	.text.FSMC_NANDInit,"ax",%progbits
 393              		.align	2
 394              		.global	FSMC_NANDInit
 395              		.thumb
 396              		.thumb_func
 398              	FSMC_NANDInit:
 399              	.LFB115:
 360:libs/STM32F4xx_StdPeriph_Driver/src/stm32f4xx_fsmc.c ****   }  
 361:libs/STM32F4xx_StdPeriph_Driver/src/stm32f4xx_fsmc.c **** }
 362:libs/STM32F4xx_StdPeriph_Driver/src/stm32f4xx_fsmc.c **** 
 363:libs/STM32F4xx_StdPeriph_Driver/src/stm32f4xx_fsmc.c **** /**
 364:libs/STM32F4xx_StdPeriph_Driver/src/stm32f4xx_fsmc.c ****   * @brief  Initializes the FSMC NAND Banks according to the specified parameters
 365:libs/STM32F4xx_StdPeriph_Driver/src/stm32f4xx_fsmc.c ****   *         in the FSMC_NANDInitStruct.
 366:libs/STM32F4xx_StdPeriph_Driver/src/stm32f4xx_fsmc.c ****   * @param  FSMC_NANDInitStruct : pointer to a FSMC_NANDInitTypeDef structure that
 367:libs/STM32F4xx_StdPeriph_Driver/src/stm32f4xx_fsmc.c ****   *         contains the configuration information for the FSMC NAND specified Banks.              
 368:libs/STM32F4xx_StdPeriph_Driver/src/stm32f4xx_fsmc.c ****   * @retval None
 369:libs/STM32F4xx_StdPeriph_Driver/src/stm32f4xx_fsmc.c ****   */
 370:libs/STM32F4xx_StdPeriph_Driver/src/stm32f4xx_fsmc.c **** void FSMC_NANDInit(FSMC_NANDInitTypeDef* FSMC_NANDInitStruct)
 371:libs/STM32F4xx_StdPeriph_Driver/src/stm32f4xx_fsmc.c **** {
 400              		.loc 1 371 0
 401              		.cfi_startproc
 402              		@ args = 0, pretend = 0, frame = 0
 403              		@ frame_needed = 0, uses_anonymous_args = 0
 404              		@ link register save eliminated.
 405              	.LVL7:
 406 0000 30B4     		push	{r4, r5}
 407              	.LCFI2:
 408              		.cfi_def_cfa_offset 8
 409              		.cfi_offset 4, -8
 410              		.cfi_offset 5, -4
 411              	.LVL8:
 372:libs/STM32F4xx_StdPeriph_Driver/src/stm32f4xx_fsmc.c ****   uint32_t tmppcr = 0x00000000, tmppmem = 0x00000000, tmppatt = 0x00000000; 
 373:libs/STM32F4xx_StdPeriph_Driver/src/stm32f4xx_fsmc.c ****     
 374:libs/STM32F4xx_StdPeriph_Driver/src/stm32f4xx_fsmc.c ****   /* Check the parameters */
 375:libs/STM32F4xx_StdPeriph_Driver/src/stm32f4xx_fsmc.c ****   assert_param( IS_FSMC_NAND_BANK(FSMC_NANDInitStruct->FSMC_Bank));
 376:libs/STM32F4xx_StdPeriph_Driver/src/stm32f4xx_fsmc.c ****   assert_param( IS_FSMC_WAIT_FEATURE(FSMC_NANDInitStruct->FSMC_Waitfeature));
 377:libs/STM32F4xx_StdPeriph_Driver/src/stm32f4xx_fsmc.c ****   assert_param( IS_FSMC_MEMORY_WIDTH(FSMC_NANDInitStruct->FSMC_MemoryDataWidth));
 378:libs/STM32F4xx_StdPeriph_Driver/src/stm32f4xx_fsmc.c ****   assert_param( IS_FSMC_ECC_STATE(FSMC_NANDInitStruct->FSMC_ECC));
 379:libs/STM32F4xx_StdPeriph_Driver/src/stm32f4xx_fsmc.c ****   assert_param( IS_FSMC_ECCPAGE_SIZE(FSMC_NANDInitStruct->FSMC_ECCPageSize));
 380:libs/STM32F4xx_StdPeriph_Driver/src/stm32f4xx_fsmc.c ****   assert_param( IS_FSMC_TCLR_TIME(FSMC_NANDInitStruct->FSMC_TCLRSetupTime));
 381:libs/STM32F4xx_StdPeriph_Driver/src/stm32f4xx_fsmc.c ****   assert_param( IS_FSMC_TAR_TIME(FSMC_NANDInitStruct->FSMC_TARSetupTime));
 382:libs/STM32F4xx_StdPeriph_Driver/src/stm32f4xx_fsmc.c ****   assert_param(IS_FSMC_SETUP_TIME(FSMC_NANDInitStruct->FSMC_CommonSpaceTimingStruct->FSMC_SetupTime
 383:libs/STM32F4xx_StdPeriph_Driver/src/stm32f4xx_fsmc.c ****   assert_param(IS_FSMC_WAIT_TIME(FSMC_NANDInitStruct->FSMC_CommonSpaceTimingStruct->FSMC_WaitSetupT
 384:libs/STM32F4xx_StdPeriph_Driver/src/stm32f4xx_fsmc.c ****   assert_param(IS_FSMC_HOLD_TIME(FSMC_NANDInitStruct->FSMC_CommonSpaceTimingStruct->FSMC_HoldSetupT
 385:libs/STM32F4xx_StdPeriph_Driver/src/stm32f4xx_fsmc.c ****   assert_param(IS_FSMC_HIZ_TIME(FSMC_NANDInitStruct->FSMC_CommonSpaceTimingStruct->FSMC_HiZSetupTim
 386:libs/STM32F4xx_StdPeriph_Driver/src/stm32f4xx_fsmc.c ****   assert_param(IS_FSMC_SETUP_TIME(FSMC_NANDInitStruct->FSMC_AttributeSpaceTimingStruct->FSMC_SetupT
 387:libs/STM32F4xx_StdPeriph_Driver/src/stm32f4xx_fsmc.c ****   assert_param(IS_FSMC_WAIT_TIME(FSMC_NANDInitStruct->FSMC_AttributeSpaceTimingStruct->FSMC_WaitSet
 388:libs/STM32F4xx_StdPeriph_Driver/src/stm32f4xx_fsmc.c ****   assert_param(IS_FSMC_HOLD_TIME(FSMC_NANDInitStruct->FSMC_AttributeSpaceTimingStruct->FSMC_HoldSet
 389:libs/STM32F4xx_StdPeriph_Driver/src/stm32f4xx_fsmc.c ****   assert_param(IS_FSMC_HIZ_TIME(FSMC_NANDInitStruct->FSMC_AttributeSpaceTimingStruct->FSMC_HiZSetup
 390:libs/STM32F4xx_StdPeriph_Driver/src/stm32f4xx_fsmc.c ****   
 391:libs/STM32F4xx_StdPeriph_Driver/src/stm32f4xx_fsmc.c ****   /* Set the tmppcr value according to FSMC_NANDInitStruct parameters */
 392:libs/STM32F4xx_StdPeriph_Driver/src/stm32f4xx_fsmc.c ****   tmppcr = (uint32_t)FSMC_NANDInitStruct->FSMC_Waitfeature |
 412              		.loc 1 392 0
 413 0002 4268     		ldr	r2, [r0, #4]
 393:libs/STM32F4xx_StdPeriph_Driver/src/stm32f4xx_fsmc.c ****             PCR_MEMORYTYPE_NAND |
 394:libs/STM32F4xx_StdPeriph_Driver/src/stm32f4xx_fsmc.c ****             FSMC_NANDInitStruct->FSMC_MemoryDataWidth |
 414              		.loc 1 394 0
 415 0004 8368     		ldr	r3, [r0, #8]
 393:libs/STM32F4xx_StdPeriph_Driver/src/stm32f4xx_fsmc.c ****             PCR_MEMORYTYPE_NAND |
 416              		.loc 1 393 0
 417 0006 42EA0304 		orr	r4, r2, r3
 395:libs/STM32F4xx_StdPeriph_Driver/src/stm32f4xx_fsmc.c ****             FSMC_NANDInitStruct->FSMC_ECC |
 418              		.loc 1 395 0
 419 000a C368     		ldr	r3, [r0, #12]
 394:libs/STM32F4xx_StdPeriph_Driver/src/stm32f4xx_fsmc.c ****             FSMC_NANDInitStruct->FSMC_ECC |
 420              		.loc 1 394 0
 421 000c 1C43     		orrs	r4, r4, r3
 396:libs/STM32F4xx_StdPeriph_Driver/src/stm32f4xx_fsmc.c ****             FSMC_NANDInitStruct->FSMC_ECCPageSize |
 422              		.loc 1 396 0
 423 000e 0369     		ldr	r3, [r0, #16]
 395:libs/STM32F4xx_StdPeriph_Driver/src/stm32f4xx_fsmc.c ****             FSMC_NANDInitStruct->FSMC_ECC |
 424              		.loc 1 395 0
 425 0010 1C43     		orrs	r4, r4, r3
 397:libs/STM32F4xx_StdPeriph_Driver/src/stm32f4xx_fsmc.c ****             (FSMC_NANDInitStruct->FSMC_TCLRSetupTime << 9 )|
 426              		.loc 1 397 0
 427 0012 4369     		ldr	r3, [r0, #20]
 396:libs/STM32F4xx_StdPeriph_Driver/src/stm32f4xx_fsmc.c ****             FSMC_NANDInitStruct->FSMC_ECCPageSize |
 428              		.loc 1 396 0
 429 0014 44EA4324 		orr	r4, r4, r3, lsl #9
 398:libs/STM32F4xx_StdPeriph_Driver/src/stm32f4xx_fsmc.c ****             (FSMC_NANDInitStruct->FSMC_TARSetupTime << 13);
 430              		.loc 1 398 0
 431 0018 8369     		ldr	r3, [r0, #24]
 397:libs/STM32F4xx_StdPeriph_Driver/src/stm32f4xx_fsmc.c ****             (FSMC_NANDInitStruct->FSMC_TCLRSetupTime << 9 )|
 432              		.loc 1 397 0
 433 001a 44EA4333 		orr	r3, r4, r3, lsl #13
 392:libs/STM32F4xx_StdPeriph_Driver/src/stm32f4xx_fsmc.c ****             PCR_MEMORYTYPE_NAND |
 434              		.loc 1 392 0
 435 001e 43F00804 		orr	r4, r3, #8
 436              	.LVL9:
 399:libs/STM32F4xx_StdPeriph_Driver/src/stm32f4xx_fsmc.c ****             
 400:libs/STM32F4xx_StdPeriph_Driver/src/stm32f4xx_fsmc.c ****   /* Set tmppmem value according to FSMC_CommonSpaceTimingStructure parameters */
 401:libs/STM32F4xx_StdPeriph_Driver/src/stm32f4xx_fsmc.c ****   tmppmem = (uint32_t)FSMC_NANDInitStruct->FSMC_CommonSpaceTimingStruct->FSMC_SetupTime |
 437              		.loc 1 401 0
 438 0022 C369     		ldr	r3, [r0, #28]
 439 0024 1A68     		ldr	r2, [r3]
 402:libs/STM32F4xx_StdPeriph_Driver/src/stm32f4xx_fsmc.c ****             (FSMC_NANDInitStruct->FSMC_CommonSpaceTimingStruct->FSMC_WaitSetupTime << 8) |
 440              		.loc 1 402 0
 441 0026 5968     		ldr	r1, [r3, #4]
 401:libs/STM32F4xx_StdPeriph_Driver/src/stm32f4xx_fsmc.c ****             (FSMC_NANDInitStruct->FSMC_CommonSpaceTimingStruct->FSMC_WaitSetupTime << 8) |
 442              		.loc 1 401 0
 443 0028 42EA0121 		orr	r1, r2, r1, lsl #8
 403:libs/STM32F4xx_StdPeriph_Driver/src/stm32f4xx_fsmc.c ****             (FSMC_NANDInitStruct->FSMC_CommonSpaceTimingStruct->FSMC_HoldSetupTime << 16)|
 444              		.loc 1 403 0
 445 002c 9A68     		ldr	r2, [r3, #8]
 402:libs/STM32F4xx_StdPeriph_Driver/src/stm32f4xx_fsmc.c ****             (FSMC_NANDInitStruct->FSMC_CommonSpaceTimingStruct->FSMC_WaitSetupTime << 8) |
 446              		.loc 1 402 0
 447 002e 41EA0242 		orr	r2, r1, r2, lsl #16
 404:libs/STM32F4xx_StdPeriph_Driver/src/stm32f4xx_fsmc.c ****             (FSMC_NANDInitStruct->FSMC_CommonSpaceTimingStruct->FSMC_HiZSetupTime << 24); 
 448              		.loc 1 404 0
 449 0032 D968     		ldr	r1, [r3, #12]
 401:libs/STM32F4xx_StdPeriph_Driver/src/stm32f4xx_fsmc.c ****             (FSMC_NANDInitStruct->FSMC_CommonSpaceTimingStruct->FSMC_WaitSetupTime << 8) |
 450              		.loc 1 401 0
 451 0034 42EA0165 		orr	r5, r2, r1, lsl #24
 452              	.LVL10:
 405:libs/STM32F4xx_StdPeriph_Driver/src/stm32f4xx_fsmc.c ****             
 406:libs/STM32F4xx_StdPeriph_Driver/src/stm32f4xx_fsmc.c ****   /* Set tmppatt value according to FSMC_AttributeSpaceTimingStructure parameters */
 407:libs/STM32F4xx_StdPeriph_Driver/src/stm32f4xx_fsmc.c ****   tmppatt = (uint32_t)FSMC_NANDInitStruct->FSMC_AttributeSpaceTimingStruct->FSMC_SetupTime |
 453              		.loc 1 407 0
 454 0038 036A     		ldr	r3, [r0, #32]
 455 003a 1A68     		ldr	r2, [r3]
 408:libs/STM32F4xx_StdPeriph_Driver/src/stm32f4xx_fsmc.c ****             (FSMC_NANDInitStruct->FSMC_AttributeSpaceTimingStruct->FSMC_WaitSetupTime << 8) |
 456              		.loc 1 408 0
 457 003c 5968     		ldr	r1, [r3, #4]
 407:libs/STM32F4xx_StdPeriph_Driver/src/stm32f4xx_fsmc.c ****             (FSMC_NANDInitStruct->FSMC_AttributeSpaceTimingStruct->FSMC_WaitSetupTime << 8) |
 458              		.loc 1 407 0
 459 003e 42EA0121 		orr	r1, r2, r1, lsl #8
 409:libs/STM32F4xx_StdPeriph_Driver/src/stm32f4xx_fsmc.c ****             (FSMC_NANDInitStruct->FSMC_AttributeSpaceTimingStruct->FSMC_HoldSetupTime << 16)|
 460              		.loc 1 409 0
 461 0042 9A68     		ldr	r2, [r3, #8]
 408:libs/STM32F4xx_StdPeriph_Driver/src/stm32f4xx_fsmc.c ****             (FSMC_NANDInitStruct->FSMC_AttributeSpaceTimingStruct->FSMC_WaitSetupTime << 8) |
 462              		.loc 1 408 0
 463 0044 41EA0242 		orr	r2, r1, r2, lsl #16
 410:libs/STM32F4xx_StdPeriph_Driver/src/stm32f4xx_fsmc.c ****             (FSMC_NANDInitStruct->FSMC_AttributeSpaceTimingStruct->FSMC_HiZSetupTime << 24);
 464              		.loc 1 410 0
 465 0048 DB68     		ldr	r3, [r3, #12]
 407:libs/STM32F4xx_StdPeriph_Driver/src/stm32f4xx_fsmc.c ****             (FSMC_NANDInitStruct->FSMC_AttributeSpaceTimingStruct->FSMC_WaitSetupTime << 8) |
 466              		.loc 1 407 0
 467 004a 42EA0362 		orr	r2, r2, r3, lsl #24
 468              	.LVL11:
 411:libs/STM32F4xx_StdPeriph_Driver/src/stm32f4xx_fsmc.c ****   
 412:libs/STM32F4xx_StdPeriph_Driver/src/stm32f4xx_fsmc.c ****   if(FSMC_NANDInitStruct->FSMC_Bank == FSMC_Bank2_NAND)
 469              		.loc 1 412 0
 470 004e 0068     		ldr	r0, [r0]
 471              	.LVL12:
 472 0050 1028     		cmp	r0, #16
 413:libs/STM32F4xx_StdPeriph_Driver/src/stm32f4xx_fsmc.c ****   {
 414:libs/STM32F4xx_StdPeriph_Driver/src/stm32f4xx_fsmc.c ****     /* FSMC_Bank2_NAND registers configuration */
 415:libs/STM32F4xx_StdPeriph_Driver/src/stm32f4xx_fsmc.c ****     FSMC_Bank2->PCR2 = tmppcr;
 473              		.loc 1 415 0
 474 0052 0CBF     		ite	eq
 475 0054 6023     		moveq	r3, #96
 416:libs/STM32F4xx_StdPeriph_Driver/src/stm32f4xx_fsmc.c ****     FSMC_Bank2->PMEM2 = tmppmem;
 417:libs/STM32F4xx_StdPeriph_Driver/src/stm32f4xx_fsmc.c ****     FSMC_Bank2->PATT2 = tmppatt;
 418:libs/STM32F4xx_StdPeriph_Driver/src/stm32f4xx_fsmc.c ****   }
 419:libs/STM32F4xx_StdPeriph_Driver/src/stm32f4xx_fsmc.c ****   else
 420:libs/STM32F4xx_StdPeriph_Driver/src/stm32f4xx_fsmc.c ****   {
 421:libs/STM32F4xx_StdPeriph_Driver/src/stm32f4xx_fsmc.c ****     /* FSMC_Bank3_NAND registers configuration */
 422:libs/STM32F4xx_StdPeriph_Driver/src/stm32f4xx_fsmc.c ****     FSMC_Bank3->PCR3 = tmppcr;
 476              		.loc 1 422 0
 477 0056 8023     		movne	r3, #128
 478 0058 CAF20003 		movt	r3, 40960
 479 005c 1C60     		str	r4, [r3]
 423:libs/STM32F4xx_StdPeriph_Driver/src/stm32f4xx_fsmc.c ****     FSMC_Bank3->PMEM3 = tmppmem;
 480              		.loc 1 423 0
 481 005e 9D60     		str	r5, [r3, #8]
 424:libs/STM32F4xx_StdPeriph_Driver/src/stm32f4xx_fsmc.c ****     FSMC_Bank3->PATT3 = tmppatt;
 482              		.loc 1 424 0
 483 0060 DA60     		str	r2, [r3, #12]
 425:libs/STM32F4xx_StdPeriph_Driver/src/stm32f4xx_fsmc.c ****   }
 426:libs/STM32F4xx_StdPeriph_Driver/src/stm32f4xx_fsmc.c **** }
 484              		.loc 1 426 0
 485 0062 30BC     		pop	{r4, r5}
 486              	.LVL13:
 487 0064 7047     		bx	lr
 488              		.cfi_endproc
 489              	.LFE115:
 491 0066 00BF     		.section	.text.FSMC_NANDStructInit,"ax",%progbits
 492              		.align	2
 493              		.global	FSMC_NANDStructInit
 494              		.thumb
 495              		.thumb_func
 497              	FSMC_NANDStructInit:
 498              	.LFB116:
 427:libs/STM32F4xx_StdPeriph_Driver/src/stm32f4xx_fsmc.c **** 
 428:libs/STM32F4xx_StdPeriph_Driver/src/stm32f4xx_fsmc.c **** 
 429:libs/STM32F4xx_StdPeriph_Driver/src/stm32f4xx_fsmc.c **** /**
 430:libs/STM32F4xx_StdPeriph_Driver/src/stm32f4xx_fsmc.c ****   * @brief  Fills each FSMC_NANDInitStruct member with its default value.
 431:libs/STM32F4xx_StdPeriph_Driver/src/stm32f4xx_fsmc.c ****   * @param  FSMC_NANDInitStruct: pointer to a FSMC_NANDInitTypeDef structure which
 432:libs/STM32F4xx_StdPeriph_Driver/src/stm32f4xx_fsmc.c ****   *         will be initialized.
 433:libs/STM32F4xx_StdPeriph_Driver/src/stm32f4xx_fsmc.c ****   * @retval None
 434:libs/STM32F4xx_StdPeriph_Driver/src/stm32f4xx_fsmc.c ****   */
 435:libs/STM32F4xx_StdPeriph_Driver/src/stm32f4xx_fsmc.c **** void FSMC_NANDStructInit(FSMC_NANDInitTypeDef* FSMC_NANDInitStruct)
 436:libs/STM32F4xx_StdPeriph_Driver/src/stm32f4xx_fsmc.c **** { 
 499              		.loc 1 436 0
 500              		.cfi_startproc
 501              		@ args = 0, pretend = 0, frame = 0
 502              		@ frame_needed = 0, uses_anonymous_args = 0
 503              		@ link register save eliminated.
 504              	.LVL14:
 437:libs/STM32F4xx_StdPeriph_Driver/src/stm32f4xx_fsmc.c ****   /* Reset NAND Init structure parameters values */
 438:libs/STM32F4xx_StdPeriph_Driver/src/stm32f4xx_fsmc.c ****   FSMC_NANDInitStruct->FSMC_Bank = FSMC_Bank2_NAND;
 505              		.loc 1 438 0
 506 0000 1023     		movs	r3, #16
 507 0002 0360     		str	r3, [r0]
 439:libs/STM32F4xx_StdPeriph_Driver/src/stm32f4xx_fsmc.c ****   FSMC_NANDInitStruct->FSMC_Waitfeature = FSMC_Waitfeature_Disable;
 508              		.loc 1 439 0
 509 0004 0023     		movs	r3, #0
 510 0006 4360     		str	r3, [r0, #4]
 440:libs/STM32F4xx_StdPeriph_Driver/src/stm32f4xx_fsmc.c ****   FSMC_NANDInitStruct->FSMC_MemoryDataWidth = FSMC_MemoryDataWidth_8b;
 511              		.loc 1 440 0
 512 0008 8360     		str	r3, [r0, #8]
 441:libs/STM32F4xx_StdPeriph_Driver/src/stm32f4xx_fsmc.c ****   FSMC_NANDInitStruct->FSMC_ECC = FSMC_ECC_Disable;
 513              		.loc 1 441 0
 514 000a C360     		str	r3, [r0, #12]
 442:libs/STM32F4xx_StdPeriph_Driver/src/stm32f4xx_fsmc.c ****   FSMC_NANDInitStruct->FSMC_ECCPageSize = FSMC_ECCPageSize_256Bytes;
 515              		.loc 1 442 0
 516 000c 0361     		str	r3, [r0, #16]
 443:libs/STM32F4xx_StdPeriph_Driver/src/stm32f4xx_fsmc.c ****   FSMC_NANDInitStruct->FSMC_TCLRSetupTime = 0x0;
 517              		.loc 1 443 0
 518 000e 4361     		str	r3, [r0, #20]
 444:libs/STM32F4xx_StdPeriph_Driver/src/stm32f4xx_fsmc.c ****   FSMC_NANDInitStruct->FSMC_TARSetupTime = 0x0;
 519              		.loc 1 444 0
 520 0010 8361     		str	r3, [r0, #24]
 445:libs/STM32F4xx_StdPeriph_Driver/src/stm32f4xx_fsmc.c ****   FSMC_NANDInitStruct->FSMC_CommonSpaceTimingStruct->FSMC_SetupTime = 0xFC;
 521              		.loc 1 445 0
 522 0012 C269     		ldr	r2, [r0, #28]
 523 0014 FC23     		movs	r3, #252
 524 0016 1360     		str	r3, [r2]
 446:libs/STM32F4xx_StdPeriph_Driver/src/stm32f4xx_fsmc.c ****   FSMC_NANDInitStruct->FSMC_CommonSpaceTimingStruct->FSMC_WaitSetupTime = 0xFC;
 525              		.loc 1 446 0
 526 0018 C269     		ldr	r2, [r0, #28]
 527 001a 5360     		str	r3, [r2, #4]
 447:libs/STM32F4xx_StdPeriph_Driver/src/stm32f4xx_fsmc.c ****   FSMC_NANDInitStruct->FSMC_CommonSpaceTimingStruct->FSMC_HoldSetupTime = 0xFC;
 528              		.loc 1 447 0
 529 001c C269     		ldr	r2, [r0, #28]
 530 001e 9360     		str	r3, [r2, #8]
 448:libs/STM32F4xx_StdPeriph_Driver/src/stm32f4xx_fsmc.c ****   FSMC_NANDInitStruct->FSMC_CommonSpaceTimingStruct->FSMC_HiZSetupTime = 0xFC;
 531              		.loc 1 448 0
 532 0020 C269     		ldr	r2, [r0, #28]
 533 0022 D360     		str	r3, [r2, #12]
 449:libs/STM32F4xx_StdPeriph_Driver/src/stm32f4xx_fsmc.c ****   FSMC_NANDInitStruct->FSMC_AttributeSpaceTimingStruct->FSMC_SetupTime = 0xFC;
 534              		.loc 1 449 0
 535 0024 026A     		ldr	r2, [r0, #32]
 536 0026 1360     		str	r3, [r2]
 450:libs/STM32F4xx_StdPeriph_Driver/src/stm32f4xx_fsmc.c ****   FSMC_NANDInitStruct->FSMC_AttributeSpaceTimingStruct->FSMC_WaitSetupTime = 0xFC;
 537              		.loc 1 450 0
 538 0028 026A     		ldr	r2, [r0, #32]
 539 002a 5360     		str	r3, [r2, #4]
 451:libs/STM32F4xx_StdPeriph_Driver/src/stm32f4xx_fsmc.c ****   FSMC_NANDInitStruct->FSMC_AttributeSpaceTimingStruct->FSMC_HoldSetupTime = 0xFC;
 540              		.loc 1 451 0
 541 002c 026A     		ldr	r2, [r0, #32]
 542 002e 9360     		str	r3, [r2, #8]
 452:libs/STM32F4xx_StdPeriph_Driver/src/stm32f4xx_fsmc.c ****   FSMC_NANDInitStruct->FSMC_AttributeSpaceTimingStruct->FSMC_HiZSetupTime = 0xFC;	  
 543              		.loc 1 452 0
 544 0030 026A     		ldr	r2, [r0, #32]
 545 0032 D360     		str	r3, [r2, #12]
 546 0034 7047     		bx	lr
 547              		.cfi_endproc
 548              	.LFE116:
 550 0036 00BF     		.section	.text.FSMC_NANDCmd,"ax",%progbits
 551              		.align	2
 552              		.global	FSMC_NANDCmd
 553              		.thumb
 554              		.thumb_func
 556              	FSMC_NANDCmd:
 557              	.LFB117:
 453:libs/STM32F4xx_StdPeriph_Driver/src/stm32f4xx_fsmc.c **** }
 454:libs/STM32F4xx_StdPeriph_Driver/src/stm32f4xx_fsmc.c **** 
 455:libs/STM32F4xx_StdPeriph_Driver/src/stm32f4xx_fsmc.c **** /**
 456:libs/STM32F4xx_StdPeriph_Driver/src/stm32f4xx_fsmc.c ****   * @brief  Enables or disables the specified NAND Memory Bank.
 457:libs/STM32F4xx_StdPeriph_Driver/src/stm32f4xx_fsmc.c ****   * @param  FSMC_Bank: specifies the FSMC Bank to be used
 458:libs/STM32F4xx_StdPeriph_Driver/src/stm32f4xx_fsmc.c ****   *          This parameter can be one of the following values:
 459:libs/STM32F4xx_StdPeriph_Driver/src/stm32f4xx_fsmc.c ****   *            @arg FSMC_Bank2_NAND: FSMC Bank2 NAND 
 460:libs/STM32F4xx_StdPeriph_Driver/src/stm32f4xx_fsmc.c ****   *            @arg FSMC_Bank3_NAND: FSMC Bank3 NAND
 461:libs/STM32F4xx_StdPeriph_Driver/src/stm32f4xx_fsmc.c ****   * @param  NewState: new state of the FSMC_Bank. This parameter can be: ENABLE or DISABLE.
 462:libs/STM32F4xx_StdPeriph_Driver/src/stm32f4xx_fsmc.c ****   * @retval None
 463:libs/STM32F4xx_StdPeriph_Driver/src/stm32f4xx_fsmc.c ****   */
 464:libs/STM32F4xx_StdPeriph_Driver/src/stm32f4xx_fsmc.c **** void FSMC_NANDCmd(uint32_t FSMC_Bank, FunctionalState NewState)
 465:libs/STM32F4xx_StdPeriph_Driver/src/stm32f4xx_fsmc.c **** {
 558              		.loc 1 465 0
 559              		.cfi_startproc
 560              		@ args = 0, pretend = 0, frame = 0
 561              		@ frame_needed = 0, uses_anonymous_args = 0
 562              		@ link register save eliminated.
 563              	.LVL15:
 466:libs/STM32F4xx_StdPeriph_Driver/src/stm32f4xx_fsmc.c ****   assert_param(IS_FSMC_NAND_BANK(FSMC_Bank));
 467:libs/STM32F4xx_StdPeriph_Driver/src/stm32f4xx_fsmc.c ****   assert_param(IS_FUNCTIONAL_STATE(NewState));
 468:libs/STM32F4xx_StdPeriph_Driver/src/stm32f4xx_fsmc.c ****   
 469:libs/STM32F4xx_StdPeriph_Driver/src/stm32f4xx_fsmc.c ****   if (NewState != DISABLE)
 564              		.loc 1 469 0
 565 0000 51B1     		cbz	r1, .L20
 470:libs/STM32F4xx_StdPeriph_Driver/src/stm32f4xx_fsmc.c ****   {
 471:libs/STM32F4xx_StdPeriph_Driver/src/stm32f4xx_fsmc.c ****     /* Enable the selected NAND Bank by setting the PBKEN bit in the PCRx register */
 472:libs/STM32F4xx_StdPeriph_Driver/src/stm32f4xx_fsmc.c ****     if(FSMC_Bank == FSMC_Bank2_NAND)
 566              		.loc 1 472 0
 567 0002 1028     		cmp	r0, #16
 473:libs/STM32F4xx_StdPeriph_Driver/src/stm32f4xx_fsmc.c ****     {
 474:libs/STM32F4xx_StdPeriph_Driver/src/stm32f4xx_fsmc.c ****       FSMC_Bank2->PCR2 |= PCR_PBKEN_SET;
 568              		.loc 1 474 0
 569 0004 0CBF     		ite	eq
 570 0006 6023     		moveq	r3, #96
 475:libs/STM32F4xx_StdPeriph_Driver/src/stm32f4xx_fsmc.c ****     }
 476:libs/STM32F4xx_StdPeriph_Driver/src/stm32f4xx_fsmc.c ****     else
 477:libs/STM32F4xx_StdPeriph_Driver/src/stm32f4xx_fsmc.c ****     {
 478:libs/STM32F4xx_StdPeriph_Driver/src/stm32f4xx_fsmc.c ****       FSMC_Bank3->PCR3 |= PCR_PBKEN_SET;
 571              		.loc 1 478 0
 572 0008 8023     		movne	r3, #128
 573 000a CAF20003 		movt	r3, 40960
 574 000e 1A68     		ldr	r2, [r3]
 575 0010 42F00402 		orr	r2, r2, #4
 576 0014 1A60     		str	r2, [r3]
 577 0016 7047     		bx	lr
 578              	.L20:
 479:libs/STM32F4xx_StdPeriph_Driver/src/stm32f4xx_fsmc.c ****     }
 480:libs/STM32F4xx_StdPeriph_Driver/src/stm32f4xx_fsmc.c ****   }
 481:libs/STM32F4xx_StdPeriph_Driver/src/stm32f4xx_fsmc.c ****   else
 482:libs/STM32F4xx_StdPeriph_Driver/src/stm32f4xx_fsmc.c ****   {
 483:libs/STM32F4xx_StdPeriph_Driver/src/stm32f4xx_fsmc.c ****     /* Disable the selected NAND Bank by clearing the PBKEN bit in the PCRx register */
 484:libs/STM32F4xx_StdPeriph_Driver/src/stm32f4xx_fsmc.c ****     if(FSMC_Bank == FSMC_Bank2_NAND)
 579              		.loc 1 484 0
 580 0018 1028     		cmp	r0, #16
 485:libs/STM32F4xx_StdPeriph_Driver/src/stm32f4xx_fsmc.c ****     {
 486:libs/STM32F4xx_StdPeriph_Driver/src/stm32f4xx_fsmc.c ****       FSMC_Bank2->PCR2 &= PCR_PBKEN_RESET;
 581              		.loc 1 486 0
 582 001a 0CBF     		ite	eq
 583 001c 6022     		moveq	r2, #96
 487:libs/STM32F4xx_StdPeriph_Driver/src/stm32f4xx_fsmc.c ****     }
 488:libs/STM32F4xx_StdPeriph_Driver/src/stm32f4xx_fsmc.c ****     else
 489:libs/STM32F4xx_StdPeriph_Driver/src/stm32f4xx_fsmc.c ****     {
 490:libs/STM32F4xx_StdPeriph_Driver/src/stm32f4xx_fsmc.c ****       FSMC_Bank3->PCR3 &= PCR_PBKEN_RESET;
 584              		.loc 1 490 0
 585 001e 8022     		movne	r2, #128
 586 0020 CAF20002 		movt	r2, 40960
 587 0024 1168     		ldr	r1, [r2]
 588              	.LVL16:
 589 0026 4FF6FB73 		movw	r3, #65531
 590 002a C0F20F03 		movt	r3, 15
 591 002e 0B40     		ands	r3, r3, r1
 592 0030 1360     		str	r3, [r2]
 593 0032 7047     		bx	lr
 594              		.cfi_endproc
 595              	.LFE117:
 597              		.section	.text.FSMC_NANDECCCmd,"ax",%progbits
 598              		.align	2
 599              		.global	FSMC_NANDECCCmd
 600              		.thumb
 601              		.thumb_func
 603              	FSMC_NANDECCCmd:
 604              	.LFB118:
 491:libs/STM32F4xx_StdPeriph_Driver/src/stm32f4xx_fsmc.c ****     }
 492:libs/STM32F4xx_StdPeriph_Driver/src/stm32f4xx_fsmc.c ****   }
 493:libs/STM32F4xx_StdPeriph_Driver/src/stm32f4xx_fsmc.c **** }
 494:libs/STM32F4xx_StdPeriph_Driver/src/stm32f4xx_fsmc.c **** /**
 495:libs/STM32F4xx_StdPeriph_Driver/src/stm32f4xx_fsmc.c ****   * @brief  Enables or disables the FSMC NAND ECC feature.
 496:libs/STM32F4xx_StdPeriph_Driver/src/stm32f4xx_fsmc.c ****   * @param  FSMC_Bank: specifies the FSMC Bank to be used
 497:libs/STM32F4xx_StdPeriph_Driver/src/stm32f4xx_fsmc.c ****   *          This parameter can be one of the following values:
 498:libs/STM32F4xx_StdPeriph_Driver/src/stm32f4xx_fsmc.c ****   *            @arg FSMC_Bank2_NAND: FSMC Bank2 NAND 
 499:libs/STM32F4xx_StdPeriph_Driver/src/stm32f4xx_fsmc.c ****   *            @arg FSMC_Bank3_NAND: FSMC Bank3 NAND
 500:libs/STM32F4xx_StdPeriph_Driver/src/stm32f4xx_fsmc.c ****   * @param  NewState: new state of the FSMC NAND ECC feature.  
 501:libs/STM32F4xx_StdPeriph_Driver/src/stm32f4xx_fsmc.c ****   *          This parameter can be: ENABLE or DISABLE.
 502:libs/STM32F4xx_StdPeriph_Driver/src/stm32f4xx_fsmc.c ****   * @retval None
 503:libs/STM32F4xx_StdPeriph_Driver/src/stm32f4xx_fsmc.c ****   */
 504:libs/STM32F4xx_StdPeriph_Driver/src/stm32f4xx_fsmc.c **** void FSMC_NANDECCCmd(uint32_t FSMC_Bank, FunctionalState NewState)
 505:libs/STM32F4xx_StdPeriph_Driver/src/stm32f4xx_fsmc.c **** {
 605              		.loc 1 505 0
 606              		.cfi_startproc
 607              		@ args = 0, pretend = 0, frame = 0
 608              		@ frame_needed = 0, uses_anonymous_args = 0
 609              		@ link register save eliminated.
 610              	.LVL17:
 506:libs/STM32F4xx_StdPeriph_Driver/src/stm32f4xx_fsmc.c ****   assert_param(IS_FSMC_NAND_BANK(FSMC_Bank));
 507:libs/STM32F4xx_StdPeriph_Driver/src/stm32f4xx_fsmc.c ****   assert_param(IS_FUNCTIONAL_STATE(NewState));
 508:libs/STM32F4xx_StdPeriph_Driver/src/stm32f4xx_fsmc.c ****   
 509:libs/STM32F4xx_StdPeriph_Driver/src/stm32f4xx_fsmc.c ****   if (NewState != DISABLE)
 611              		.loc 1 509 0
 612 0000 51B1     		cbz	r1, .L25
 510:libs/STM32F4xx_StdPeriph_Driver/src/stm32f4xx_fsmc.c ****   {
 511:libs/STM32F4xx_StdPeriph_Driver/src/stm32f4xx_fsmc.c ****     /* Enable the selected NAND Bank ECC function by setting the ECCEN bit in the PCRx register */
 512:libs/STM32F4xx_StdPeriph_Driver/src/stm32f4xx_fsmc.c ****     if(FSMC_Bank == FSMC_Bank2_NAND)
 613              		.loc 1 512 0
 614 0002 1028     		cmp	r0, #16
 513:libs/STM32F4xx_StdPeriph_Driver/src/stm32f4xx_fsmc.c ****     {
 514:libs/STM32F4xx_StdPeriph_Driver/src/stm32f4xx_fsmc.c ****       FSMC_Bank2->PCR2 |= PCR_ECCEN_SET;
 615              		.loc 1 514 0
 616 0004 0CBF     		ite	eq
 617 0006 6023     		moveq	r3, #96
 515:libs/STM32F4xx_StdPeriph_Driver/src/stm32f4xx_fsmc.c ****     }
 516:libs/STM32F4xx_StdPeriph_Driver/src/stm32f4xx_fsmc.c ****     else
 517:libs/STM32F4xx_StdPeriph_Driver/src/stm32f4xx_fsmc.c ****     {
 518:libs/STM32F4xx_StdPeriph_Driver/src/stm32f4xx_fsmc.c ****       FSMC_Bank3->PCR3 |= PCR_ECCEN_SET;
 618              		.loc 1 518 0
 619 0008 8023     		movne	r3, #128
 620 000a CAF20003 		movt	r3, 40960
 621 000e 1A68     		ldr	r2, [r3]
 622 0010 42F04002 		orr	r2, r2, #64
 623 0014 1A60     		str	r2, [r3]
 624 0016 7047     		bx	lr
 625              	.L25:
 519:libs/STM32F4xx_StdPeriph_Driver/src/stm32f4xx_fsmc.c ****     }
 520:libs/STM32F4xx_StdPeriph_Driver/src/stm32f4xx_fsmc.c ****   }
 521:libs/STM32F4xx_StdPeriph_Driver/src/stm32f4xx_fsmc.c ****   else
 522:libs/STM32F4xx_StdPeriph_Driver/src/stm32f4xx_fsmc.c ****   {
 523:libs/STM32F4xx_StdPeriph_Driver/src/stm32f4xx_fsmc.c ****     /* Disable the selected NAND Bank ECC function by clearing the ECCEN bit in the PCRx register *
 524:libs/STM32F4xx_StdPeriph_Driver/src/stm32f4xx_fsmc.c ****     if(FSMC_Bank == FSMC_Bank2_NAND)
 626              		.loc 1 524 0
 627 0018 1028     		cmp	r0, #16
 525:libs/STM32F4xx_StdPeriph_Driver/src/stm32f4xx_fsmc.c ****     {
 526:libs/STM32F4xx_StdPeriph_Driver/src/stm32f4xx_fsmc.c ****       FSMC_Bank2->PCR2 &= PCR_ECCEN_RESET;
 628              		.loc 1 526 0
 629 001a 0CBF     		ite	eq
 630 001c 6022     		moveq	r2, #96
 527:libs/STM32F4xx_StdPeriph_Driver/src/stm32f4xx_fsmc.c ****     }
 528:libs/STM32F4xx_StdPeriph_Driver/src/stm32f4xx_fsmc.c ****     else
 529:libs/STM32F4xx_StdPeriph_Driver/src/stm32f4xx_fsmc.c ****     {
 530:libs/STM32F4xx_StdPeriph_Driver/src/stm32f4xx_fsmc.c ****       FSMC_Bank3->PCR3 &= PCR_ECCEN_RESET;
 631              		.loc 1 530 0
 632 001e 8022     		movne	r2, #128
 633 0020 CAF20002 		movt	r2, 40960
 634 0024 1168     		ldr	r1, [r2]
 635              	.LVL18:
 636 0026 4FF6BF73 		movw	r3, #65471
 637 002a C0F20F03 		movt	r3, 15
 638 002e 0B40     		ands	r3, r3, r1
 639 0030 1360     		str	r3, [r2]
 640 0032 7047     		bx	lr
 641              		.cfi_endproc
 642              	.LFE118:
 644              		.section	.text.FSMC_GetECC,"ax",%progbits
 645              		.align	2
 646              		.global	FSMC_GetECC
 647              		.thumb
 648              		.thumb_func
 650              	FSMC_GetECC:
 651              	.LFB119:
 531:libs/STM32F4xx_StdPeriph_Driver/src/stm32f4xx_fsmc.c ****     }
 532:libs/STM32F4xx_StdPeriph_Driver/src/stm32f4xx_fsmc.c ****   }
 533:libs/STM32F4xx_StdPeriph_Driver/src/stm32f4xx_fsmc.c **** }
 534:libs/STM32F4xx_StdPeriph_Driver/src/stm32f4xx_fsmc.c **** 
 535:libs/STM32F4xx_StdPeriph_Driver/src/stm32f4xx_fsmc.c **** /**
 536:libs/STM32F4xx_StdPeriph_Driver/src/stm32f4xx_fsmc.c ****   * @brief  Returns the error correction code register value.
 537:libs/STM32F4xx_StdPeriph_Driver/src/stm32f4xx_fsmc.c ****   * @param  FSMC_Bank: specifies the FSMC Bank to be used
 538:libs/STM32F4xx_StdPeriph_Driver/src/stm32f4xx_fsmc.c ****   *          This parameter can be one of the following values:
 539:libs/STM32F4xx_StdPeriph_Driver/src/stm32f4xx_fsmc.c ****   *            @arg FSMC_Bank2_NAND: FSMC Bank2 NAND 
 540:libs/STM32F4xx_StdPeriph_Driver/src/stm32f4xx_fsmc.c ****   *            @arg FSMC_Bank3_NAND: FSMC Bank3 NAND
 541:libs/STM32F4xx_StdPeriph_Driver/src/stm32f4xx_fsmc.c ****   * @retval The Error Correction Code (ECC) value.
 542:libs/STM32F4xx_StdPeriph_Driver/src/stm32f4xx_fsmc.c ****   */
 543:libs/STM32F4xx_StdPeriph_Driver/src/stm32f4xx_fsmc.c **** uint32_t FSMC_GetECC(uint32_t FSMC_Bank)
 544:libs/STM32F4xx_StdPeriph_Driver/src/stm32f4xx_fsmc.c **** {
 652              		.loc 1 544 0
 653              		.cfi_startproc
 654              		@ args = 0, pretend = 0, frame = 0
 655              		@ frame_needed = 0, uses_anonymous_args = 0
 656              		@ link register save eliminated.
 657              	.LVL19:
 545:libs/STM32F4xx_StdPeriph_Driver/src/stm32f4xx_fsmc.c ****   uint32_t eccval = 0x00000000;
 546:libs/STM32F4xx_StdPeriph_Driver/src/stm32f4xx_fsmc.c ****   
 547:libs/STM32F4xx_StdPeriph_Driver/src/stm32f4xx_fsmc.c ****   if(FSMC_Bank == FSMC_Bank2_NAND)
 658              		.loc 1 547 0
 659 0000 1028     		cmp	r0, #16
 548:libs/STM32F4xx_StdPeriph_Driver/src/stm32f4xx_fsmc.c ****   {
 549:libs/STM32F4xx_StdPeriph_Driver/src/stm32f4xx_fsmc.c ****     /* Get the ECCR2 register value */
 550:libs/STM32F4xx_StdPeriph_Driver/src/stm32f4xx_fsmc.c ****     eccval = FSMC_Bank2->ECCR2;
 660              		.loc 1 550 0
 661 0002 0CBF     		ite	eq
 662 0004 6023     		moveq	r3, #96
 551:libs/STM32F4xx_StdPeriph_Driver/src/stm32f4xx_fsmc.c ****   }
 552:libs/STM32F4xx_StdPeriph_Driver/src/stm32f4xx_fsmc.c ****   else
 553:libs/STM32F4xx_StdPeriph_Driver/src/stm32f4xx_fsmc.c ****   {
 554:libs/STM32F4xx_StdPeriph_Driver/src/stm32f4xx_fsmc.c ****     /* Get the ECCR3 register value */
 555:libs/STM32F4xx_StdPeriph_Driver/src/stm32f4xx_fsmc.c ****     eccval = FSMC_Bank3->ECCR3;
 663              		.loc 1 555 0
 664 0006 8023     		movne	r3, #128
 665 0008 CAF20003 		movt	r3, 40960
 666 000c 5869     		ldr	r0, [r3, #20]
 667              	.LVL20:
 556:libs/STM32F4xx_StdPeriph_Driver/src/stm32f4xx_fsmc.c ****   }
 557:libs/STM32F4xx_StdPeriph_Driver/src/stm32f4xx_fsmc.c ****   /* Return the error correction code value */
 558:libs/STM32F4xx_StdPeriph_Driver/src/stm32f4xx_fsmc.c ****   return(eccval);
 559:libs/STM32F4xx_StdPeriph_Driver/src/stm32f4xx_fsmc.c **** }
 668              		.loc 1 559 0
 669 000e 7047     		bx	lr
 670              		.cfi_endproc
 671              	.LFE119:
 673              		.section	.text.FSMC_PCCARDDeInit,"ax",%progbits
 674              		.align	2
 675              		.global	FSMC_PCCARDDeInit
 676              		.thumb
 677              		.thumb_func
 679              	FSMC_PCCARDDeInit:
 680              	.LFB120:
 560:libs/STM32F4xx_StdPeriph_Driver/src/stm32f4xx_fsmc.c **** /**
 561:libs/STM32F4xx_StdPeriph_Driver/src/stm32f4xx_fsmc.c ****   * @}
 562:libs/STM32F4xx_StdPeriph_Driver/src/stm32f4xx_fsmc.c ****   */
 563:libs/STM32F4xx_StdPeriph_Driver/src/stm32f4xx_fsmc.c **** 
 564:libs/STM32F4xx_StdPeriph_Driver/src/stm32f4xx_fsmc.c **** /** @defgroup FSMC_Group3 PCCARD Controller functions
 565:libs/STM32F4xx_StdPeriph_Driver/src/stm32f4xx_fsmc.c ****  *  @brief   PCCARD Controller functions 
 566:libs/STM32F4xx_StdPeriph_Driver/src/stm32f4xx_fsmc.c ****  *
 567:libs/STM32F4xx_StdPeriph_Driver/src/stm32f4xx_fsmc.c **** @verbatim   
 568:libs/STM32F4xx_StdPeriph_Driver/src/stm32f4xx_fsmc.c ****  ===============================================================================
 569:libs/STM32F4xx_StdPeriph_Driver/src/stm32f4xx_fsmc.c ****                     PCCARD Controller functions
 570:libs/STM32F4xx_StdPeriph_Driver/src/stm32f4xx_fsmc.c ****  ===============================================================================  
 571:libs/STM32F4xx_StdPeriph_Driver/src/stm32f4xx_fsmc.c **** 
 572:libs/STM32F4xx_StdPeriph_Driver/src/stm32f4xx_fsmc.c ****  The following sequence should be followed to configure the FSMC to interface with
 573:libs/STM32F4xx_StdPeriph_Driver/src/stm32f4xx_fsmc.c ****  16-bit PC Card compatible memory connected to the PCCARD Bank:
 574:libs/STM32F4xx_StdPeriph_Driver/src/stm32f4xx_fsmc.c ****  
 575:libs/STM32F4xx_StdPeriph_Driver/src/stm32f4xx_fsmc.c ****    1. Enable the clock for the FSMC and associated GPIOs using the following functions:
 576:libs/STM32F4xx_StdPeriph_Driver/src/stm32f4xx_fsmc.c ****           RCC_AHB3PeriphClockCmd(RCC_AHB3Periph_FSMC, ENABLE);
 577:libs/STM32F4xx_StdPeriph_Driver/src/stm32f4xx_fsmc.c ****           RCC_AHB1PeriphClockCmd(RCC_AHB1Periph_GPIOx, ENABLE);
 578:libs/STM32F4xx_StdPeriph_Driver/src/stm32f4xx_fsmc.c **** 
 579:libs/STM32F4xx_StdPeriph_Driver/src/stm32f4xx_fsmc.c ****    2. FSMC pins configuration 
 580:libs/STM32F4xx_StdPeriph_Driver/src/stm32f4xx_fsmc.c ****        - Connect the involved FSMC pins to AF12 using the following function 
 581:libs/STM32F4xx_StdPeriph_Driver/src/stm32f4xx_fsmc.c ****           GPIO_PinAFConfig(GPIOx, GPIO_PinSourcex, GPIO_AF_FSMC); 
 582:libs/STM32F4xx_StdPeriph_Driver/src/stm32f4xx_fsmc.c ****        - Configure these FSMC pins in alternate function mode by calling the function
 583:libs/STM32F4xx_StdPeriph_Driver/src/stm32f4xx_fsmc.c ****           GPIO_Init();    
 584:libs/STM32F4xx_StdPeriph_Driver/src/stm32f4xx_fsmc.c ****        
 585:libs/STM32F4xx_StdPeriph_Driver/src/stm32f4xx_fsmc.c ****    3. Declare a FSMC_PCCARDInitTypeDef structure, for example:
 586:libs/STM32F4xx_StdPeriph_Driver/src/stm32f4xx_fsmc.c ****           FSMC_PCCARDInitTypeDef  FSMC_PCCARDInitStructure;
 587:libs/STM32F4xx_StdPeriph_Driver/src/stm32f4xx_fsmc.c ****       and fill the FSMC_PCCARDInitStructure variable with the allowed values of
 588:libs/STM32F4xx_StdPeriph_Driver/src/stm32f4xx_fsmc.c ****       the structure member.
 589:libs/STM32F4xx_StdPeriph_Driver/src/stm32f4xx_fsmc.c ****       
 590:libs/STM32F4xx_StdPeriph_Driver/src/stm32f4xx_fsmc.c ****    4. Initialize the PCCARD Controller by calling the function
 591:libs/STM32F4xx_StdPeriph_Driver/src/stm32f4xx_fsmc.c ****           FSMC_PCCARDInit(&FSMC_PCCARDInitStructure); 
 592:libs/STM32F4xx_StdPeriph_Driver/src/stm32f4xx_fsmc.c **** 
 593:libs/STM32F4xx_StdPeriph_Driver/src/stm32f4xx_fsmc.c ****    5. Then enable the PCCARD Bank:
 594:libs/STM32F4xx_StdPeriph_Driver/src/stm32f4xx_fsmc.c ****           FSMC_PCCARDCmd(ENABLE);  
 595:libs/STM32F4xx_StdPeriph_Driver/src/stm32f4xx_fsmc.c **** 
 596:libs/STM32F4xx_StdPeriph_Driver/src/stm32f4xx_fsmc.c ****    6. At this stage you can read/write from/to the memory connected to the PCCARD Bank. 
 597:libs/STM32F4xx_StdPeriph_Driver/src/stm32f4xx_fsmc.c ****  
 598:libs/STM32F4xx_StdPeriph_Driver/src/stm32f4xx_fsmc.c **** @endverbatim
 599:libs/STM32F4xx_StdPeriph_Driver/src/stm32f4xx_fsmc.c ****   * @{
 600:libs/STM32F4xx_StdPeriph_Driver/src/stm32f4xx_fsmc.c ****   */
 601:libs/STM32F4xx_StdPeriph_Driver/src/stm32f4xx_fsmc.c **** 
 602:libs/STM32F4xx_StdPeriph_Driver/src/stm32f4xx_fsmc.c **** /**
 603:libs/STM32F4xx_StdPeriph_Driver/src/stm32f4xx_fsmc.c ****   * @brief  Deinitializes the FSMC PCCARD Bank registers to their default reset values.
 604:libs/STM32F4xx_StdPeriph_Driver/src/stm32f4xx_fsmc.c ****   * @param  None                       
 605:libs/STM32F4xx_StdPeriph_Driver/src/stm32f4xx_fsmc.c ****   * @retval None
 606:libs/STM32F4xx_StdPeriph_Driver/src/stm32f4xx_fsmc.c ****   */
 607:libs/STM32F4xx_StdPeriph_Driver/src/stm32f4xx_fsmc.c **** void FSMC_PCCARDDeInit(void)
 608:libs/STM32F4xx_StdPeriph_Driver/src/stm32f4xx_fsmc.c **** {
 681              		.loc 1 608 0
 682              		.cfi_startproc
 683              		@ args = 0, pretend = 0, frame = 0
 684              		@ frame_needed = 0, uses_anonymous_args = 0
 685              		@ link register save eliminated.
 609:libs/STM32F4xx_StdPeriph_Driver/src/stm32f4xx_fsmc.c ****   /* Set the FSMC_Bank4 registers to their reset values */
 610:libs/STM32F4xx_StdPeriph_Driver/src/stm32f4xx_fsmc.c ****   FSMC_Bank4->PCR4 = 0x00000018; 
 686              		.loc 1 610 0
 687 0000 A023     		movs	r3, #160
 688 0002 CAF20003 		movt	r3, 40960
 689 0006 1822     		movs	r2, #24
 690 0008 1A60     		str	r2, [r3]
 611:libs/STM32F4xx_StdPeriph_Driver/src/stm32f4xx_fsmc.c ****   FSMC_Bank4->SR4 = 0x00000000;	
 691              		.loc 1 611 0
 692 000a 0022     		movs	r2, #0
 693 000c 5A60     		str	r2, [r3, #4]
 612:libs/STM32F4xx_StdPeriph_Driver/src/stm32f4xx_fsmc.c ****   FSMC_Bank4->PMEM4 = 0xFCFCFCFC;
 694              		.loc 1 612 0
 695 000e 4FF0FC32 		mov	r2, #-50529028
 696 0012 9A60     		str	r2, [r3, #8]
 613:libs/STM32F4xx_StdPeriph_Driver/src/stm32f4xx_fsmc.c ****   FSMC_Bank4->PATT4 = 0xFCFCFCFC;
 697              		.loc 1 613 0
 698 0014 DA60     		str	r2, [r3, #12]
 614:libs/STM32F4xx_StdPeriph_Driver/src/stm32f4xx_fsmc.c ****   FSMC_Bank4->PIO4 = 0xFCFCFCFC;
 699              		.loc 1 614 0
 700 0016 1A61     		str	r2, [r3, #16]
 701 0018 7047     		bx	lr
 702              		.cfi_endproc
 703              	.LFE120:
 705 001a 00BF     		.section	.text.FSMC_PCCARDInit,"ax",%progbits
 706              		.align	2
 707              		.global	FSMC_PCCARDInit
 708              		.thumb
 709              		.thumb_func
 711              	FSMC_PCCARDInit:
 712              	.LFB121:
 615:libs/STM32F4xx_StdPeriph_Driver/src/stm32f4xx_fsmc.c **** }
 616:libs/STM32F4xx_StdPeriph_Driver/src/stm32f4xx_fsmc.c **** 
 617:libs/STM32F4xx_StdPeriph_Driver/src/stm32f4xx_fsmc.c **** /**
 618:libs/STM32F4xx_StdPeriph_Driver/src/stm32f4xx_fsmc.c ****   * @brief  Initializes the FSMC PCCARD Bank according to the specified parameters
 619:libs/STM32F4xx_StdPeriph_Driver/src/stm32f4xx_fsmc.c ****   *         in the FSMC_PCCARDInitStruct.
 620:libs/STM32F4xx_StdPeriph_Driver/src/stm32f4xx_fsmc.c ****   * @param  FSMC_PCCARDInitStruct : pointer to a FSMC_PCCARDInitTypeDef structure
 621:libs/STM32F4xx_StdPeriph_Driver/src/stm32f4xx_fsmc.c ****   *         that contains the configuration information for the FSMC PCCARD Bank.                  
 622:libs/STM32F4xx_StdPeriph_Driver/src/stm32f4xx_fsmc.c ****   * @retval None
 623:libs/STM32F4xx_StdPeriph_Driver/src/stm32f4xx_fsmc.c ****   */
 624:libs/STM32F4xx_StdPeriph_Driver/src/stm32f4xx_fsmc.c **** void FSMC_PCCARDInit(FSMC_PCCARDInitTypeDef* FSMC_PCCARDInitStruct)
 625:libs/STM32F4xx_StdPeriph_Driver/src/stm32f4xx_fsmc.c **** {
 713              		.loc 1 625 0
 714              		.cfi_startproc
 715              		@ args = 0, pretend = 0, frame = 0
 716              		@ frame_needed = 0, uses_anonymous_args = 0
 717              		@ link register save eliminated.
 718              	.LVL21:
 719 0000 10B4     		push	{r4}
 720              	.LCFI3:
 721              		.cfi_def_cfa_offset 4
 722              		.cfi_offset 4, -4
 626:libs/STM32F4xx_StdPeriph_Driver/src/stm32f4xx_fsmc.c ****   /* Check the parameters */
 627:libs/STM32F4xx_StdPeriph_Driver/src/stm32f4xx_fsmc.c ****   assert_param(IS_FSMC_WAIT_FEATURE(FSMC_PCCARDInitStruct->FSMC_Waitfeature));
 628:libs/STM32F4xx_StdPeriph_Driver/src/stm32f4xx_fsmc.c ****   assert_param(IS_FSMC_TCLR_TIME(FSMC_PCCARDInitStruct->FSMC_TCLRSetupTime));
 629:libs/STM32F4xx_StdPeriph_Driver/src/stm32f4xx_fsmc.c ****   assert_param(IS_FSMC_TAR_TIME(FSMC_PCCARDInitStruct->FSMC_TARSetupTime));
 630:libs/STM32F4xx_StdPeriph_Driver/src/stm32f4xx_fsmc.c ****  
 631:libs/STM32F4xx_StdPeriph_Driver/src/stm32f4xx_fsmc.c ****   assert_param(IS_FSMC_SETUP_TIME(FSMC_PCCARDInitStruct->FSMC_CommonSpaceTimingStruct->FSMC_SetupTi
 632:libs/STM32F4xx_StdPeriph_Driver/src/stm32f4xx_fsmc.c ****   assert_param(IS_FSMC_WAIT_TIME(FSMC_PCCARDInitStruct->FSMC_CommonSpaceTimingStruct->FSMC_WaitSetu
 633:libs/STM32F4xx_StdPeriph_Driver/src/stm32f4xx_fsmc.c ****   assert_param(IS_FSMC_HOLD_TIME(FSMC_PCCARDInitStruct->FSMC_CommonSpaceTimingStruct->FSMC_HoldSetu
 634:libs/STM32F4xx_StdPeriph_Driver/src/stm32f4xx_fsmc.c ****   assert_param(IS_FSMC_HIZ_TIME(FSMC_PCCARDInitStruct->FSMC_CommonSpaceTimingStruct->FSMC_HiZSetupT
 635:libs/STM32F4xx_StdPeriph_Driver/src/stm32f4xx_fsmc.c ****   
 636:libs/STM32F4xx_StdPeriph_Driver/src/stm32f4xx_fsmc.c ****   assert_param(IS_FSMC_SETUP_TIME(FSMC_PCCARDInitStruct->FSMC_AttributeSpaceTimingStruct->FSMC_Setu
 637:libs/STM32F4xx_StdPeriph_Driver/src/stm32f4xx_fsmc.c ****   assert_param(IS_FSMC_WAIT_TIME(FSMC_PCCARDInitStruct->FSMC_AttributeSpaceTimingStruct->FSMC_WaitS
 638:libs/STM32F4xx_StdPeriph_Driver/src/stm32f4xx_fsmc.c ****   assert_param(IS_FSMC_HOLD_TIME(FSMC_PCCARDInitStruct->FSMC_AttributeSpaceTimingStruct->FSMC_HoldS
 639:libs/STM32F4xx_StdPeriph_Driver/src/stm32f4xx_fsmc.c ****   assert_param(IS_FSMC_HIZ_TIME(FSMC_PCCARDInitStruct->FSMC_AttributeSpaceTimingStruct->FSMC_HiZSet
 640:libs/STM32F4xx_StdPeriph_Driver/src/stm32f4xx_fsmc.c ****   assert_param(IS_FSMC_SETUP_TIME(FSMC_PCCARDInitStruct->FSMC_IOSpaceTimingStruct->FSMC_SetupTime))
 641:libs/STM32F4xx_StdPeriph_Driver/src/stm32f4xx_fsmc.c ****   assert_param(IS_FSMC_WAIT_TIME(FSMC_PCCARDInitStruct->FSMC_IOSpaceTimingStruct->FSMC_WaitSetupTim
 642:libs/STM32F4xx_StdPeriph_Driver/src/stm32f4xx_fsmc.c ****   assert_param(IS_FSMC_HOLD_TIME(FSMC_PCCARDInitStruct->FSMC_IOSpaceTimingStruct->FSMC_HoldSetupTim
 643:libs/STM32F4xx_StdPeriph_Driver/src/stm32f4xx_fsmc.c ****   assert_param(IS_FSMC_HIZ_TIME(FSMC_PCCARDInitStruct->FSMC_IOSpaceTimingStruct->FSMC_HiZSetupTime)
 644:libs/STM32F4xx_StdPeriph_Driver/src/stm32f4xx_fsmc.c ****   
 645:libs/STM32F4xx_StdPeriph_Driver/src/stm32f4xx_fsmc.c ****   /* Set the PCR4 register value according to FSMC_PCCARDInitStruct parameters */
 646:libs/STM32F4xx_StdPeriph_Driver/src/stm32f4xx_fsmc.c ****   FSMC_Bank4->PCR4 = (uint32_t)FSMC_PCCARDInitStruct->FSMC_Waitfeature |
 723              		.loc 1 646 0
 724 0002 0368     		ldr	r3, [r0]
 647:libs/STM32F4xx_StdPeriph_Driver/src/stm32f4xx_fsmc.c ****                      FSMC_MemoryDataWidth_16b |  
 648:libs/STM32F4xx_StdPeriph_Driver/src/stm32f4xx_fsmc.c ****                      (FSMC_PCCARDInitStruct->FSMC_TCLRSetupTime << 9) |
 725              		.loc 1 648 0
 726 0004 4268     		ldr	r2, [r0, #4]
 647:libs/STM32F4xx_StdPeriph_Driver/src/stm32f4xx_fsmc.c ****                      FSMC_MemoryDataWidth_16b |  
 727              		.loc 1 647 0
 728 0006 43EA4222 		orr	r2, r3, r2, lsl #9
 649:libs/STM32F4xx_StdPeriph_Driver/src/stm32f4xx_fsmc.c ****                      (FSMC_PCCARDInitStruct->FSMC_TARSetupTime << 13);
 729              		.loc 1 649 0
 730 000a 8368     		ldr	r3, [r0, #8]
 648:libs/STM32F4xx_StdPeriph_Driver/src/stm32f4xx_fsmc.c ****                      (FSMC_PCCARDInitStruct->FSMC_TARSetupTime << 13);
 731              		.loc 1 648 0
 732 000c 42EA4333 		orr	r3, r2, r3, lsl #13
 733 0010 43F01002 		orr	r2, r3, #16
 646:libs/STM32F4xx_StdPeriph_Driver/src/stm32f4xx_fsmc.c ****                      FSMC_MemoryDataWidth_16b |  
 734              		.loc 1 646 0
 735 0014 A023     		movs	r3, #160
 736 0016 CAF20003 		movt	r3, 40960
 737 001a 1A60     		str	r2, [r3]
 650:libs/STM32F4xx_StdPeriph_Driver/src/stm32f4xx_fsmc.c ****             
 651:libs/STM32F4xx_StdPeriph_Driver/src/stm32f4xx_fsmc.c ****   /* Set PMEM4 register value according to FSMC_CommonSpaceTimingStructure parameters */
 652:libs/STM32F4xx_StdPeriph_Driver/src/stm32f4xx_fsmc.c ****   FSMC_Bank4->PMEM4 = (uint32_t)FSMC_PCCARDInitStruct->FSMC_CommonSpaceTimingStruct->FSMC_SetupTime
 738              		.loc 1 652 0
 739 001c C268     		ldr	r2, [r0, #12]
 740 001e 1168     		ldr	r1, [r2]
 653:libs/STM32F4xx_StdPeriph_Driver/src/stm32f4xx_fsmc.c ****                       (FSMC_PCCARDInitStruct->FSMC_CommonSpaceTimingStruct->FSMC_WaitSetupTime << 8
 741              		.loc 1 653 0
 742 0020 5468     		ldr	r4, [r2, #4]
 652:libs/STM32F4xx_StdPeriph_Driver/src/stm32f4xx_fsmc.c ****                       (FSMC_PCCARDInitStruct->FSMC_CommonSpaceTimingStruct->FSMC_WaitSetupTime << 8
 743              		.loc 1 652 0
 744 0022 41EA0424 		orr	r4, r1, r4, lsl #8
 654:libs/STM32F4xx_StdPeriph_Driver/src/stm32f4xx_fsmc.c ****                       (FSMC_PCCARDInitStruct->FSMC_CommonSpaceTimingStruct->FSMC_HoldSetupTime << 1
 745              		.loc 1 654 0
 746 0026 9168     		ldr	r1, [r2, #8]
 653:libs/STM32F4xx_StdPeriph_Driver/src/stm32f4xx_fsmc.c ****                       (FSMC_PCCARDInitStruct->FSMC_CommonSpaceTimingStruct->FSMC_WaitSetupTime << 8
 747              		.loc 1 653 0
 748 0028 44EA0141 		orr	r1, r4, r1, lsl #16
 655:libs/STM32F4xx_StdPeriph_Driver/src/stm32f4xx_fsmc.c ****                       (FSMC_PCCARDInitStruct->FSMC_CommonSpaceTimingStruct->FSMC_HiZSetupTime << 24
 749              		.loc 1 655 0
 750 002c D468     		ldr	r4, [r2, #12]
 654:libs/STM32F4xx_StdPeriph_Driver/src/stm32f4xx_fsmc.c ****                       (FSMC_PCCARDInitStruct->FSMC_CommonSpaceTimingStruct->FSMC_HoldSetupTime << 1
 751              		.loc 1 654 0
 752 002e 41EA0461 		orr	r1, r1, r4, lsl #24
 652:libs/STM32F4xx_StdPeriph_Driver/src/stm32f4xx_fsmc.c ****                       (FSMC_PCCARDInitStruct->FSMC_CommonSpaceTimingStruct->FSMC_WaitSetupTime << 8
 753              		.loc 1 652 0
 754 0032 9960     		str	r1, [r3, #8]
 656:libs/STM32F4xx_StdPeriph_Driver/src/stm32f4xx_fsmc.c ****             
 657:libs/STM32F4xx_StdPeriph_Driver/src/stm32f4xx_fsmc.c ****   /* Set PATT4 register value according to FSMC_AttributeSpaceTimingStructure parameters */
 658:libs/STM32F4xx_StdPeriph_Driver/src/stm32f4xx_fsmc.c ****   FSMC_Bank4->PATT4 = (uint32_t)FSMC_PCCARDInitStruct->FSMC_AttributeSpaceTimingStruct->FSMC_SetupT
 755              		.loc 1 658 0
 756 0034 0269     		ldr	r2, [r0, #16]
 757 0036 1168     		ldr	r1, [r2]
 659:libs/STM32F4xx_StdPeriph_Driver/src/stm32f4xx_fsmc.c ****                       (FSMC_PCCARDInitStruct->FSMC_AttributeSpaceTimingStruct->FSMC_WaitSetupTime <
 758              		.loc 1 659 0
 759 0038 5468     		ldr	r4, [r2, #4]
 658:libs/STM32F4xx_StdPeriph_Driver/src/stm32f4xx_fsmc.c ****                       (FSMC_PCCARDInitStruct->FSMC_AttributeSpaceTimingStruct->FSMC_WaitSetupTime <
 760              		.loc 1 658 0
 761 003a 41EA0424 		orr	r4, r1, r4, lsl #8
 660:libs/STM32F4xx_StdPeriph_Driver/src/stm32f4xx_fsmc.c ****                       (FSMC_PCCARDInitStruct->FSMC_AttributeSpaceTimingStruct->FSMC_HoldSetupTime <
 762              		.loc 1 660 0
 763 003e 9168     		ldr	r1, [r2, #8]
 659:libs/STM32F4xx_StdPeriph_Driver/src/stm32f4xx_fsmc.c ****                       (FSMC_PCCARDInitStruct->FSMC_AttributeSpaceTimingStruct->FSMC_WaitSetupTime <
 764              		.loc 1 659 0
 765 0040 44EA0141 		orr	r1, r4, r1, lsl #16
 661:libs/STM32F4xx_StdPeriph_Driver/src/stm32f4xx_fsmc.c ****                       (FSMC_PCCARDInitStruct->FSMC_AttributeSpaceTimingStruct->FSMC_HiZSetupTime <<
 766              		.loc 1 661 0
 767 0044 D468     		ldr	r4, [r2, #12]
 660:libs/STM32F4xx_StdPeriph_Driver/src/stm32f4xx_fsmc.c ****                       (FSMC_PCCARDInitStruct->FSMC_AttributeSpaceTimingStruct->FSMC_HoldSetupTime <
 768              		.loc 1 660 0
 769 0046 41EA0461 		orr	r1, r1, r4, lsl #24
 658:libs/STM32F4xx_StdPeriph_Driver/src/stm32f4xx_fsmc.c ****                       (FSMC_PCCARDInitStruct->FSMC_AttributeSpaceTimingStruct->FSMC_WaitSetupTime <
 770              		.loc 1 658 0
 771 004a D960     		str	r1, [r3, #12]
 662:libs/STM32F4xx_StdPeriph_Driver/src/stm32f4xx_fsmc.c ****             
 663:libs/STM32F4xx_StdPeriph_Driver/src/stm32f4xx_fsmc.c ****   /* Set PIO4 register value according to FSMC_IOSpaceTimingStructure parameters */
 664:libs/STM32F4xx_StdPeriph_Driver/src/stm32f4xx_fsmc.c ****   FSMC_Bank4->PIO4 = (uint32_t)FSMC_PCCARDInitStruct->FSMC_IOSpaceTimingStruct->FSMC_SetupTime |
 772              		.loc 1 664 0
 773 004c 4269     		ldr	r2, [r0, #20]
 774 004e 1168     		ldr	r1, [r2]
 665:libs/STM32F4xx_StdPeriph_Driver/src/stm32f4xx_fsmc.c ****                      (FSMC_PCCARDInitStruct->FSMC_IOSpaceTimingStruct->FSMC_WaitSetupTime << 8) |
 775              		.loc 1 665 0
 776 0050 5068     		ldr	r0, [r2, #4]
 777              	.LVL22:
 664:libs/STM32F4xx_StdPeriph_Driver/src/stm32f4xx_fsmc.c ****                      (FSMC_PCCARDInitStruct->FSMC_IOSpaceTimingStruct->FSMC_WaitSetupTime << 8) |
 778              		.loc 1 664 0
 779 0052 41EA0020 		orr	r0, r1, r0, lsl #8
 666:libs/STM32F4xx_StdPeriph_Driver/src/stm32f4xx_fsmc.c ****                      (FSMC_PCCARDInitStruct->FSMC_IOSpaceTimingStruct->FSMC_HoldSetupTime << 16)|
 780              		.loc 1 666 0
 781 0056 9168     		ldr	r1, [r2, #8]
 665:libs/STM32F4xx_StdPeriph_Driver/src/stm32f4xx_fsmc.c ****                      (FSMC_PCCARDInitStruct->FSMC_IOSpaceTimingStruct->FSMC_WaitSetupTime << 8) |
 782              		.loc 1 665 0
 783 0058 40EA0141 		orr	r1, r0, r1, lsl #16
 667:libs/STM32F4xx_StdPeriph_Driver/src/stm32f4xx_fsmc.c ****                      (FSMC_PCCARDInitStruct->FSMC_IOSpaceTimingStruct->FSMC_HiZSetupTime << 24);   
 784              		.loc 1 667 0
 785 005c D068     		ldr	r0, [r2, #12]
 666:libs/STM32F4xx_StdPeriph_Driver/src/stm32f4xx_fsmc.c ****                      (FSMC_PCCARDInitStruct->FSMC_IOSpaceTimingStruct->FSMC_HoldSetupTime << 16)|
 786              		.loc 1 666 0
 787 005e 41EA0061 		orr	r1, r1, r0, lsl #24
 664:libs/STM32F4xx_StdPeriph_Driver/src/stm32f4xx_fsmc.c ****                      (FSMC_PCCARDInitStruct->FSMC_IOSpaceTimingStruct->FSMC_WaitSetupTime << 8) |
 788              		.loc 1 664 0
 789 0062 1961     		str	r1, [r3, #16]
 668:libs/STM32F4xx_StdPeriph_Driver/src/stm32f4xx_fsmc.c **** }
 790              		.loc 1 668 0
 791 0064 5DF8044B 		ldr	r4, [sp], #4
 792 0068 7047     		bx	lr
 793              		.cfi_endproc
 794              	.LFE121:
 796 006a 00BF     		.section	.text.FSMC_PCCARDStructInit,"ax",%progbits
 797              		.align	2
 798              		.global	FSMC_PCCARDStructInit
 799              		.thumb
 800              		.thumb_func
 802              	FSMC_PCCARDStructInit:
 803              	.LFB122:
 669:libs/STM32F4xx_StdPeriph_Driver/src/stm32f4xx_fsmc.c **** 
 670:libs/STM32F4xx_StdPeriph_Driver/src/stm32f4xx_fsmc.c **** /**
 671:libs/STM32F4xx_StdPeriph_Driver/src/stm32f4xx_fsmc.c ****   * @brief  Fills each FSMC_PCCARDInitStruct member with its default value.
 672:libs/STM32F4xx_StdPeriph_Driver/src/stm32f4xx_fsmc.c ****   * @param  FSMC_PCCARDInitStruct: pointer to a FSMC_PCCARDInitTypeDef structure
 673:libs/STM32F4xx_StdPeriph_Driver/src/stm32f4xx_fsmc.c ****   *         which will be initialized.
 674:libs/STM32F4xx_StdPeriph_Driver/src/stm32f4xx_fsmc.c ****   * @retval None
 675:libs/STM32F4xx_StdPeriph_Driver/src/stm32f4xx_fsmc.c ****   */
 676:libs/STM32F4xx_StdPeriph_Driver/src/stm32f4xx_fsmc.c **** void FSMC_PCCARDStructInit(FSMC_PCCARDInitTypeDef* FSMC_PCCARDInitStruct)
 677:libs/STM32F4xx_StdPeriph_Driver/src/stm32f4xx_fsmc.c **** {
 804              		.loc 1 677 0
 805              		.cfi_startproc
 806              		@ args = 0, pretend = 0, frame = 0
 807              		@ frame_needed = 0, uses_anonymous_args = 0
 808              		@ link register save eliminated.
 809              	.LVL23:
 678:libs/STM32F4xx_StdPeriph_Driver/src/stm32f4xx_fsmc.c ****   /* Reset PCCARD Init structure parameters values */
 679:libs/STM32F4xx_StdPeriph_Driver/src/stm32f4xx_fsmc.c ****   FSMC_PCCARDInitStruct->FSMC_Waitfeature = FSMC_Waitfeature_Disable;
 810              		.loc 1 679 0
 811 0000 0023     		movs	r3, #0
 812 0002 0360     		str	r3, [r0]
 680:libs/STM32F4xx_StdPeriph_Driver/src/stm32f4xx_fsmc.c ****   FSMC_PCCARDInitStruct->FSMC_TCLRSetupTime = 0x0;
 813              		.loc 1 680 0
 814 0004 4360     		str	r3, [r0, #4]
 681:libs/STM32F4xx_StdPeriph_Driver/src/stm32f4xx_fsmc.c ****   FSMC_PCCARDInitStruct->FSMC_TARSetupTime = 0x0;
 815              		.loc 1 681 0
 816 0006 8360     		str	r3, [r0, #8]
 682:libs/STM32F4xx_StdPeriph_Driver/src/stm32f4xx_fsmc.c ****   FSMC_PCCARDInitStruct->FSMC_CommonSpaceTimingStruct->FSMC_SetupTime = 0xFC;
 817              		.loc 1 682 0
 818 0008 C268     		ldr	r2, [r0, #12]
 819 000a FC23     		movs	r3, #252
 820 000c 1360     		str	r3, [r2]
 683:libs/STM32F4xx_StdPeriph_Driver/src/stm32f4xx_fsmc.c ****   FSMC_PCCARDInitStruct->FSMC_CommonSpaceTimingStruct->FSMC_WaitSetupTime = 0xFC;
 821              		.loc 1 683 0
 822 000e C268     		ldr	r2, [r0, #12]
 823 0010 5360     		str	r3, [r2, #4]
 684:libs/STM32F4xx_StdPeriph_Driver/src/stm32f4xx_fsmc.c ****   FSMC_PCCARDInitStruct->FSMC_CommonSpaceTimingStruct->FSMC_HoldSetupTime = 0xFC;
 824              		.loc 1 684 0
 825 0012 C268     		ldr	r2, [r0, #12]
 826 0014 9360     		str	r3, [r2, #8]
 685:libs/STM32F4xx_StdPeriph_Driver/src/stm32f4xx_fsmc.c ****   FSMC_PCCARDInitStruct->FSMC_CommonSpaceTimingStruct->FSMC_HiZSetupTime = 0xFC;
 827              		.loc 1 685 0
 828 0016 C268     		ldr	r2, [r0, #12]
 829 0018 D360     		str	r3, [r2, #12]
 686:libs/STM32F4xx_StdPeriph_Driver/src/stm32f4xx_fsmc.c ****   FSMC_PCCARDInitStruct->FSMC_AttributeSpaceTimingStruct->FSMC_SetupTime = 0xFC;
 830              		.loc 1 686 0
 831 001a 0269     		ldr	r2, [r0, #16]
 832 001c 1360     		str	r3, [r2]
 687:libs/STM32F4xx_StdPeriph_Driver/src/stm32f4xx_fsmc.c ****   FSMC_PCCARDInitStruct->FSMC_AttributeSpaceTimingStruct->FSMC_WaitSetupTime = 0xFC;
 833              		.loc 1 687 0
 834 001e 0269     		ldr	r2, [r0, #16]
 835 0020 5360     		str	r3, [r2, #4]
 688:libs/STM32F4xx_StdPeriph_Driver/src/stm32f4xx_fsmc.c ****   FSMC_PCCARDInitStruct->FSMC_AttributeSpaceTimingStruct->FSMC_HoldSetupTime = 0xFC;
 836              		.loc 1 688 0
 837 0022 0269     		ldr	r2, [r0, #16]
 838 0024 9360     		str	r3, [r2, #8]
 689:libs/STM32F4xx_StdPeriph_Driver/src/stm32f4xx_fsmc.c ****   FSMC_PCCARDInitStruct->FSMC_AttributeSpaceTimingStruct->FSMC_HiZSetupTime = 0xFC;	
 839              		.loc 1 689 0
 840 0026 0269     		ldr	r2, [r0, #16]
 841 0028 D360     		str	r3, [r2, #12]
 690:libs/STM32F4xx_StdPeriph_Driver/src/stm32f4xx_fsmc.c ****   FSMC_PCCARDInitStruct->FSMC_IOSpaceTimingStruct->FSMC_SetupTime = 0xFC;
 842              		.loc 1 690 0
 843 002a 4269     		ldr	r2, [r0, #20]
 844 002c 1360     		str	r3, [r2]
 691:libs/STM32F4xx_StdPeriph_Driver/src/stm32f4xx_fsmc.c ****   FSMC_PCCARDInitStruct->FSMC_IOSpaceTimingStruct->FSMC_WaitSetupTime = 0xFC;
 845              		.loc 1 691 0
 846 002e 4269     		ldr	r2, [r0, #20]
 847 0030 5360     		str	r3, [r2, #4]
 692:libs/STM32F4xx_StdPeriph_Driver/src/stm32f4xx_fsmc.c ****   FSMC_PCCARDInitStruct->FSMC_IOSpaceTimingStruct->FSMC_HoldSetupTime = 0xFC;
 848              		.loc 1 692 0
 849 0032 4269     		ldr	r2, [r0, #20]
 850 0034 9360     		str	r3, [r2, #8]
 693:libs/STM32F4xx_StdPeriph_Driver/src/stm32f4xx_fsmc.c ****   FSMC_PCCARDInitStruct->FSMC_IOSpaceTimingStruct->FSMC_HiZSetupTime = 0xFC;
 851              		.loc 1 693 0
 852 0036 4269     		ldr	r2, [r0, #20]
 853 0038 D360     		str	r3, [r2, #12]
 854 003a 7047     		bx	lr
 855              		.cfi_endproc
 856              	.LFE122:
 858              		.section	.text.FSMC_PCCARDCmd,"ax",%progbits
 859              		.align	2
 860              		.global	FSMC_PCCARDCmd
 861              		.thumb
 862              		.thumb_func
 864              	FSMC_PCCARDCmd:
 865              	.LFB123:
 694:libs/STM32F4xx_StdPeriph_Driver/src/stm32f4xx_fsmc.c **** }
 695:libs/STM32F4xx_StdPeriph_Driver/src/stm32f4xx_fsmc.c **** 
 696:libs/STM32F4xx_StdPeriph_Driver/src/stm32f4xx_fsmc.c **** /**
 697:libs/STM32F4xx_StdPeriph_Driver/src/stm32f4xx_fsmc.c ****   * @brief  Enables or disables the PCCARD Memory Bank.
 698:libs/STM32F4xx_StdPeriph_Driver/src/stm32f4xx_fsmc.c ****   * @param  NewState: new state of the PCCARD Memory Bank.  
 699:libs/STM32F4xx_StdPeriph_Driver/src/stm32f4xx_fsmc.c ****   *          This parameter can be: ENABLE or DISABLE.
 700:libs/STM32F4xx_StdPeriph_Driver/src/stm32f4xx_fsmc.c ****   * @retval None
 701:libs/STM32F4xx_StdPeriph_Driver/src/stm32f4xx_fsmc.c ****   */
 702:libs/STM32F4xx_StdPeriph_Driver/src/stm32f4xx_fsmc.c **** void FSMC_PCCARDCmd(FunctionalState NewState)
 703:libs/STM32F4xx_StdPeriph_Driver/src/stm32f4xx_fsmc.c **** {
 866              		.loc 1 703 0
 867              		.cfi_startproc
 868              		@ args = 0, pretend = 0, frame = 0
 869              		@ frame_needed = 0, uses_anonymous_args = 0
 870              		@ link register save eliminated.
 871              	.LVL24:
 704:libs/STM32F4xx_StdPeriph_Driver/src/stm32f4xx_fsmc.c ****   assert_param(IS_FUNCTIONAL_STATE(NewState));
 705:libs/STM32F4xx_StdPeriph_Driver/src/stm32f4xx_fsmc.c ****   
 706:libs/STM32F4xx_StdPeriph_Driver/src/stm32f4xx_fsmc.c ****   if (NewState != DISABLE)
 872              		.loc 1 706 0
 873 0000 38B1     		cbz	r0, .L36
 707:libs/STM32F4xx_StdPeriph_Driver/src/stm32f4xx_fsmc.c ****   {
 708:libs/STM32F4xx_StdPeriph_Driver/src/stm32f4xx_fsmc.c ****     /* Enable the PCCARD Bank by setting the PBKEN bit in the PCR4 register */
 709:libs/STM32F4xx_StdPeriph_Driver/src/stm32f4xx_fsmc.c ****     FSMC_Bank4->PCR4 |= PCR_PBKEN_SET;
 874              		.loc 1 709 0
 875 0002 A023     		movs	r3, #160
 876 0004 CAF20003 		movt	r3, 40960
 877 0008 1A68     		ldr	r2, [r3]
 878 000a 42F00402 		orr	r2, r2, #4
 879 000e 1A60     		str	r2, [r3]
 880 0010 7047     		bx	lr
 881              	.L36:
 710:libs/STM32F4xx_StdPeriph_Driver/src/stm32f4xx_fsmc.c ****   }
 711:libs/STM32F4xx_StdPeriph_Driver/src/stm32f4xx_fsmc.c ****   else
 712:libs/STM32F4xx_StdPeriph_Driver/src/stm32f4xx_fsmc.c ****   {
 713:libs/STM32F4xx_StdPeriph_Driver/src/stm32f4xx_fsmc.c ****     /* Disable the PCCARD Bank by clearing the PBKEN bit in the PCR4 register */
 714:libs/STM32F4xx_StdPeriph_Driver/src/stm32f4xx_fsmc.c ****     FSMC_Bank4->PCR4 &= PCR_PBKEN_RESET;
 882              		.loc 1 714 0
 883 0012 A022     		movs	r2, #160
 884 0014 CAF20002 		movt	r2, 40960
 885 0018 1168     		ldr	r1, [r2]
 886 001a 4FF6FB73 		movw	r3, #65531
 887 001e C0F20F03 		movt	r3, 15
 888 0022 0B40     		ands	r3, r3, r1
 889 0024 1360     		str	r3, [r2]
 890 0026 7047     		bx	lr
 891              		.cfi_endproc
 892              	.LFE123:
 894              		.section	.text.FSMC_ITConfig,"ax",%progbits
 895              		.align	2
 896              		.global	FSMC_ITConfig
 897              		.thumb
 898              		.thumb_func
 900              	FSMC_ITConfig:
 901              	.LFB124:
 715:libs/STM32F4xx_StdPeriph_Driver/src/stm32f4xx_fsmc.c ****   }
 716:libs/STM32F4xx_StdPeriph_Driver/src/stm32f4xx_fsmc.c **** }
 717:libs/STM32F4xx_StdPeriph_Driver/src/stm32f4xx_fsmc.c **** /**
 718:libs/STM32F4xx_StdPeriph_Driver/src/stm32f4xx_fsmc.c ****   * @}
 719:libs/STM32F4xx_StdPeriph_Driver/src/stm32f4xx_fsmc.c ****   */
 720:libs/STM32F4xx_StdPeriph_Driver/src/stm32f4xx_fsmc.c **** 
 721:libs/STM32F4xx_StdPeriph_Driver/src/stm32f4xx_fsmc.c **** /** @defgroup FSMC_Group4  Interrupts and flags management functions
 722:libs/STM32F4xx_StdPeriph_Driver/src/stm32f4xx_fsmc.c ****  *  @brief    Interrupts and flags management functions
 723:libs/STM32F4xx_StdPeriph_Driver/src/stm32f4xx_fsmc.c ****  *
 724:libs/STM32F4xx_StdPeriph_Driver/src/stm32f4xx_fsmc.c **** @verbatim   
 725:libs/STM32F4xx_StdPeriph_Driver/src/stm32f4xx_fsmc.c ****  ===============================================================================
 726:libs/STM32F4xx_StdPeriph_Driver/src/stm32f4xx_fsmc.c ****                      Interrupts and flags management functions
 727:libs/STM32F4xx_StdPeriph_Driver/src/stm32f4xx_fsmc.c ****  ===============================================================================  
 728:libs/STM32F4xx_StdPeriph_Driver/src/stm32f4xx_fsmc.c **** 
 729:libs/STM32F4xx_StdPeriph_Driver/src/stm32f4xx_fsmc.c **** @endverbatim
 730:libs/STM32F4xx_StdPeriph_Driver/src/stm32f4xx_fsmc.c ****   * @{
 731:libs/STM32F4xx_StdPeriph_Driver/src/stm32f4xx_fsmc.c ****   */
 732:libs/STM32F4xx_StdPeriph_Driver/src/stm32f4xx_fsmc.c **** 
 733:libs/STM32F4xx_StdPeriph_Driver/src/stm32f4xx_fsmc.c **** /**
 734:libs/STM32F4xx_StdPeriph_Driver/src/stm32f4xx_fsmc.c ****   * @brief  Enables or disables the specified FSMC interrupts.
 735:libs/STM32F4xx_StdPeriph_Driver/src/stm32f4xx_fsmc.c ****   * @param  FSMC_Bank: specifies the FSMC Bank to be used
 736:libs/STM32F4xx_StdPeriph_Driver/src/stm32f4xx_fsmc.c ****   *          This parameter can be one of the following values:
 737:libs/STM32F4xx_StdPeriph_Driver/src/stm32f4xx_fsmc.c ****   *            @arg FSMC_Bank2_NAND: FSMC Bank2 NAND 
 738:libs/STM32F4xx_StdPeriph_Driver/src/stm32f4xx_fsmc.c ****   *            @arg FSMC_Bank3_NAND: FSMC Bank3 NAND
 739:libs/STM32F4xx_StdPeriph_Driver/src/stm32f4xx_fsmc.c ****   *            @arg FSMC_Bank4_PCCARD: FSMC Bank4 PCCARD
 740:libs/STM32F4xx_StdPeriph_Driver/src/stm32f4xx_fsmc.c ****   * @param  FSMC_IT: specifies the FSMC interrupt sources to be enabled or disabled.
 741:libs/STM32F4xx_StdPeriph_Driver/src/stm32f4xx_fsmc.c ****   *          This parameter can be any combination of the following values:
 742:libs/STM32F4xx_StdPeriph_Driver/src/stm32f4xx_fsmc.c ****   *            @arg FSMC_IT_RisingEdge: Rising edge detection interrupt. 
 743:libs/STM32F4xx_StdPeriph_Driver/src/stm32f4xx_fsmc.c ****   *            @arg FSMC_IT_Level: Level edge detection interrupt.
 744:libs/STM32F4xx_StdPeriph_Driver/src/stm32f4xx_fsmc.c ****   *            @arg FSMC_IT_FallingEdge: Falling edge detection interrupt.
 745:libs/STM32F4xx_StdPeriph_Driver/src/stm32f4xx_fsmc.c ****   * @param  NewState: new state of the specified FSMC interrupts.
 746:libs/STM32F4xx_StdPeriph_Driver/src/stm32f4xx_fsmc.c ****   *          This parameter can be: ENABLE or DISABLE.
 747:libs/STM32F4xx_StdPeriph_Driver/src/stm32f4xx_fsmc.c ****   * @retval None
 748:libs/STM32F4xx_StdPeriph_Driver/src/stm32f4xx_fsmc.c ****   */
 749:libs/STM32F4xx_StdPeriph_Driver/src/stm32f4xx_fsmc.c **** void FSMC_ITConfig(uint32_t FSMC_Bank, uint32_t FSMC_IT, FunctionalState NewState)
 750:libs/STM32F4xx_StdPeriph_Driver/src/stm32f4xx_fsmc.c **** {
 902              		.loc 1 750 0
 903              		.cfi_startproc
 904              		@ args = 0, pretend = 0, frame = 0
 905              		@ frame_needed = 0, uses_anonymous_args = 0
 906              		@ link register save eliminated.
 907              	.LVL25:
 751:libs/STM32F4xx_StdPeriph_Driver/src/stm32f4xx_fsmc.c ****   assert_param(IS_FSMC_IT_BANK(FSMC_Bank));
 752:libs/STM32F4xx_StdPeriph_Driver/src/stm32f4xx_fsmc.c ****   assert_param(IS_FSMC_IT(FSMC_IT));	
 753:libs/STM32F4xx_StdPeriph_Driver/src/stm32f4xx_fsmc.c ****   assert_param(IS_FUNCTIONAL_STATE(NewState));
 754:libs/STM32F4xx_StdPeriph_Driver/src/stm32f4xx_fsmc.c ****   
 755:libs/STM32F4xx_StdPeriph_Driver/src/stm32f4xx_fsmc.c ****   if (NewState != DISABLE)
 908              		.loc 1 755 0
 909 0000 9AB1     		cbz	r2, .L39
 756:libs/STM32F4xx_StdPeriph_Driver/src/stm32f4xx_fsmc.c ****   {
 757:libs/STM32F4xx_StdPeriph_Driver/src/stm32f4xx_fsmc.c ****     /* Enable the selected FSMC_Bank2 interrupts */
 758:libs/STM32F4xx_StdPeriph_Driver/src/stm32f4xx_fsmc.c ****     if(FSMC_Bank == FSMC_Bank2_NAND)
 910              		.loc 1 758 0
 911 0002 1028     		cmp	r0, #16
 912 0004 06D1     		bne	.L40
 759:libs/STM32F4xx_StdPeriph_Driver/src/stm32f4xx_fsmc.c ****     {
 760:libs/STM32F4xx_StdPeriph_Driver/src/stm32f4xx_fsmc.c ****       FSMC_Bank2->SR2 |= FSMC_IT;
 913              		.loc 1 760 0
 914 0006 6023     		movs	r3, #96
 915 0008 CAF20003 		movt	r3, 40960
 916 000c 5A68     		ldr	r2, [r3, #4]
 917              	.LVL26:
 918 000e 1143     		orrs	r1, r1, r2
 919              	.LVL27:
 920 0010 5960     		str	r1, [r3, #4]
 921 0012 7047     		bx	lr
 922              	.LVL28:
 923              	.L40:
 761:libs/STM32F4xx_StdPeriph_Driver/src/stm32f4xx_fsmc.c ****     }
 762:libs/STM32F4xx_StdPeriph_Driver/src/stm32f4xx_fsmc.c ****     /* Enable the selected FSMC_Bank3 interrupts */
 763:libs/STM32F4xx_StdPeriph_Driver/src/stm32f4xx_fsmc.c ****     else if (FSMC_Bank == FSMC_Bank3_NAND)
 924              		.loc 1 763 0
 925 0014 B0F5807F 		cmp	r0, #256
 764:libs/STM32F4xx_StdPeriph_Driver/src/stm32f4xx_fsmc.c ****     {
 765:libs/STM32F4xx_StdPeriph_Driver/src/stm32f4xx_fsmc.c ****       FSMC_Bank3->SR3 |= FSMC_IT;
 926              		.loc 1 765 0
 927 0018 0CBF     		ite	eq
 928 001a 8023     		moveq	r3, #128
 766:libs/STM32F4xx_StdPeriph_Driver/src/stm32f4xx_fsmc.c ****     }
 767:libs/STM32F4xx_StdPeriph_Driver/src/stm32f4xx_fsmc.c ****     /* Enable the selected FSMC_Bank4 interrupts */
 768:libs/STM32F4xx_StdPeriph_Driver/src/stm32f4xx_fsmc.c ****     else
 769:libs/STM32F4xx_StdPeriph_Driver/src/stm32f4xx_fsmc.c ****     {
 770:libs/STM32F4xx_StdPeriph_Driver/src/stm32f4xx_fsmc.c ****       FSMC_Bank4->SR4 |= FSMC_IT;    
 929              		.loc 1 770 0
 930 001c A023     		movne	r3, #160
 931 001e CAF20003 		movt	r3, 40960
 932 0022 5A68     		ldr	r2, [r3, #4]
 933              	.LVL29:
 934 0024 1143     		orrs	r1, r1, r2
 935              	.LVL30:
 936 0026 5960     		str	r1, [r3, #4]
 937 0028 7047     		bx	lr
 938              	.LVL31:
 939              	.L39:
 771:libs/STM32F4xx_StdPeriph_Driver/src/stm32f4xx_fsmc.c ****     }
 772:libs/STM32F4xx_StdPeriph_Driver/src/stm32f4xx_fsmc.c ****   }
 773:libs/STM32F4xx_StdPeriph_Driver/src/stm32f4xx_fsmc.c ****   else
 774:libs/STM32F4xx_StdPeriph_Driver/src/stm32f4xx_fsmc.c ****   {
 775:libs/STM32F4xx_StdPeriph_Driver/src/stm32f4xx_fsmc.c ****     /* Disable the selected FSMC_Bank2 interrupts */
 776:libs/STM32F4xx_StdPeriph_Driver/src/stm32f4xx_fsmc.c ****     if(FSMC_Bank == FSMC_Bank2_NAND)
 940              		.loc 1 776 0
 941 002a 1028     		cmp	r0, #16
 942 002c 07D1     		bne	.L43
 777:libs/STM32F4xx_StdPeriph_Driver/src/stm32f4xx_fsmc.c ****     {
 778:libs/STM32F4xx_StdPeriph_Driver/src/stm32f4xx_fsmc.c ****       
 779:libs/STM32F4xx_StdPeriph_Driver/src/stm32f4xx_fsmc.c ****       FSMC_Bank2->SR2 &= (uint32_t)~FSMC_IT;
 943              		.loc 1 779 0
 944 002e 6023     		movs	r3, #96
 945 0030 CAF20003 		movt	r3, 40960
 946 0034 5A68     		ldr	r2, [r3, #4]
 947              	.LVL32:
 948 0036 22EA0101 		bic	r1, r2, r1
 949              	.LVL33:
 950 003a 5960     		str	r1, [r3, #4]
 951 003c 7047     		bx	lr
 952              	.LVL34:
 953              	.L43:
 780:libs/STM32F4xx_StdPeriph_Driver/src/stm32f4xx_fsmc.c ****     }
 781:libs/STM32F4xx_StdPeriph_Driver/src/stm32f4xx_fsmc.c ****     /* Disable the selected FSMC_Bank3 interrupts */
 782:libs/STM32F4xx_StdPeriph_Driver/src/stm32f4xx_fsmc.c ****     else if (FSMC_Bank == FSMC_Bank3_NAND)
 954              		.loc 1 782 0
 955 003e B0F5807F 		cmp	r0, #256
 783:libs/STM32F4xx_StdPeriph_Driver/src/stm32f4xx_fsmc.c ****     {
 784:libs/STM32F4xx_StdPeriph_Driver/src/stm32f4xx_fsmc.c ****       FSMC_Bank3->SR3 &= (uint32_t)~FSMC_IT;
 956              		.loc 1 784 0
 957 0042 0CBF     		ite	eq
 958 0044 8023     		moveq	r3, #128
 785:libs/STM32F4xx_StdPeriph_Driver/src/stm32f4xx_fsmc.c ****     }
 786:libs/STM32F4xx_StdPeriph_Driver/src/stm32f4xx_fsmc.c ****     /* Disable the selected FSMC_Bank4 interrupts */
 787:libs/STM32F4xx_StdPeriph_Driver/src/stm32f4xx_fsmc.c ****     else
 788:libs/STM32F4xx_StdPeriph_Driver/src/stm32f4xx_fsmc.c ****     {
 789:libs/STM32F4xx_StdPeriph_Driver/src/stm32f4xx_fsmc.c ****       FSMC_Bank4->SR4 &= (uint32_t)~FSMC_IT;    
 959              		.loc 1 789 0
 960 0046 A023     		movne	r3, #160
 961 0048 CAF20003 		movt	r3, 40960
 962 004c 5A68     		ldr	r2, [r3, #4]
 963              	.LVL35:
 964 004e 22EA0101 		bic	r1, r2, r1
 965              	.LVL36:
 966 0052 5960     		str	r1, [r3, #4]
 967 0054 7047     		bx	lr
 968              		.cfi_endproc
 969              	.LFE124:
 971 0056 00BF     		.section	.text.FSMC_GetFlagStatus,"ax",%progbits
 972              		.align	2
 973              		.global	FSMC_GetFlagStatus
 974              		.thumb
 975              		.thumb_func
 977              	FSMC_GetFlagStatus:
 978              	.LFB125:
 790:libs/STM32F4xx_StdPeriph_Driver/src/stm32f4xx_fsmc.c ****     }
 791:libs/STM32F4xx_StdPeriph_Driver/src/stm32f4xx_fsmc.c ****   }
 792:libs/STM32F4xx_StdPeriph_Driver/src/stm32f4xx_fsmc.c **** }
 793:libs/STM32F4xx_StdPeriph_Driver/src/stm32f4xx_fsmc.c **** 
 794:libs/STM32F4xx_StdPeriph_Driver/src/stm32f4xx_fsmc.c **** /**
 795:libs/STM32F4xx_StdPeriph_Driver/src/stm32f4xx_fsmc.c ****   * @brief  Checks whether the specified FSMC flag is set or not.
 796:libs/STM32F4xx_StdPeriph_Driver/src/stm32f4xx_fsmc.c ****   * @param  FSMC_Bank: specifies the FSMC Bank to be used
 797:libs/STM32F4xx_StdPeriph_Driver/src/stm32f4xx_fsmc.c ****   *          This parameter can be one of the following values:
 798:libs/STM32F4xx_StdPeriph_Driver/src/stm32f4xx_fsmc.c ****   *            @arg FSMC_Bank2_NAND: FSMC Bank2 NAND 
 799:libs/STM32F4xx_StdPeriph_Driver/src/stm32f4xx_fsmc.c ****   *            @arg FSMC_Bank3_NAND: FSMC Bank3 NAND
 800:libs/STM32F4xx_StdPeriph_Driver/src/stm32f4xx_fsmc.c ****   *            @arg FSMC_Bank4_PCCARD: FSMC Bank4 PCCARD
 801:libs/STM32F4xx_StdPeriph_Driver/src/stm32f4xx_fsmc.c ****   * @param  FSMC_FLAG: specifies the flag to check.
 802:libs/STM32F4xx_StdPeriph_Driver/src/stm32f4xx_fsmc.c ****   *          This parameter can be one of the following values:
 803:libs/STM32F4xx_StdPeriph_Driver/src/stm32f4xx_fsmc.c ****   *            @arg FSMC_FLAG_RisingEdge: Rising edge detection Flag.
 804:libs/STM32F4xx_StdPeriph_Driver/src/stm32f4xx_fsmc.c ****   *            @arg FSMC_FLAG_Level: Level detection Flag.
 805:libs/STM32F4xx_StdPeriph_Driver/src/stm32f4xx_fsmc.c ****   *            @arg FSMC_FLAG_FallingEdge: Falling edge detection Flag.
 806:libs/STM32F4xx_StdPeriph_Driver/src/stm32f4xx_fsmc.c ****   *            @arg FSMC_FLAG_FEMPT: Fifo empty Flag. 
 807:libs/STM32F4xx_StdPeriph_Driver/src/stm32f4xx_fsmc.c ****   * @retval The new state of FSMC_FLAG (SET or RESET).
 808:libs/STM32F4xx_StdPeriph_Driver/src/stm32f4xx_fsmc.c ****   */
 809:libs/STM32F4xx_StdPeriph_Driver/src/stm32f4xx_fsmc.c **** FlagStatus FSMC_GetFlagStatus(uint32_t FSMC_Bank, uint32_t FSMC_FLAG)
 810:libs/STM32F4xx_StdPeriph_Driver/src/stm32f4xx_fsmc.c **** {
 979              		.loc 1 810 0
 980              		.cfi_startproc
 981              		@ args = 0, pretend = 0, frame = 0
 982              		@ frame_needed = 0, uses_anonymous_args = 0
 983              		@ link register save eliminated.
 984              	.LVL37:
 811:libs/STM32F4xx_StdPeriph_Driver/src/stm32f4xx_fsmc.c ****   FlagStatus bitstatus = RESET;
 812:libs/STM32F4xx_StdPeriph_Driver/src/stm32f4xx_fsmc.c ****   uint32_t tmpsr = 0x00000000;
 813:libs/STM32F4xx_StdPeriph_Driver/src/stm32f4xx_fsmc.c ****   
 814:libs/STM32F4xx_StdPeriph_Driver/src/stm32f4xx_fsmc.c ****   /* Check the parameters */
 815:libs/STM32F4xx_StdPeriph_Driver/src/stm32f4xx_fsmc.c ****   assert_param(IS_FSMC_GETFLAG_BANK(FSMC_Bank));
 816:libs/STM32F4xx_StdPeriph_Driver/src/stm32f4xx_fsmc.c ****   assert_param(IS_FSMC_GET_FLAG(FSMC_FLAG));
 817:libs/STM32F4xx_StdPeriph_Driver/src/stm32f4xx_fsmc.c ****   
 818:libs/STM32F4xx_StdPeriph_Driver/src/stm32f4xx_fsmc.c ****   if(FSMC_Bank == FSMC_Bank2_NAND)
 985              		.loc 1 818 0
 986 0000 1028     		cmp	r0, #16
 987 0002 04D1     		bne	.L46
 819:libs/STM32F4xx_StdPeriph_Driver/src/stm32f4xx_fsmc.c ****   {
 820:libs/STM32F4xx_StdPeriph_Driver/src/stm32f4xx_fsmc.c ****     tmpsr = FSMC_Bank2->SR2;
 988              		.loc 1 820 0
 989 0004 6023     		movs	r3, #96
 990 0006 CAF20003 		movt	r3, 40960
 991 000a 5868     		ldr	r0, [r3, #4]
 992              	.LVL38:
 993 000c 07E0     		b	.L47
 994              	.LVL39:
 995              	.L46:
 821:libs/STM32F4xx_StdPeriph_Driver/src/stm32f4xx_fsmc.c ****   }  
 822:libs/STM32F4xx_StdPeriph_Driver/src/stm32f4xx_fsmc.c ****   else if(FSMC_Bank == FSMC_Bank3_NAND)
 996              		.loc 1 822 0
 997 000e B0F5807F 		cmp	r0, #256
 823:libs/STM32F4xx_StdPeriph_Driver/src/stm32f4xx_fsmc.c ****   {
 824:libs/STM32F4xx_StdPeriph_Driver/src/stm32f4xx_fsmc.c ****     tmpsr = FSMC_Bank3->SR3;
 998              		.loc 1 824 0
 999 0012 0CBF     		ite	eq
 1000 0014 8023     		moveq	r3, #128
 825:libs/STM32F4xx_StdPeriph_Driver/src/stm32f4xx_fsmc.c ****   }
 826:libs/STM32F4xx_StdPeriph_Driver/src/stm32f4xx_fsmc.c ****   /* FSMC_Bank4_PCCARD*/
 827:libs/STM32F4xx_StdPeriph_Driver/src/stm32f4xx_fsmc.c ****   else
 828:libs/STM32F4xx_StdPeriph_Driver/src/stm32f4xx_fsmc.c ****   {
 829:libs/STM32F4xx_StdPeriph_Driver/src/stm32f4xx_fsmc.c ****     tmpsr = FSMC_Bank4->SR4;
 1001              		.loc 1 829 0
 1002 0016 A023     		movne	r3, #160
 1003 0018 CAF20003 		movt	r3, 40960
 1004 001c 5868     		ldr	r0, [r3, #4]
 1005              	.LVL40:
 1006              	.L47:
 830:libs/STM32F4xx_StdPeriph_Driver/src/stm32f4xx_fsmc.c ****   } 
 831:libs/STM32F4xx_StdPeriph_Driver/src/stm32f4xx_fsmc.c ****   
 832:libs/STM32F4xx_StdPeriph_Driver/src/stm32f4xx_fsmc.c ****   /* Get the flag status */
 833:libs/STM32F4xx_StdPeriph_Driver/src/stm32f4xx_fsmc.c ****   if ((tmpsr & FSMC_FLAG) != (uint16_t)RESET )
 1007              		.loc 1 833 0
 1008 001e 0840     		ands	r0, r0, r1
 1009              	.LVL41:
 834:libs/STM32F4xx_StdPeriph_Driver/src/stm32f4xx_fsmc.c ****   {
 835:libs/STM32F4xx_StdPeriph_Driver/src/stm32f4xx_fsmc.c ****     bitstatus = SET;
 836:libs/STM32F4xx_StdPeriph_Driver/src/stm32f4xx_fsmc.c ****   }
 837:libs/STM32F4xx_StdPeriph_Driver/src/stm32f4xx_fsmc.c ****   else
 838:libs/STM32F4xx_StdPeriph_Driver/src/stm32f4xx_fsmc.c ****   {
 839:libs/STM32F4xx_StdPeriph_Driver/src/stm32f4xx_fsmc.c ****     bitstatus = RESET;
 840:libs/STM32F4xx_StdPeriph_Driver/src/stm32f4xx_fsmc.c ****   }
 841:libs/STM32F4xx_StdPeriph_Driver/src/stm32f4xx_fsmc.c ****   /* Return the flag status */
 842:libs/STM32F4xx_StdPeriph_Driver/src/stm32f4xx_fsmc.c ****   return bitstatus;
 843:libs/STM32F4xx_StdPeriph_Driver/src/stm32f4xx_fsmc.c **** }
 1010              		.loc 1 843 0
 1011 0020 0030     		adds	r0, r0, #0
 1012 0022 18BF     		it	ne
 1013 0024 0120     		movne	r0, #1
 1014              	.LVL42:
 1015 0026 7047     		bx	lr
 1016              		.cfi_endproc
 1017              	.LFE125:
 1019              		.section	.text.FSMC_ClearFlag,"ax",%progbits
 1020              		.align	2
 1021              		.global	FSMC_ClearFlag
 1022              		.thumb
 1023              		.thumb_func
 1025              	FSMC_ClearFlag:
 1026              	.LFB126:
 844:libs/STM32F4xx_StdPeriph_Driver/src/stm32f4xx_fsmc.c **** 
 845:libs/STM32F4xx_StdPeriph_Driver/src/stm32f4xx_fsmc.c **** /**
 846:libs/STM32F4xx_StdPeriph_Driver/src/stm32f4xx_fsmc.c ****   * @brief  Clears the FSMC's pending flags.
 847:libs/STM32F4xx_StdPeriph_Driver/src/stm32f4xx_fsmc.c ****   * @param  FSMC_Bank: specifies the FSMC Bank to be used
 848:libs/STM32F4xx_StdPeriph_Driver/src/stm32f4xx_fsmc.c ****   *          This parameter can be one of the following values:
 849:libs/STM32F4xx_StdPeriph_Driver/src/stm32f4xx_fsmc.c ****   *            @arg FSMC_Bank2_NAND: FSMC Bank2 NAND 
 850:libs/STM32F4xx_StdPeriph_Driver/src/stm32f4xx_fsmc.c ****   *            @arg FSMC_Bank3_NAND: FSMC Bank3 NAND
 851:libs/STM32F4xx_StdPeriph_Driver/src/stm32f4xx_fsmc.c ****   *            @arg FSMC_Bank4_PCCARD: FSMC Bank4 PCCARD
 852:libs/STM32F4xx_StdPeriph_Driver/src/stm32f4xx_fsmc.c ****   * @param  FSMC_FLAG: specifies the flag to clear.
 853:libs/STM32F4xx_StdPeriph_Driver/src/stm32f4xx_fsmc.c ****   *          This parameter can be any combination of the following values:
 854:libs/STM32F4xx_StdPeriph_Driver/src/stm32f4xx_fsmc.c ****   *            @arg FSMC_FLAG_RisingEdge: Rising edge detection Flag.
 855:libs/STM32F4xx_StdPeriph_Driver/src/stm32f4xx_fsmc.c ****   *            @arg FSMC_FLAG_Level: Level detection Flag.
 856:libs/STM32F4xx_StdPeriph_Driver/src/stm32f4xx_fsmc.c ****   *            @arg FSMC_FLAG_FallingEdge: Falling edge detection Flag.
 857:libs/STM32F4xx_StdPeriph_Driver/src/stm32f4xx_fsmc.c ****   * @retval None
 858:libs/STM32F4xx_StdPeriph_Driver/src/stm32f4xx_fsmc.c ****   */
 859:libs/STM32F4xx_StdPeriph_Driver/src/stm32f4xx_fsmc.c **** void FSMC_ClearFlag(uint32_t FSMC_Bank, uint32_t FSMC_FLAG)
 860:libs/STM32F4xx_StdPeriph_Driver/src/stm32f4xx_fsmc.c **** {
 1027              		.loc 1 860 0
 1028              		.cfi_startproc
 1029              		@ args = 0, pretend = 0, frame = 0
 1030              		@ frame_needed = 0, uses_anonymous_args = 0
 1031              		@ link register save eliminated.
 1032              	.LVL43:
 861:libs/STM32F4xx_StdPeriph_Driver/src/stm32f4xx_fsmc.c ****  /* Check the parameters */
 862:libs/STM32F4xx_StdPeriph_Driver/src/stm32f4xx_fsmc.c ****   assert_param(IS_FSMC_GETFLAG_BANK(FSMC_Bank));
 863:libs/STM32F4xx_StdPeriph_Driver/src/stm32f4xx_fsmc.c ****   assert_param(IS_FSMC_CLEAR_FLAG(FSMC_FLAG)) ;
 864:libs/STM32F4xx_StdPeriph_Driver/src/stm32f4xx_fsmc.c ****     
 865:libs/STM32F4xx_StdPeriph_Driver/src/stm32f4xx_fsmc.c ****   if(FSMC_Bank == FSMC_Bank2_NAND)
 1033              		.loc 1 865 0
 1034 0000 1028     		cmp	r0, #16
 1035 0002 07D1     		bne	.L52
 866:libs/STM32F4xx_StdPeriph_Driver/src/stm32f4xx_fsmc.c ****   {
 867:libs/STM32F4xx_StdPeriph_Driver/src/stm32f4xx_fsmc.c ****     FSMC_Bank2->SR2 &= ~FSMC_FLAG; 
 1036              		.loc 1 867 0
 1037 0004 6023     		movs	r3, #96
 1038 0006 CAF20003 		movt	r3, 40960
 1039 000a 5A68     		ldr	r2, [r3, #4]
 1040 000c 22EA0101 		bic	r1, r2, r1
 1041              	.LVL44:
 1042 0010 5960     		str	r1, [r3, #4]
 1043 0012 7047     		bx	lr
 1044              	.LVL45:
 1045              	.L52:
 868:libs/STM32F4xx_StdPeriph_Driver/src/stm32f4xx_fsmc.c ****   }  
 869:libs/STM32F4xx_StdPeriph_Driver/src/stm32f4xx_fsmc.c ****   else if(FSMC_Bank == FSMC_Bank3_NAND)
 1046              		.loc 1 869 0
 1047 0014 B0F5807F 		cmp	r0, #256
 870:libs/STM32F4xx_StdPeriph_Driver/src/stm32f4xx_fsmc.c ****   {
 871:libs/STM32F4xx_StdPeriph_Driver/src/stm32f4xx_fsmc.c ****     FSMC_Bank3->SR3 &= ~FSMC_FLAG;
 1048              		.loc 1 871 0
 1049 0018 0CBF     		ite	eq
 1050 001a 8023     		moveq	r3, #128
 872:libs/STM32F4xx_StdPeriph_Driver/src/stm32f4xx_fsmc.c ****   }
 873:libs/STM32F4xx_StdPeriph_Driver/src/stm32f4xx_fsmc.c ****   /* FSMC_Bank4_PCCARD*/
 874:libs/STM32F4xx_StdPeriph_Driver/src/stm32f4xx_fsmc.c ****   else
 875:libs/STM32F4xx_StdPeriph_Driver/src/stm32f4xx_fsmc.c ****   {
 876:libs/STM32F4xx_StdPeriph_Driver/src/stm32f4xx_fsmc.c ****     FSMC_Bank4->SR4 &= ~FSMC_FLAG;
 1051              		.loc 1 876 0
 1052 001c A023     		movne	r3, #160
 1053 001e CAF20003 		movt	r3, 40960
 1054 0022 5A68     		ldr	r2, [r3, #4]
 1055 0024 22EA0101 		bic	r1, r2, r1
 1056              	.LVL46:
 1057 0028 5960     		str	r1, [r3, #4]
 1058 002a 7047     		bx	lr
 1059              		.cfi_endproc
 1060              	.LFE126:
 1062              		.section	.text.FSMC_GetITStatus,"ax",%progbits
 1063              		.align	2
 1064              		.global	FSMC_GetITStatus
 1065              		.thumb
 1066              		.thumb_func
 1068              	FSMC_GetITStatus:
 1069              	.LFB127:
 877:libs/STM32F4xx_StdPeriph_Driver/src/stm32f4xx_fsmc.c ****   }
 878:libs/STM32F4xx_StdPeriph_Driver/src/stm32f4xx_fsmc.c **** }
 879:libs/STM32F4xx_StdPeriph_Driver/src/stm32f4xx_fsmc.c **** 
 880:libs/STM32F4xx_StdPeriph_Driver/src/stm32f4xx_fsmc.c **** /**
 881:libs/STM32F4xx_StdPeriph_Driver/src/stm32f4xx_fsmc.c ****   * @brief  Checks whether the specified FSMC interrupt has occurred or not.
 882:libs/STM32F4xx_StdPeriph_Driver/src/stm32f4xx_fsmc.c ****   * @param  FSMC_Bank: specifies the FSMC Bank to be used
 883:libs/STM32F4xx_StdPeriph_Driver/src/stm32f4xx_fsmc.c ****   *          This parameter can be one of the following values:
 884:libs/STM32F4xx_StdPeriph_Driver/src/stm32f4xx_fsmc.c ****   *            @arg FSMC_Bank2_NAND: FSMC Bank2 NAND 
 885:libs/STM32F4xx_StdPeriph_Driver/src/stm32f4xx_fsmc.c ****   *            @arg FSMC_Bank3_NAND: FSMC Bank3 NAND
 886:libs/STM32F4xx_StdPeriph_Driver/src/stm32f4xx_fsmc.c ****   *            @arg FSMC_Bank4_PCCARD: FSMC Bank4 PCCARD
 887:libs/STM32F4xx_StdPeriph_Driver/src/stm32f4xx_fsmc.c ****   * @param  FSMC_IT: specifies the FSMC interrupt source to check.
 888:libs/STM32F4xx_StdPeriph_Driver/src/stm32f4xx_fsmc.c ****   *          This parameter can be one of the following values:
 889:libs/STM32F4xx_StdPeriph_Driver/src/stm32f4xx_fsmc.c ****   *            @arg FSMC_IT_RisingEdge: Rising edge detection interrupt. 
 890:libs/STM32F4xx_StdPeriph_Driver/src/stm32f4xx_fsmc.c ****   *            @arg FSMC_IT_Level: Level edge detection interrupt.
 891:libs/STM32F4xx_StdPeriph_Driver/src/stm32f4xx_fsmc.c ****   *            @arg FSMC_IT_FallingEdge: Falling edge detection interrupt. 
 892:libs/STM32F4xx_StdPeriph_Driver/src/stm32f4xx_fsmc.c ****   * @retval The new state of FSMC_IT (SET or RESET).
 893:libs/STM32F4xx_StdPeriph_Driver/src/stm32f4xx_fsmc.c ****   */
 894:libs/STM32F4xx_StdPeriph_Driver/src/stm32f4xx_fsmc.c **** ITStatus FSMC_GetITStatus(uint32_t FSMC_Bank, uint32_t FSMC_IT)
 895:libs/STM32F4xx_StdPeriph_Driver/src/stm32f4xx_fsmc.c **** {
 1070              		.loc 1 895 0
 1071              		.cfi_startproc
 1072              		@ args = 0, pretend = 0, frame = 0
 1073              		@ frame_needed = 0, uses_anonymous_args = 0
 1074              		@ link register save eliminated.
 1075              	.LVL47:
 896:libs/STM32F4xx_StdPeriph_Driver/src/stm32f4xx_fsmc.c ****   ITStatus bitstatus = RESET;
 897:libs/STM32F4xx_StdPeriph_Driver/src/stm32f4xx_fsmc.c ****   uint32_t tmpsr = 0x0, itstatus = 0x0, itenable = 0x0; 
 898:libs/STM32F4xx_StdPeriph_Driver/src/stm32f4xx_fsmc.c ****   
 899:libs/STM32F4xx_StdPeriph_Driver/src/stm32f4xx_fsmc.c ****   /* Check the parameters */
 900:libs/STM32F4xx_StdPeriph_Driver/src/stm32f4xx_fsmc.c ****   assert_param(IS_FSMC_IT_BANK(FSMC_Bank));
 901:libs/STM32F4xx_StdPeriph_Driver/src/stm32f4xx_fsmc.c ****   assert_param(IS_FSMC_GET_IT(FSMC_IT));
 902:libs/STM32F4xx_StdPeriph_Driver/src/stm32f4xx_fsmc.c ****   
 903:libs/STM32F4xx_StdPeriph_Driver/src/stm32f4xx_fsmc.c ****   if(FSMC_Bank == FSMC_Bank2_NAND)
 1076              		.loc 1 903 0
 1077 0000 1028     		cmp	r0, #16
 1078 0002 04D1     		bne	.L56
 904:libs/STM32F4xx_StdPeriph_Driver/src/stm32f4xx_fsmc.c ****   {
 905:libs/STM32F4xx_StdPeriph_Driver/src/stm32f4xx_fsmc.c ****     tmpsr = FSMC_Bank2->SR2;
 1079              		.loc 1 905 0
 1080 0004 6023     		movs	r3, #96
 1081 0006 CAF20003 		movt	r3, 40960
 1082 000a 5B68     		ldr	r3, [r3, #4]
 1083              	.LVL48:
 1084 000c 07E0     		b	.L57
 1085              	.LVL49:
 1086              	.L56:
 906:libs/STM32F4xx_StdPeriph_Driver/src/stm32f4xx_fsmc.c ****   }  
 907:libs/STM32F4xx_StdPeriph_Driver/src/stm32f4xx_fsmc.c ****   else if(FSMC_Bank == FSMC_Bank3_NAND)
 1087              		.loc 1 907 0
 1088 000e B0F5807F 		cmp	r0, #256
 908:libs/STM32F4xx_StdPeriph_Driver/src/stm32f4xx_fsmc.c ****   {
 909:libs/STM32F4xx_StdPeriph_Driver/src/stm32f4xx_fsmc.c ****     tmpsr = FSMC_Bank3->SR3;
 1089              		.loc 1 909 0
 1090 0012 0CBF     		ite	eq
 1091 0014 8023     		moveq	r3, #128
 910:libs/STM32F4xx_StdPeriph_Driver/src/stm32f4xx_fsmc.c ****   }
 911:libs/STM32F4xx_StdPeriph_Driver/src/stm32f4xx_fsmc.c ****   /* FSMC_Bank4_PCCARD*/
 912:libs/STM32F4xx_StdPeriph_Driver/src/stm32f4xx_fsmc.c ****   else
 913:libs/STM32F4xx_StdPeriph_Driver/src/stm32f4xx_fsmc.c ****   {
 914:libs/STM32F4xx_StdPeriph_Driver/src/stm32f4xx_fsmc.c ****     tmpsr = FSMC_Bank4->SR4;
 1092              		.loc 1 914 0
 1093 0016 A023     		movne	r3, #160
 1094 0018 CAF20003 		movt	r3, 40960
 1095 001c 5B68     		ldr	r3, [r3, #4]
 1096              	.LVL50:
 1097              	.L57:
 915:libs/STM32F4xx_StdPeriph_Driver/src/stm32f4xx_fsmc.c ****   } 
 916:libs/STM32F4xx_StdPeriph_Driver/src/stm32f4xx_fsmc.c ****   
 917:libs/STM32F4xx_StdPeriph_Driver/src/stm32f4xx_fsmc.c ****   itstatus = tmpsr & FSMC_IT;
 918:libs/STM32F4xx_StdPeriph_Driver/src/stm32f4xx_fsmc.c ****   
 919:libs/STM32F4xx_StdPeriph_Driver/src/stm32f4xx_fsmc.c ****   itenable = tmpsr & (FSMC_IT >> 3);
 920:libs/STM32F4xx_StdPeriph_Driver/src/stm32f4xx_fsmc.c ****   if ((itstatus != (uint32_t)RESET)  && (itenable != (uint32_t)RESET))
 1098              		.loc 1 920 0
 1099 001e 0B42     		tst	r3, r1
 1100 0020 0CBF     		ite	eq
 1101 0022 0020     		moveq	r0, #0
 1102 0024 0120     		movne	r0, #1
 1103              	.LVL51:
 1104 0026 13EAD101 		ands	r1, r3, r1, lsr #3
 1105              	.LVL52:
 1106 002a 0CBF     		ite	eq
 1107 002c 0020     		moveq	r0, #0
 1108 002e 00F00100 		andne	r0, r0, #1
 1109              	.LVL53:
 921:libs/STM32F4xx_StdPeriph_Driver/src/stm32f4xx_fsmc.c ****   {
 922:libs/STM32F4xx_StdPeriph_Driver/src/stm32f4xx_fsmc.c ****     bitstatus = SET;
 923:libs/STM32F4xx_StdPeriph_Driver/src/stm32f4xx_fsmc.c ****   }
 924:libs/STM32F4xx_StdPeriph_Driver/src/stm32f4xx_fsmc.c ****   else
 925:libs/STM32F4xx_StdPeriph_Driver/src/stm32f4xx_fsmc.c ****   {
 926:libs/STM32F4xx_StdPeriph_Driver/src/stm32f4xx_fsmc.c ****     bitstatus = RESET;
 927:libs/STM32F4xx_StdPeriph_Driver/src/stm32f4xx_fsmc.c ****   }
 928:libs/STM32F4xx_StdPeriph_Driver/src/stm32f4xx_fsmc.c ****   return bitstatus; 
 929:libs/STM32F4xx_StdPeriph_Driver/src/stm32f4xx_fsmc.c **** }
 1110              		.loc 1 929 0
 1111 0032 7047     		bx	lr
 1112              		.cfi_endproc
 1113              	.LFE127:
 1115              		.section	.text.FSMC_ClearITPendingBit,"ax",%progbits
 1116              		.align	2
 1117              		.global	FSMC_ClearITPendingBit
 1118              		.thumb
 1119              		.thumb_func
 1121              	FSMC_ClearITPendingBit:
 1122              	.LFB128:
 930:libs/STM32F4xx_StdPeriph_Driver/src/stm32f4xx_fsmc.c **** 
 931:libs/STM32F4xx_StdPeriph_Driver/src/stm32f4xx_fsmc.c **** /**
 932:libs/STM32F4xx_StdPeriph_Driver/src/stm32f4xx_fsmc.c ****   * @brief  Clears the FSMC's interrupt pending bits.
 933:libs/STM32F4xx_StdPeriph_Driver/src/stm32f4xx_fsmc.c ****   * @param  FSMC_Bank: specifies the FSMC Bank to be used
 934:libs/STM32F4xx_StdPeriph_Driver/src/stm32f4xx_fsmc.c ****   *          This parameter can be one of the following values:
 935:libs/STM32F4xx_StdPeriph_Driver/src/stm32f4xx_fsmc.c ****   *            @arg FSMC_Bank2_NAND: FSMC Bank2 NAND 
 936:libs/STM32F4xx_StdPeriph_Driver/src/stm32f4xx_fsmc.c ****   *            @arg FSMC_Bank3_NAND: FSMC Bank3 NAND
 937:libs/STM32F4xx_StdPeriph_Driver/src/stm32f4xx_fsmc.c ****   *            @arg FSMC_Bank4_PCCARD: FSMC Bank4 PCCARD
 938:libs/STM32F4xx_StdPeriph_Driver/src/stm32f4xx_fsmc.c ****   * @param  FSMC_IT: specifies the interrupt pending bit to clear.
 939:libs/STM32F4xx_StdPeriph_Driver/src/stm32f4xx_fsmc.c ****   *          This parameter can be any combination of the following values:
 940:libs/STM32F4xx_StdPeriph_Driver/src/stm32f4xx_fsmc.c ****   *            @arg FSMC_IT_RisingEdge: Rising edge detection interrupt. 
 941:libs/STM32F4xx_StdPeriph_Driver/src/stm32f4xx_fsmc.c ****   *            @arg FSMC_IT_Level: Level edge detection interrupt.
 942:libs/STM32F4xx_StdPeriph_Driver/src/stm32f4xx_fsmc.c ****   *            @arg FSMC_IT_FallingEdge: Falling edge detection interrupt.
 943:libs/STM32F4xx_StdPeriph_Driver/src/stm32f4xx_fsmc.c ****   * @retval None
 944:libs/STM32F4xx_StdPeriph_Driver/src/stm32f4xx_fsmc.c ****   */
 945:libs/STM32F4xx_StdPeriph_Driver/src/stm32f4xx_fsmc.c **** void FSMC_ClearITPendingBit(uint32_t FSMC_Bank, uint32_t FSMC_IT)
 946:libs/STM32F4xx_StdPeriph_Driver/src/stm32f4xx_fsmc.c **** {
 1123              		.loc 1 946 0
 1124              		.cfi_startproc
 1125              		@ args = 0, pretend = 0, frame = 0
 1126              		@ frame_needed = 0, uses_anonymous_args = 0
 1127              		@ link register save eliminated.
 1128              	.LVL54:
 947:libs/STM32F4xx_StdPeriph_Driver/src/stm32f4xx_fsmc.c ****   /* Check the parameters */
 948:libs/STM32F4xx_StdPeriph_Driver/src/stm32f4xx_fsmc.c ****   assert_param(IS_FSMC_IT_BANK(FSMC_Bank));
 949:libs/STM32F4xx_StdPeriph_Driver/src/stm32f4xx_fsmc.c ****   assert_param(IS_FSMC_IT(FSMC_IT));
 950:libs/STM32F4xx_StdPeriph_Driver/src/stm32f4xx_fsmc.c ****     
 951:libs/STM32F4xx_StdPeriph_Driver/src/stm32f4xx_fsmc.c ****   if(FSMC_Bank == FSMC_Bank2_NAND)
 1129              		.loc 1 951 0
 1130 0000 1028     		cmp	r0, #16
 1131 0002 07D1     		bne	.L62
 952:libs/STM32F4xx_StdPeriph_Driver/src/stm32f4xx_fsmc.c ****   {
 953:libs/STM32F4xx_StdPeriph_Driver/src/stm32f4xx_fsmc.c ****     FSMC_Bank2->SR2 &= ~(FSMC_IT >> 3); 
 1132              		.loc 1 953 0
 1133 0004 6023     		movs	r3, #96
 1134 0006 CAF20003 		movt	r3, 40960
 1135 000a 5A68     		ldr	r2, [r3, #4]
 1136 000c 22EAD101 		bic	r1, r2, r1, lsr #3
 1137              	.LVL55:
 1138 0010 5960     		str	r1, [r3, #4]
 1139 0012 7047     		bx	lr
 1140              	.LVL56:
 1141              	.L62:
 954:libs/STM32F4xx_StdPeriph_Driver/src/stm32f4xx_fsmc.c ****   }  
 955:libs/STM32F4xx_StdPeriph_Driver/src/stm32f4xx_fsmc.c ****   else if(FSMC_Bank == FSMC_Bank3_NAND)
 1142              		.loc 1 955 0
 1143 0014 B0F5807F 		cmp	r0, #256
 956:libs/STM32F4xx_StdPeriph_Driver/src/stm32f4xx_fsmc.c ****   {
 957:libs/STM32F4xx_StdPeriph_Driver/src/stm32f4xx_fsmc.c ****     FSMC_Bank3->SR3 &= ~(FSMC_IT >> 3);
 1144              		.loc 1 957 0
 1145 0018 0CBF     		ite	eq
 1146 001a 8023     		moveq	r3, #128
 958:libs/STM32F4xx_StdPeriph_Driver/src/stm32f4xx_fsmc.c ****   }
 959:libs/STM32F4xx_StdPeriph_Driver/src/stm32f4xx_fsmc.c ****   /* FSMC_Bank4_PCCARD*/
 960:libs/STM32F4xx_StdPeriph_Driver/src/stm32f4xx_fsmc.c ****   else
 961:libs/STM32F4xx_StdPeriph_Driver/src/stm32f4xx_fsmc.c ****   {
 962:libs/STM32F4xx_StdPeriph_Driver/src/stm32f4xx_fsmc.c ****     FSMC_Bank4->SR4 &= ~(FSMC_IT >> 3);
 1147              		.loc 1 962 0
 1148 001c A023     		movne	r3, #160
 1149 001e CAF20003 		movt	r3, 40960
 1150 0022 5A68     		ldr	r2, [r3, #4]
 1151 0024 22EAD101 		bic	r1, r2, r1, lsr #3
 1152              	.LVL57:
 1153 0028 5960     		str	r1, [r3, #4]
 1154 002a 7047     		bx	lr
 1155              		.cfi_endproc
 1156              	.LFE128:
 1158              		.text
 1159              	.Letext0:
 1160              		.file 2 "/usr/include/newlib/machine/_default_types.h"
 1161              		.file 3 "/usr/include/newlib/stdint.h"
 1162              		.file 4 "libs/Device/STM32F4xx/Include/stm32f4xx.h"
 1163              		.file 5 "libs/STM32F4xx_StdPeriph_Driver/inc/stm32f4xx_fsmc.h"
 1164              		.file 6 "libs/CMSIS/Include/core_cm4.h"