   1              		.syntax unified
   2              		.cpu cortex-m4
   3              		.eabi_attribute 27, 3
   4              		.fpu fpv4-sp-d16
   5              		.eabi_attribute 20, 1
   6              		.eabi_attribute 21, 1
   7              		.eabi_attribute 23, 3
   8              		.eabi_attribute 24, 1
   9              		.eabi_attribute 25, 1
  10              		.eabi_attribute 26, 1
  11              		.eabi_attribute 30, 1
  12              		.eabi_attribute 34, 1
  13              		.eabi_attribute 18, 4
  14              		.thumb
  15              		.file	"stm32f4xx_cryp_aes.c"
  16              		.text
  17              	.Ltext0:
  18              		.cfi_sections	.debug_frame
  19              		.section	.text.CRYP_AES_ECB,"ax",%progbits
  20              		.align	2
  21              		.global	CRYP_AES_ECB
  22              		.thumb
  23              		.thumb_func
  25              	CRYP_AES_ECB:
  26              	.LFB110:
  27              		.file 1 "libs/STM32F4xx_StdPeriph_Driver/src/stm32f4xx_cryp_aes.c"
   1:libs/STM32F4xx_StdPeriph_Driver/src/stm32f4xx_cryp_aes.c **** /**
   2:libs/STM32F4xx_StdPeriph_Driver/src/stm32f4xx_cryp_aes.c ****   ******************************************************************************
   3:libs/STM32F4xx_StdPeriph_Driver/src/stm32f4xx_cryp_aes.c ****   * @file    stm32f4xx_cryp_aes.c
   4:libs/STM32F4xx_StdPeriph_Driver/src/stm32f4xx_cryp_aes.c ****   * @author  MCD Application Team
   5:libs/STM32F4xx_StdPeriph_Driver/src/stm32f4xx_cryp_aes.c ****   * @version V1.0.0RC1
   6:libs/STM32F4xx_StdPeriph_Driver/src/stm32f4xx_cryp_aes.c ****   * @date    25-August-2011
   7:libs/STM32F4xx_StdPeriph_Driver/src/stm32f4xx_cryp_aes.c ****   * @brief   This file provides high level functions to encrypt and decrypt an 
   8:libs/STM32F4xx_StdPeriph_Driver/src/stm32f4xx_cryp_aes.c ****   *          input message using AES in ECB/CBC/CTR modes.
   9:libs/STM32F4xx_StdPeriph_Driver/src/stm32f4xx_cryp_aes.c ****   *          It uses the stm32f4xx_cryp.c/.h drivers to access the STM32F4xx CRYP
  10:libs/STM32F4xx_StdPeriph_Driver/src/stm32f4xx_cryp_aes.c ****   *          peripheral.
  11:libs/STM32F4xx_StdPeriph_Driver/src/stm32f4xx_cryp_aes.c ****   *
  12:libs/STM32F4xx_StdPeriph_Driver/src/stm32f4xx_cryp_aes.c ****   *  @verbatim
  13:libs/STM32F4xx_StdPeriph_Driver/src/stm32f4xx_cryp_aes.c ****   *
  14:libs/STM32F4xx_StdPeriph_Driver/src/stm32f4xx_cryp_aes.c ****   *          ===================================================================
  15:libs/STM32F4xx_StdPeriph_Driver/src/stm32f4xx_cryp_aes.c ****   *                                   How to use this driver
  16:libs/STM32F4xx_StdPeriph_Driver/src/stm32f4xx_cryp_aes.c ****   *          ===================================================================
  17:libs/STM32F4xx_StdPeriph_Driver/src/stm32f4xx_cryp_aes.c ****   *          1. Enable The CRYP controller clock using 
  18:libs/STM32F4xx_StdPeriph_Driver/src/stm32f4xx_cryp_aes.c ****   *            RCC_AHB2PeriphClockCmd(RCC_AHB2Periph_CRYP, ENABLE); function.
  19:libs/STM32F4xx_StdPeriph_Driver/src/stm32f4xx_cryp_aes.c ****   *
  20:libs/STM32F4xx_StdPeriph_Driver/src/stm32f4xx_cryp_aes.c ****   *          2. Encrypt and decrypt using AES in ECB Mode using CRYP_AES_ECB()
  21:libs/STM32F4xx_StdPeriph_Driver/src/stm32f4xx_cryp_aes.c ****   *             function.
  22:libs/STM32F4xx_StdPeriph_Driver/src/stm32f4xx_cryp_aes.c ****   *
  23:libs/STM32F4xx_StdPeriph_Driver/src/stm32f4xx_cryp_aes.c ****   *          3. Encrypt and decrypt using AES in CBC Mode using CRYP_AES_CBC()
  24:libs/STM32F4xx_StdPeriph_Driver/src/stm32f4xx_cryp_aes.c ****   *             function.
  25:libs/STM32F4xx_StdPeriph_Driver/src/stm32f4xx_cryp_aes.c ****   *
  26:libs/STM32F4xx_StdPeriph_Driver/src/stm32f4xx_cryp_aes.c ****   *          4. Encrypt and decrypt using AES in CTR Mode using CRYP_AES_CTR()
  27:libs/STM32F4xx_StdPeriph_Driver/src/stm32f4xx_cryp_aes.c ****   *             function.
  28:libs/STM32F4xx_StdPeriph_Driver/src/stm32f4xx_cryp_aes.c ****   *
  29:libs/STM32F4xx_StdPeriph_Driver/src/stm32f4xx_cryp_aes.c ****   *  @endverbatim
  30:libs/STM32F4xx_StdPeriph_Driver/src/stm32f4xx_cryp_aes.c ****   *
  31:libs/STM32F4xx_StdPeriph_Driver/src/stm32f4xx_cryp_aes.c ****   ******************************************************************************
  32:libs/STM32F4xx_StdPeriph_Driver/src/stm32f4xx_cryp_aes.c ****   * @attention
  33:libs/STM32F4xx_StdPeriph_Driver/src/stm32f4xx_cryp_aes.c ****   *
  34:libs/STM32F4xx_StdPeriph_Driver/src/stm32f4xx_cryp_aes.c ****   * THE PRESENT FIRMWARE WHICH IS FOR GUIDANCE ONLY AIMS AT PROVIDING CUSTOMERS
  35:libs/STM32F4xx_StdPeriph_Driver/src/stm32f4xx_cryp_aes.c ****   * WITH CODING INFORMATION REGARDING THEIR PRODUCTS IN ORDER FOR THEM TO SAVE
  36:libs/STM32F4xx_StdPeriph_Driver/src/stm32f4xx_cryp_aes.c ****   * TIME. AS A RESULT, STMICROELECTRONICS SHALL NOT BE HELD LIABLE FOR ANY
  37:libs/STM32F4xx_StdPeriph_Driver/src/stm32f4xx_cryp_aes.c ****   * DIRECT, INDIRECT OR CONSEQUENTIAL DAMAGES WITH RESPECT TO ANY CLAIMS ARISING
  38:libs/STM32F4xx_StdPeriph_Driver/src/stm32f4xx_cryp_aes.c ****   * FROM THE CONTENT OF SUCH FIRMWARE AND/OR THE USE MADE BY CUSTOMERS OF THE
  39:libs/STM32F4xx_StdPeriph_Driver/src/stm32f4xx_cryp_aes.c ****   * CODING INFORMATION CONTAINED HEREIN IN CONNECTION WITH THEIR PRODUCTS.
  40:libs/STM32F4xx_StdPeriph_Driver/src/stm32f4xx_cryp_aes.c ****   *
  41:libs/STM32F4xx_StdPeriph_Driver/src/stm32f4xx_cryp_aes.c ****   * <h2><center>&copy; COPYRIGHT 2011 STMicroelectronics</center></h2>
  42:libs/STM32F4xx_StdPeriph_Driver/src/stm32f4xx_cryp_aes.c ****   ******************************************************************************  
  43:libs/STM32F4xx_StdPeriph_Driver/src/stm32f4xx_cryp_aes.c ****   */
  44:libs/STM32F4xx_StdPeriph_Driver/src/stm32f4xx_cryp_aes.c **** 
  45:libs/STM32F4xx_StdPeriph_Driver/src/stm32f4xx_cryp_aes.c **** /* Includes ------------------------------------------------------------------*/
  46:libs/STM32F4xx_StdPeriph_Driver/src/stm32f4xx_cryp_aes.c **** #include "stm32f4xx_cryp.h"
  47:libs/STM32F4xx_StdPeriph_Driver/src/stm32f4xx_cryp_aes.c **** 
  48:libs/STM32F4xx_StdPeriph_Driver/src/stm32f4xx_cryp_aes.c **** /** @addtogroup STM32F4xx_StdPeriph_Driver
  49:libs/STM32F4xx_StdPeriph_Driver/src/stm32f4xx_cryp_aes.c ****   * @{
  50:libs/STM32F4xx_StdPeriph_Driver/src/stm32f4xx_cryp_aes.c ****   */
  51:libs/STM32F4xx_StdPeriph_Driver/src/stm32f4xx_cryp_aes.c **** 
  52:libs/STM32F4xx_StdPeriph_Driver/src/stm32f4xx_cryp_aes.c **** /** @defgroup CRYP 
  53:libs/STM32F4xx_StdPeriph_Driver/src/stm32f4xx_cryp_aes.c ****   * @brief CRYP driver modules
  54:libs/STM32F4xx_StdPeriph_Driver/src/stm32f4xx_cryp_aes.c ****   * @{
  55:libs/STM32F4xx_StdPeriph_Driver/src/stm32f4xx_cryp_aes.c ****   */
  56:libs/STM32F4xx_StdPeriph_Driver/src/stm32f4xx_cryp_aes.c **** 
  57:libs/STM32F4xx_StdPeriph_Driver/src/stm32f4xx_cryp_aes.c **** /* Private typedef -----------------------------------------------------------*/
  58:libs/STM32F4xx_StdPeriph_Driver/src/stm32f4xx_cryp_aes.c **** /* Private define ------------------------------------------------------------*/
  59:libs/STM32F4xx_StdPeriph_Driver/src/stm32f4xx_cryp_aes.c **** #define AESBUSY_TIMEOUT    ((uint32_t) 0x00010000)
  60:libs/STM32F4xx_StdPeriph_Driver/src/stm32f4xx_cryp_aes.c **** 
  61:libs/STM32F4xx_StdPeriph_Driver/src/stm32f4xx_cryp_aes.c **** /* Private macro -------------------------------------------------------------*/
  62:libs/STM32F4xx_StdPeriph_Driver/src/stm32f4xx_cryp_aes.c **** /* Private variables ---------------------------------------------------------*/
  63:libs/STM32F4xx_StdPeriph_Driver/src/stm32f4xx_cryp_aes.c **** /* Private function prototypes -----------------------------------------------*/
  64:libs/STM32F4xx_StdPeriph_Driver/src/stm32f4xx_cryp_aes.c **** /* Private functions ---------------------------------------------------------*/
  65:libs/STM32F4xx_StdPeriph_Driver/src/stm32f4xx_cryp_aes.c **** 
  66:libs/STM32F4xx_StdPeriph_Driver/src/stm32f4xx_cryp_aes.c **** /** @defgroup CRYP_Private_Functions
  67:libs/STM32F4xx_StdPeriph_Driver/src/stm32f4xx_cryp_aes.c ****   * @{
  68:libs/STM32F4xx_StdPeriph_Driver/src/stm32f4xx_cryp_aes.c ****   */ 
  69:libs/STM32F4xx_StdPeriph_Driver/src/stm32f4xx_cryp_aes.c **** 
  70:libs/STM32F4xx_StdPeriph_Driver/src/stm32f4xx_cryp_aes.c **** /** @defgroup CRYP_Group6 High Level AES functions
  71:libs/STM32F4xx_StdPeriph_Driver/src/stm32f4xx_cryp_aes.c ****  *  @brief   High Level AES functions 
  72:libs/STM32F4xx_StdPeriph_Driver/src/stm32f4xx_cryp_aes.c ****  *
  73:libs/STM32F4xx_StdPeriph_Driver/src/stm32f4xx_cryp_aes.c **** @verbatim   
  74:libs/STM32F4xx_StdPeriph_Driver/src/stm32f4xx_cryp_aes.c ****  ===============================================================================
  75:libs/STM32F4xx_StdPeriph_Driver/src/stm32f4xx_cryp_aes.c ****                           High Level AES functions
  76:libs/STM32F4xx_StdPeriph_Driver/src/stm32f4xx_cryp_aes.c ****  ===============================================================================
  77:libs/STM32F4xx_StdPeriph_Driver/src/stm32f4xx_cryp_aes.c **** 
  78:libs/STM32F4xx_StdPeriph_Driver/src/stm32f4xx_cryp_aes.c **** 
  79:libs/STM32F4xx_StdPeriph_Driver/src/stm32f4xx_cryp_aes.c **** @endverbatim
  80:libs/STM32F4xx_StdPeriph_Driver/src/stm32f4xx_cryp_aes.c ****   * @{
  81:libs/STM32F4xx_StdPeriph_Driver/src/stm32f4xx_cryp_aes.c ****   */
  82:libs/STM32F4xx_StdPeriph_Driver/src/stm32f4xx_cryp_aes.c **** 
  83:libs/STM32F4xx_StdPeriph_Driver/src/stm32f4xx_cryp_aes.c **** /**
  84:libs/STM32F4xx_StdPeriph_Driver/src/stm32f4xx_cryp_aes.c ****   * @brief  Encrypt and decrypt using AES in ECB Mode
  85:libs/STM32F4xx_StdPeriph_Driver/src/stm32f4xx_cryp_aes.c ****   * @param  Mode: encryption or decryption Mode.
  86:libs/STM32F4xx_StdPeriph_Driver/src/stm32f4xx_cryp_aes.c ****   *          This parameter can be one of the following values:
  87:libs/STM32F4xx_StdPeriph_Driver/src/stm32f4xx_cryp_aes.c ****   *            @arg MODE_ENCRYPT: Encryption
  88:libs/STM32F4xx_StdPeriph_Driver/src/stm32f4xx_cryp_aes.c ****   *            @arg MODE_DECRYPT: Decryption
  89:libs/STM32F4xx_StdPeriph_Driver/src/stm32f4xx_cryp_aes.c ****   * @param  Key: Key used for AES algorithm.
  90:libs/STM32F4xx_StdPeriph_Driver/src/stm32f4xx_cryp_aes.c ****   * @param  Keysize: length of the Key, must be a 128, 192 or 256.
  91:libs/STM32F4xx_StdPeriph_Driver/src/stm32f4xx_cryp_aes.c ****   * @param  Input: pointer to the Input buffer.
  92:libs/STM32F4xx_StdPeriph_Driver/src/stm32f4xx_cryp_aes.c ****   * @param  Ilength: length of the Input buffer, must be a multiple of 16.
  93:libs/STM32F4xx_StdPeriph_Driver/src/stm32f4xx_cryp_aes.c ****   * @param  Output: pointer to the returned buffer.
  94:libs/STM32F4xx_StdPeriph_Driver/src/stm32f4xx_cryp_aes.c ****   * @retval An ErrorStatus enumeration value:
  95:libs/STM32F4xx_StdPeriph_Driver/src/stm32f4xx_cryp_aes.c ****   *          - SUCCESS: Operation done
  96:libs/STM32F4xx_StdPeriph_Driver/src/stm32f4xx_cryp_aes.c ****   *          - ERROR: Operation failed
  97:libs/STM32F4xx_StdPeriph_Driver/src/stm32f4xx_cryp_aes.c ****   */
  98:libs/STM32F4xx_StdPeriph_Driver/src/stm32f4xx_cryp_aes.c **** ErrorStatus CRYP_AES_ECB(uint8_t Mode, uint8_t* Key, uint16_t Keysize,
  99:libs/STM32F4xx_StdPeriph_Driver/src/stm32f4xx_cryp_aes.c ****                          uint8_t* Input, uint32_t Ilength, uint8_t* Output)
 100:libs/STM32F4xx_StdPeriph_Driver/src/stm32f4xx_cryp_aes.c **** {
  28              		.loc 1 100 0
  29              		.cfi_startproc
  30              		@ args = 8, pretend = 0, frame = 48
  31              		@ frame_needed = 0, uses_anonymous_args = 0
  32              	.LVL0:
  33 0000 2DE9F047 		push	{r4, r5, r6, r7, r8, r9, r10, lr}
  34              	.LCFI0:
  35              		.cfi_def_cfa_offset 32
  36              		.cfi_offset 4, -32
  37              		.cfi_offset 5, -28
  38              		.cfi_offset 6, -24
  39              		.cfi_offset 7, -20
  40              		.cfi_offset 8, -16
  41              		.cfi_offset 9, -12
  42              		.cfi_offset 10, -8
  43              		.cfi_offset 14, -4
  44 0004 8CB0     		sub	sp, sp, #48
  45              	.LCFI1:
  46              		.cfi_def_cfa_offset 80
  47 0006 0746     		mov	r7, r0
  48 0008 0C46     		mov	r4, r1
  49 000a 1646     		mov	r6, r2
  50 000c DDF850A0 		ldr	r10, [sp, #80]
 101:libs/STM32F4xx_StdPeriph_Driver/src/stm32f4xx_cryp_aes.c ****   CRYP_InitTypeDef AES_CRYP_InitStructure;
 102:libs/STM32F4xx_StdPeriph_Driver/src/stm32f4xx_cryp_aes.c ****   CRYP_KeyInitTypeDef AES_CRYP_KeyInitStructure;
 103:libs/STM32F4xx_StdPeriph_Driver/src/stm32f4xx_cryp_aes.c ****   __IO uint32_t counter = 0;
  51              		.loc 1 103 0
  52 0010 0022     		movs	r2, #0
  53              	.LVL1:
  54 0012 0192     		str	r2, [sp, #4]
  55              	.LVL2:
 104:libs/STM32F4xx_StdPeriph_Driver/src/stm32f4xx_cryp_aes.c ****   uint32_t busystatus = 0;
 105:libs/STM32F4xx_StdPeriph_Driver/src/stm32f4xx_cryp_aes.c ****   ErrorStatus status = SUCCESS;
 106:libs/STM32F4xx_StdPeriph_Driver/src/stm32f4xx_cryp_aes.c ****   uint32_t keyaddr    = (uint32_t)Key;
 107:libs/STM32F4xx_StdPeriph_Driver/src/stm32f4xx_cryp_aes.c ****   uint32_t inputaddr  = (uint32_t)Input;
  56              		.loc 1 107 0
  57 0014 1D46     		mov	r5, r3
  58              	.LVL3:
 108:libs/STM32F4xx_StdPeriph_Driver/src/stm32f4xx_cryp_aes.c ****   uint32_t outputaddr = (uint32_t)Output;
  59              		.loc 1 108 0
  60 0016 DDF85490 		ldr	r9, [sp, #84]
  61              	.LVL4:
 109:libs/STM32F4xx_StdPeriph_Driver/src/stm32f4xx_cryp_aes.c ****   uint32_t i = 0;
 110:libs/STM32F4xx_StdPeriph_Driver/src/stm32f4xx_cryp_aes.c **** 
 111:libs/STM32F4xx_StdPeriph_Driver/src/stm32f4xx_cryp_aes.c ****   /* Crypto structures initialisation*/
 112:libs/STM32F4xx_StdPeriph_Driver/src/stm32f4xx_cryp_aes.c ****   CRYP_KeyStructInit(&AES_CRYP_KeyInitStructure);
  62              		.loc 1 112 0
  63 001a 02A8     		add	r0, sp, #8
  64              	.LVL5:
  65 001c FFF7FEFF 		bl	CRYP_KeyStructInit
  66              	.LVL6:
 113:libs/STM32F4xx_StdPeriph_Driver/src/stm32f4xx_cryp_aes.c **** 
 114:libs/STM32F4xx_StdPeriph_Driver/src/stm32f4xx_cryp_aes.c ****   switch(Keysize)
  67              		.loc 1 114 0
  68 0020 C02E     		cmp	r6, #192
  69 0022 14D0     		beq	.L3
  70 0024 B6F5807F 		cmp	r6, #256
  71 0028 28D0     		beq	.L4
  72 002a 802E     		cmp	r6, #128
  73 002c 42D1     		bne	.L2
 115:libs/STM32F4xx_StdPeriph_Driver/src/stm32f4xx_cryp_aes.c ****   {
 116:libs/STM32F4xx_StdPeriph_Driver/src/stm32f4xx_cryp_aes.c ****     case 128:
 117:libs/STM32F4xx_StdPeriph_Driver/src/stm32f4xx_cryp_aes.c ****     AES_CRYP_InitStructure.CRYP_KeySize = CRYP_KeySize_128b;
  74              		.loc 1 117 0
  75 002e 0023     		movs	r3, #0
  76 0030 ADF82E30 		strh	r3, [sp, #46]	@ movhi
 118:libs/STM32F4xx_StdPeriph_Driver/src/stm32f4xx_cryp_aes.c ****     AES_CRYP_KeyInitStructure.CRYP_Key2Left = __REV(*(uint32_t*)(keyaddr));
  77              		.loc 1 118 0
  78 0034 2368     		ldr	r3, [r4]
  79              	.LVL7:
  80              	.LBB126:
  81              	.LBB127:
  82              		.file 2 "libs/CMSIS/Include/core_cmInstr.h"
   1:libs/CMSIS/Include/core_cmInstr.h **** /**************************************************************************//**
   2:libs/CMSIS/Include/core_cmInstr.h ****  * @file     core_cmInstr.h
   3:libs/CMSIS/Include/core_cmInstr.h ****  * @brief    CMSIS Cortex-M Core Instruction Access Header File
   4:libs/CMSIS/Include/core_cmInstr.h ****  * @version  V2.10
   5:libs/CMSIS/Include/core_cmInstr.h ****  * @date     19. July 2011
   6:libs/CMSIS/Include/core_cmInstr.h ****  *
   7:libs/CMSIS/Include/core_cmInstr.h ****  * @note
   8:libs/CMSIS/Include/core_cmInstr.h ****  * Copyright (C) 2009-2011 ARM Limited. All rights reserved.
   9:libs/CMSIS/Include/core_cmInstr.h ****  *
  10:libs/CMSIS/Include/core_cmInstr.h ****  * @par
  11:libs/CMSIS/Include/core_cmInstr.h ****  * ARM Limited (ARM) is supplying this software for use with Cortex-M 
  12:libs/CMSIS/Include/core_cmInstr.h ****  * processor based microcontrollers.  This file can be freely distributed 
  13:libs/CMSIS/Include/core_cmInstr.h ****  * within development tools that are supporting such ARM based processors. 
  14:libs/CMSIS/Include/core_cmInstr.h ****  *
  15:libs/CMSIS/Include/core_cmInstr.h ****  * @par
  16:libs/CMSIS/Include/core_cmInstr.h ****  * THIS SOFTWARE IS PROVIDED "AS IS".  NO WARRANTIES, WHETHER EXPRESS, IMPLIED
  17:libs/CMSIS/Include/core_cmInstr.h ****  * OR STATUTORY, INCLUDING, BUT NOT LIMITED TO, IMPLIED WARRANTIES OF
  18:libs/CMSIS/Include/core_cmInstr.h ****  * MERCHANTABILITY AND FITNESS FOR A PARTICULAR PURPOSE APPLY TO THIS SOFTWARE.
  19:libs/CMSIS/Include/core_cmInstr.h ****  * ARM SHALL NOT, IN ANY CIRCUMSTANCES, BE LIABLE FOR SPECIAL, INCIDENTAL, OR
  20:libs/CMSIS/Include/core_cmInstr.h ****  * CONSEQUENTIAL DAMAGES, FOR ANY REASON WHATSOEVER.
  21:libs/CMSIS/Include/core_cmInstr.h ****  *
  22:libs/CMSIS/Include/core_cmInstr.h ****  ******************************************************************************/
  23:libs/CMSIS/Include/core_cmInstr.h **** 
  24:libs/CMSIS/Include/core_cmInstr.h **** #ifndef __CORE_CMINSTR_H
  25:libs/CMSIS/Include/core_cmInstr.h **** #define __CORE_CMINSTR_H
  26:libs/CMSIS/Include/core_cmInstr.h **** 
  27:libs/CMSIS/Include/core_cmInstr.h **** 
  28:libs/CMSIS/Include/core_cmInstr.h **** /* ##########################  Core Instruction Access  ######################### */
  29:libs/CMSIS/Include/core_cmInstr.h **** /** \defgroup CMSIS_Core_InstructionInterface CMSIS Core Instruction Interface
  30:libs/CMSIS/Include/core_cmInstr.h ****   Access to dedicated instructions
  31:libs/CMSIS/Include/core_cmInstr.h ****   @{
  32:libs/CMSIS/Include/core_cmInstr.h **** */
  33:libs/CMSIS/Include/core_cmInstr.h **** 
  34:libs/CMSIS/Include/core_cmInstr.h **** #if   defined ( __CC_ARM ) /*------------------RealView Compiler -----------------*/
  35:libs/CMSIS/Include/core_cmInstr.h **** /* ARM armcc specific functions */
  36:libs/CMSIS/Include/core_cmInstr.h **** 
  37:libs/CMSIS/Include/core_cmInstr.h **** #if (__ARMCC_VERSION < 400677)
  38:libs/CMSIS/Include/core_cmInstr.h ****   #error "Please use ARM Compiler Toolchain V4.0.677 or later!"
  39:libs/CMSIS/Include/core_cmInstr.h **** #endif
  40:libs/CMSIS/Include/core_cmInstr.h **** 
  41:libs/CMSIS/Include/core_cmInstr.h **** 
  42:libs/CMSIS/Include/core_cmInstr.h **** /** \brief  No Operation
  43:libs/CMSIS/Include/core_cmInstr.h **** 
  44:libs/CMSIS/Include/core_cmInstr.h ****     No Operation does nothing. This instruction can be used for code alignment purposes.
  45:libs/CMSIS/Include/core_cmInstr.h ****  */
  46:libs/CMSIS/Include/core_cmInstr.h **** #define __NOP                             __nop
  47:libs/CMSIS/Include/core_cmInstr.h **** 
  48:libs/CMSIS/Include/core_cmInstr.h **** 
  49:libs/CMSIS/Include/core_cmInstr.h **** /** \brief  Wait For Interrupt
  50:libs/CMSIS/Include/core_cmInstr.h **** 
  51:libs/CMSIS/Include/core_cmInstr.h ****     Wait For Interrupt is a hint instruction that suspends execution
  52:libs/CMSIS/Include/core_cmInstr.h ****     until one of a number of events occurs.
  53:libs/CMSIS/Include/core_cmInstr.h ****  */
  54:libs/CMSIS/Include/core_cmInstr.h **** #define __WFI                             __wfi
  55:libs/CMSIS/Include/core_cmInstr.h **** 
  56:libs/CMSIS/Include/core_cmInstr.h **** 
  57:libs/CMSIS/Include/core_cmInstr.h **** /** \brief  Wait For Event
  58:libs/CMSIS/Include/core_cmInstr.h **** 
  59:libs/CMSIS/Include/core_cmInstr.h ****     Wait For Event is a hint instruction that permits the processor to enter
  60:libs/CMSIS/Include/core_cmInstr.h ****     a low-power state until one of a number of events occurs.
  61:libs/CMSIS/Include/core_cmInstr.h ****  */
  62:libs/CMSIS/Include/core_cmInstr.h **** #define __WFE                             __wfe
  63:libs/CMSIS/Include/core_cmInstr.h **** 
  64:libs/CMSIS/Include/core_cmInstr.h **** 
  65:libs/CMSIS/Include/core_cmInstr.h **** /** \brief  Send Event
  66:libs/CMSIS/Include/core_cmInstr.h **** 
  67:libs/CMSIS/Include/core_cmInstr.h ****     Send Event is a hint instruction. It causes an event to be signaled to the CPU.
  68:libs/CMSIS/Include/core_cmInstr.h ****  */
  69:libs/CMSIS/Include/core_cmInstr.h **** #define __SEV                             __sev
  70:libs/CMSIS/Include/core_cmInstr.h **** 
  71:libs/CMSIS/Include/core_cmInstr.h **** 
  72:libs/CMSIS/Include/core_cmInstr.h **** /** \brief  Instruction Synchronization Barrier
  73:libs/CMSIS/Include/core_cmInstr.h **** 
  74:libs/CMSIS/Include/core_cmInstr.h ****     Instruction Synchronization Barrier flushes the pipeline in the processor, 
  75:libs/CMSIS/Include/core_cmInstr.h ****     so that all instructions following the ISB are fetched from cache or 
  76:libs/CMSIS/Include/core_cmInstr.h ****     memory, after the instruction has been completed.
  77:libs/CMSIS/Include/core_cmInstr.h ****  */
  78:libs/CMSIS/Include/core_cmInstr.h **** #define __ISB()                           __isb(0xF)
  79:libs/CMSIS/Include/core_cmInstr.h **** 
  80:libs/CMSIS/Include/core_cmInstr.h **** 
  81:libs/CMSIS/Include/core_cmInstr.h **** /** \brief  Data Synchronization Barrier
  82:libs/CMSIS/Include/core_cmInstr.h **** 
  83:libs/CMSIS/Include/core_cmInstr.h ****     This function acts as a special kind of Data Memory Barrier. 
  84:libs/CMSIS/Include/core_cmInstr.h ****     It completes when all explicit memory accesses before this instruction complete.
  85:libs/CMSIS/Include/core_cmInstr.h ****  */
  86:libs/CMSIS/Include/core_cmInstr.h **** #define __DSB()                           __dsb(0xF)
  87:libs/CMSIS/Include/core_cmInstr.h **** 
  88:libs/CMSIS/Include/core_cmInstr.h **** 
  89:libs/CMSIS/Include/core_cmInstr.h **** /** \brief  Data Memory Barrier
  90:libs/CMSIS/Include/core_cmInstr.h **** 
  91:libs/CMSIS/Include/core_cmInstr.h ****     This function ensures the apparent order of the explicit memory operations before 
  92:libs/CMSIS/Include/core_cmInstr.h ****     and after the instruction, without ensuring their completion.
  93:libs/CMSIS/Include/core_cmInstr.h ****  */
  94:libs/CMSIS/Include/core_cmInstr.h **** #define __DMB()                           __dmb(0xF)
  95:libs/CMSIS/Include/core_cmInstr.h **** 
  96:libs/CMSIS/Include/core_cmInstr.h **** 
  97:libs/CMSIS/Include/core_cmInstr.h **** /** \brief  Reverse byte order (32 bit)
  98:libs/CMSIS/Include/core_cmInstr.h **** 
  99:libs/CMSIS/Include/core_cmInstr.h ****     This function reverses the byte order in integer value.
 100:libs/CMSIS/Include/core_cmInstr.h **** 
 101:libs/CMSIS/Include/core_cmInstr.h ****     \param [in]    value  Value to reverse
 102:libs/CMSIS/Include/core_cmInstr.h ****     \return               Reversed value
 103:libs/CMSIS/Include/core_cmInstr.h ****  */
 104:libs/CMSIS/Include/core_cmInstr.h **** #define __REV                             __rev
 105:libs/CMSIS/Include/core_cmInstr.h **** 
 106:libs/CMSIS/Include/core_cmInstr.h **** 
 107:libs/CMSIS/Include/core_cmInstr.h **** /** \brief  Reverse byte order (16 bit)
 108:libs/CMSIS/Include/core_cmInstr.h **** 
 109:libs/CMSIS/Include/core_cmInstr.h ****     This function reverses the byte order in two unsigned short values.
 110:libs/CMSIS/Include/core_cmInstr.h **** 
 111:libs/CMSIS/Include/core_cmInstr.h ****     \param [in]    value  Value to reverse
 112:libs/CMSIS/Include/core_cmInstr.h ****     \return               Reversed value
 113:libs/CMSIS/Include/core_cmInstr.h ****  */
 114:libs/CMSIS/Include/core_cmInstr.h **** static __INLINE __ASM uint32_t __REV16(uint32_t value)
 115:libs/CMSIS/Include/core_cmInstr.h **** {
 116:libs/CMSIS/Include/core_cmInstr.h ****   rev16 r0, r0
 117:libs/CMSIS/Include/core_cmInstr.h ****   bx lr
 118:libs/CMSIS/Include/core_cmInstr.h **** }
 119:libs/CMSIS/Include/core_cmInstr.h **** 
 120:libs/CMSIS/Include/core_cmInstr.h **** 
 121:libs/CMSIS/Include/core_cmInstr.h **** /** \brief  Reverse byte order in signed short value
 122:libs/CMSIS/Include/core_cmInstr.h **** 
 123:libs/CMSIS/Include/core_cmInstr.h ****     This function reverses the byte order in a signed short value with sign extension to integer.
 124:libs/CMSIS/Include/core_cmInstr.h **** 
 125:libs/CMSIS/Include/core_cmInstr.h ****     \param [in]    value  Value to reverse
 126:libs/CMSIS/Include/core_cmInstr.h ****     \return               Reversed value
 127:libs/CMSIS/Include/core_cmInstr.h ****  */
 128:libs/CMSIS/Include/core_cmInstr.h **** static __INLINE __ASM int32_t __REVSH(int32_t value)
 129:libs/CMSIS/Include/core_cmInstr.h **** {
 130:libs/CMSIS/Include/core_cmInstr.h ****   revsh r0, r0
 131:libs/CMSIS/Include/core_cmInstr.h ****   bx lr
 132:libs/CMSIS/Include/core_cmInstr.h **** }
 133:libs/CMSIS/Include/core_cmInstr.h **** 
 134:libs/CMSIS/Include/core_cmInstr.h **** 
 135:libs/CMSIS/Include/core_cmInstr.h **** #if       (__CORTEX_M >= 0x03)
 136:libs/CMSIS/Include/core_cmInstr.h **** 
 137:libs/CMSIS/Include/core_cmInstr.h **** /** \brief  Reverse bit order of value
 138:libs/CMSIS/Include/core_cmInstr.h **** 
 139:libs/CMSIS/Include/core_cmInstr.h ****     This function reverses the bit order of the given value.
 140:libs/CMSIS/Include/core_cmInstr.h **** 
 141:libs/CMSIS/Include/core_cmInstr.h ****     \param [in]    value  Value to reverse
 142:libs/CMSIS/Include/core_cmInstr.h ****     \return               Reversed value
 143:libs/CMSIS/Include/core_cmInstr.h ****  */
 144:libs/CMSIS/Include/core_cmInstr.h **** #define __RBIT                            __rbit
 145:libs/CMSIS/Include/core_cmInstr.h **** 
 146:libs/CMSIS/Include/core_cmInstr.h **** 
 147:libs/CMSIS/Include/core_cmInstr.h **** /** \brief  LDR Exclusive (8 bit)
 148:libs/CMSIS/Include/core_cmInstr.h **** 
 149:libs/CMSIS/Include/core_cmInstr.h ****     This function performs a exclusive LDR command for 8 bit value.
 150:libs/CMSIS/Include/core_cmInstr.h **** 
 151:libs/CMSIS/Include/core_cmInstr.h ****     \param [in]    ptr  Pointer to data
 152:libs/CMSIS/Include/core_cmInstr.h ****     \return             value of type uint8_t at (*ptr)
 153:libs/CMSIS/Include/core_cmInstr.h ****  */
 154:libs/CMSIS/Include/core_cmInstr.h **** #define __LDREXB(ptr)                     ((uint8_t ) __ldrex(ptr))
 155:libs/CMSIS/Include/core_cmInstr.h **** 
 156:libs/CMSIS/Include/core_cmInstr.h **** 
 157:libs/CMSIS/Include/core_cmInstr.h **** /** \brief  LDR Exclusive (16 bit)
 158:libs/CMSIS/Include/core_cmInstr.h **** 
 159:libs/CMSIS/Include/core_cmInstr.h ****     This function performs a exclusive LDR command for 16 bit values.
 160:libs/CMSIS/Include/core_cmInstr.h **** 
 161:libs/CMSIS/Include/core_cmInstr.h ****     \param [in]    ptr  Pointer to data
 162:libs/CMSIS/Include/core_cmInstr.h ****     \return        value of type uint16_t at (*ptr)
 163:libs/CMSIS/Include/core_cmInstr.h ****  */
 164:libs/CMSIS/Include/core_cmInstr.h **** #define __LDREXH(ptr)                     ((uint16_t) __ldrex(ptr))
 165:libs/CMSIS/Include/core_cmInstr.h **** 
 166:libs/CMSIS/Include/core_cmInstr.h **** 
 167:libs/CMSIS/Include/core_cmInstr.h **** /** \brief  LDR Exclusive (32 bit)
 168:libs/CMSIS/Include/core_cmInstr.h **** 
 169:libs/CMSIS/Include/core_cmInstr.h ****     This function performs a exclusive LDR command for 32 bit values.
 170:libs/CMSIS/Include/core_cmInstr.h **** 
 171:libs/CMSIS/Include/core_cmInstr.h ****     \param [in]    ptr  Pointer to data
 172:libs/CMSIS/Include/core_cmInstr.h ****     \return        value of type uint32_t at (*ptr)
 173:libs/CMSIS/Include/core_cmInstr.h ****  */
 174:libs/CMSIS/Include/core_cmInstr.h **** #define __LDREXW(ptr)                     ((uint32_t ) __ldrex(ptr))
 175:libs/CMSIS/Include/core_cmInstr.h **** 
 176:libs/CMSIS/Include/core_cmInstr.h **** 
 177:libs/CMSIS/Include/core_cmInstr.h **** /** \brief  STR Exclusive (8 bit)
 178:libs/CMSIS/Include/core_cmInstr.h **** 
 179:libs/CMSIS/Include/core_cmInstr.h ****     This function performs a exclusive STR command for 8 bit values.
 180:libs/CMSIS/Include/core_cmInstr.h **** 
 181:libs/CMSIS/Include/core_cmInstr.h ****     \param [in]  value  Value to store
 182:libs/CMSIS/Include/core_cmInstr.h ****     \param [in]    ptr  Pointer to location
 183:libs/CMSIS/Include/core_cmInstr.h ****     \return          0  Function succeeded
 184:libs/CMSIS/Include/core_cmInstr.h ****     \return          1  Function failed
 185:libs/CMSIS/Include/core_cmInstr.h ****  */
 186:libs/CMSIS/Include/core_cmInstr.h **** #define __STREXB(value, ptr)              __strex(value, ptr)
 187:libs/CMSIS/Include/core_cmInstr.h **** 
 188:libs/CMSIS/Include/core_cmInstr.h **** 
 189:libs/CMSIS/Include/core_cmInstr.h **** /** \brief  STR Exclusive (16 bit)
 190:libs/CMSIS/Include/core_cmInstr.h **** 
 191:libs/CMSIS/Include/core_cmInstr.h ****     This function performs a exclusive STR command for 16 bit values.
 192:libs/CMSIS/Include/core_cmInstr.h **** 
 193:libs/CMSIS/Include/core_cmInstr.h ****     \param [in]  value  Value to store
 194:libs/CMSIS/Include/core_cmInstr.h ****     \param [in]    ptr  Pointer to location
 195:libs/CMSIS/Include/core_cmInstr.h ****     \return          0  Function succeeded
 196:libs/CMSIS/Include/core_cmInstr.h ****     \return          1  Function failed
 197:libs/CMSIS/Include/core_cmInstr.h ****  */
 198:libs/CMSIS/Include/core_cmInstr.h **** #define __STREXH(value, ptr)              __strex(value, ptr)
 199:libs/CMSIS/Include/core_cmInstr.h **** 
 200:libs/CMSIS/Include/core_cmInstr.h **** 
 201:libs/CMSIS/Include/core_cmInstr.h **** /** \brief  STR Exclusive (32 bit)
 202:libs/CMSIS/Include/core_cmInstr.h **** 
 203:libs/CMSIS/Include/core_cmInstr.h ****     This function performs a exclusive STR command for 32 bit values.
 204:libs/CMSIS/Include/core_cmInstr.h **** 
 205:libs/CMSIS/Include/core_cmInstr.h ****     \param [in]  value  Value to store
 206:libs/CMSIS/Include/core_cmInstr.h ****     \param [in]    ptr  Pointer to location
 207:libs/CMSIS/Include/core_cmInstr.h ****     \return          0  Function succeeded
 208:libs/CMSIS/Include/core_cmInstr.h ****     \return          1  Function failed
 209:libs/CMSIS/Include/core_cmInstr.h ****  */
 210:libs/CMSIS/Include/core_cmInstr.h **** #define __STREXW(value, ptr)              __strex(value, ptr)
 211:libs/CMSIS/Include/core_cmInstr.h **** 
 212:libs/CMSIS/Include/core_cmInstr.h **** 
 213:libs/CMSIS/Include/core_cmInstr.h **** /** \brief  Remove the exclusive lock
 214:libs/CMSIS/Include/core_cmInstr.h **** 
 215:libs/CMSIS/Include/core_cmInstr.h ****     This function removes the exclusive lock which is created by LDREX.
 216:libs/CMSIS/Include/core_cmInstr.h **** 
 217:libs/CMSIS/Include/core_cmInstr.h ****  */
 218:libs/CMSIS/Include/core_cmInstr.h **** #define __CLREX                           __clrex
 219:libs/CMSIS/Include/core_cmInstr.h **** 
 220:libs/CMSIS/Include/core_cmInstr.h **** 
 221:libs/CMSIS/Include/core_cmInstr.h **** /** \brief  Signed Saturate
 222:libs/CMSIS/Include/core_cmInstr.h **** 
 223:libs/CMSIS/Include/core_cmInstr.h ****     This function saturates a signed value.
 224:libs/CMSIS/Include/core_cmInstr.h **** 
 225:libs/CMSIS/Include/core_cmInstr.h ****     \param [in]  value  Value to be saturated
 226:libs/CMSIS/Include/core_cmInstr.h ****     \param [in]    sat  Bit position to saturate to (1..32)
 227:libs/CMSIS/Include/core_cmInstr.h ****     \return             Saturated value
 228:libs/CMSIS/Include/core_cmInstr.h ****  */
 229:libs/CMSIS/Include/core_cmInstr.h **** #define __SSAT                            __ssat
 230:libs/CMSIS/Include/core_cmInstr.h **** 
 231:libs/CMSIS/Include/core_cmInstr.h **** 
 232:libs/CMSIS/Include/core_cmInstr.h **** /** \brief  Unsigned Saturate
 233:libs/CMSIS/Include/core_cmInstr.h **** 
 234:libs/CMSIS/Include/core_cmInstr.h ****     This function saturates an unsigned value.
 235:libs/CMSIS/Include/core_cmInstr.h **** 
 236:libs/CMSIS/Include/core_cmInstr.h ****     \param [in]  value  Value to be saturated
 237:libs/CMSIS/Include/core_cmInstr.h ****     \param [in]    sat  Bit position to saturate to (0..31)
 238:libs/CMSIS/Include/core_cmInstr.h ****     \return             Saturated value
 239:libs/CMSIS/Include/core_cmInstr.h ****  */
 240:libs/CMSIS/Include/core_cmInstr.h **** #define __USAT                            __usat
 241:libs/CMSIS/Include/core_cmInstr.h **** 
 242:libs/CMSIS/Include/core_cmInstr.h **** 
 243:libs/CMSIS/Include/core_cmInstr.h **** /** \brief  Count leading zeros
 244:libs/CMSIS/Include/core_cmInstr.h **** 
 245:libs/CMSIS/Include/core_cmInstr.h ****     This function counts the number of leading zeros of a data value.
 246:libs/CMSIS/Include/core_cmInstr.h **** 
 247:libs/CMSIS/Include/core_cmInstr.h ****     \param [in]  value  Value to count the leading zeros
 248:libs/CMSIS/Include/core_cmInstr.h ****     \return             number of leading zeros in value
 249:libs/CMSIS/Include/core_cmInstr.h ****  */
 250:libs/CMSIS/Include/core_cmInstr.h **** #define __CLZ                             __clz 
 251:libs/CMSIS/Include/core_cmInstr.h **** 
 252:libs/CMSIS/Include/core_cmInstr.h **** #endif /* (__CORTEX_M >= 0x03) */
 253:libs/CMSIS/Include/core_cmInstr.h **** 
 254:libs/CMSIS/Include/core_cmInstr.h **** 
 255:libs/CMSIS/Include/core_cmInstr.h **** 
 256:libs/CMSIS/Include/core_cmInstr.h **** #elif defined ( __ICCARM__ ) /*------------------ ICC Compiler -------------------*/
 257:libs/CMSIS/Include/core_cmInstr.h **** /* IAR iccarm specific functions */
 258:libs/CMSIS/Include/core_cmInstr.h **** 
 259:libs/CMSIS/Include/core_cmInstr.h **** #include <cmsis_iar.h>
 260:libs/CMSIS/Include/core_cmInstr.h **** 
 261:libs/CMSIS/Include/core_cmInstr.h **** 
 262:libs/CMSIS/Include/core_cmInstr.h **** #elif defined ( __GNUC__ ) /*------------------ GNU Compiler ---------------------*/
 263:libs/CMSIS/Include/core_cmInstr.h **** /* GNU gcc specific functions */
 264:libs/CMSIS/Include/core_cmInstr.h **** 
 265:libs/CMSIS/Include/core_cmInstr.h **** /** \brief  No Operation
 266:libs/CMSIS/Include/core_cmInstr.h **** 
 267:libs/CMSIS/Include/core_cmInstr.h ****     No Operation does nothing. This instruction can be used for code alignment purposes.
 268:libs/CMSIS/Include/core_cmInstr.h ****  */
 269:libs/CMSIS/Include/core_cmInstr.h **** __attribute__( ( always_inline ) ) static __INLINE void __NOP(void)
 270:libs/CMSIS/Include/core_cmInstr.h **** {
 271:libs/CMSIS/Include/core_cmInstr.h ****   __ASM volatile ("nop");
 272:libs/CMSIS/Include/core_cmInstr.h **** }
 273:libs/CMSIS/Include/core_cmInstr.h **** 
 274:libs/CMSIS/Include/core_cmInstr.h **** 
 275:libs/CMSIS/Include/core_cmInstr.h **** /** \brief  Wait For Interrupt
 276:libs/CMSIS/Include/core_cmInstr.h **** 
 277:libs/CMSIS/Include/core_cmInstr.h ****     Wait For Interrupt is a hint instruction that suspends execution
 278:libs/CMSIS/Include/core_cmInstr.h ****     until one of a number of events occurs.
 279:libs/CMSIS/Include/core_cmInstr.h ****  */
 280:libs/CMSIS/Include/core_cmInstr.h **** __attribute__( ( always_inline ) ) static __INLINE void __WFI(void)
 281:libs/CMSIS/Include/core_cmInstr.h **** {
 282:libs/CMSIS/Include/core_cmInstr.h ****   __ASM volatile ("wfi");
 283:libs/CMSIS/Include/core_cmInstr.h **** }
 284:libs/CMSIS/Include/core_cmInstr.h **** 
 285:libs/CMSIS/Include/core_cmInstr.h **** 
 286:libs/CMSIS/Include/core_cmInstr.h **** /** \brief  Wait For Event
 287:libs/CMSIS/Include/core_cmInstr.h **** 
 288:libs/CMSIS/Include/core_cmInstr.h ****     Wait For Event is a hint instruction that permits the processor to enter
 289:libs/CMSIS/Include/core_cmInstr.h ****     a low-power state until one of a number of events occurs.
 290:libs/CMSIS/Include/core_cmInstr.h ****  */
 291:libs/CMSIS/Include/core_cmInstr.h **** __attribute__( ( always_inline ) ) static __INLINE void __WFE(void)
 292:libs/CMSIS/Include/core_cmInstr.h **** {
 293:libs/CMSIS/Include/core_cmInstr.h ****   __ASM volatile ("wfe");
 294:libs/CMSIS/Include/core_cmInstr.h **** }
 295:libs/CMSIS/Include/core_cmInstr.h **** 
 296:libs/CMSIS/Include/core_cmInstr.h **** 
 297:libs/CMSIS/Include/core_cmInstr.h **** /** \brief  Send Event
 298:libs/CMSIS/Include/core_cmInstr.h **** 
 299:libs/CMSIS/Include/core_cmInstr.h ****     Send Event is a hint instruction. It causes an event to be signaled to the CPU.
 300:libs/CMSIS/Include/core_cmInstr.h ****  */
 301:libs/CMSIS/Include/core_cmInstr.h **** __attribute__( ( always_inline ) ) static __INLINE void __SEV(void)
 302:libs/CMSIS/Include/core_cmInstr.h **** {
 303:libs/CMSIS/Include/core_cmInstr.h ****   __ASM volatile ("sev");
 304:libs/CMSIS/Include/core_cmInstr.h **** }
 305:libs/CMSIS/Include/core_cmInstr.h **** 
 306:libs/CMSIS/Include/core_cmInstr.h **** 
 307:libs/CMSIS/Include/core_cmInstr.h **** /** \brief  Instruction Synchronization Barrier
 308:libs/CMSIS/Include/core_cmInstr.h **** 
 309:libs/CMSIS/Include/core_cmInstr.h ****     Instruction Synchronization Barrier flushes the pipeline in the processor, 
 310:libs/CMSIS/Include/core_cmInstr.h ****     so that all instructions following the ISB are fetched from cache or 
 311:libs/CMSIS/Include/core_cmInstr.h ****     memory, after the instruction has been completed.
 312:libs/CMSIS/Include/core_cmInstr.h ****  */
 313:libs/CMSIS/Include/core_cmInstr.h **** __attribute__( ( always_inline ) ) static __INLINE void __ISB(void)
 314:libs/CMSIS/Include/core_cmInstr.h **** {
 315:libs/CMSIS/Include/core_cmInstr.h ****   __ASM volatile ("isb");
 316:libs/CMSIS/Include/core_cmInstr.h **** }
 317:libs/CMSIS/Include/core_cmInstr.h **** 
 318:libs/CMSIS/Include/core_cmInstr.h **** 
 319:libs/CMSIS/Include/core_cmInstr.h **** /** \brief  Data Synchronization Barrier
 320:libs/CMSIS/Include/core_cmInstr.h **** 
 321:libs/CMSIS/Include/core_cmInstr.h ****     This function acts as a special kind of Data Memory Barrier. 
 322:libs/CMSIS/Include/core_cmInstr.h ****     It completes when all explicit memory accesses before this instruction complete.
 323:libs/CMSIS/Include/core_cmInstr.h ****  */
 324:libs/CMSIS/Include/core_cmInstr.h **** __attribute__( ( always_inline ) ) static __INLINE void __DSB(void)
 325:libs/CMSIS/Include/core_cmInstr.h **** {
 326:libs/CMSIS/Include/core_cmInstr.h ****   __ASM volatile ("dsb");
 327:libs/CMSIS/Include/core_cmInstr.h **** }
 328:libs/CMSIS/Include/core_cmInstr.h **** 
 329:libs/CMSIS/Include/core_cmInstr.h **** 
 330:libs/CMSIS/Include/core_cmInstr.h **** /** \brief  Data Memory Barrier
 331:libs/CMSIS/Include/core_cmInstr.h **** 
 332:libs/CMSIS/Include/core_cmInstr.h ****     This function ensures the apparent order of the explicit memory operations before 
 333:libs/CMSIS/Include/core_cmInstr.h ****     and after the instruction, without ensuring their completion.
 334:libs/CMSIS/Include/core_cmInstr.h ****  */
 335:libs/CMSIS/Include/core_cmInstr.h **** __attribute__( ( always_inline ) ) static __INLINE void __DMB(void)
 336:libs/CMSIS/Include/core_cmInstr.h **** {
 337:libs/CMSIS/Include/core_cmInstr.h ****   __ASM volatile ("dmb");
 338:libs/CMSIS/Include/core_cmInstr.h **** }
 339:libs/CMSIS/Include/core_cmInstr.h **** 
 340:libs/CMSIS/Include/core_cmInstr.h **** 
 341:libs/CMSIS/Include/core_cmInstr.h **** /** \brief  Reverse byte order (32 bit)
 342:libs/CMSIS/Include/core_cmInstr.h **** 
 343:libs/CMSIS/Include/core_cmInstr.h ****     This function reverses the byte order in integer value.
 344:libs/CMSIS/Include/core_cmInstr.h **** 
 345:libs/CMSIS/Include/core_cmInstr.h ****     \param [in]    value  Value to reverse
 346:libs/CMSIS/Include/core_cmInstr.h ****     \return               Reversed value
 347:libs/CMSIS/Include/core_cmInstr.h ****  */
 348:libs/CMSIS/Include/core_cmInstr.h **** __attribute__( ( always_inline ) ) static __INLINE uint32_t __REV(uint32_t value)
 349:libs/CMSIS/Include/core_cmInstr.h **** {
 350:libs/CMSIS/Include/core_cmInstr.h ****   uint32_t result;
 351:libs/CMSIS/Include/core_cmInstr.h ****   
 352:libs/CMSIS/Include/core_cmInstr.h ****   __ASM volatile ("rev %0, %1" : "=r" (result) : "r" (value) );
  83              		.loc 2 352 0
  84              	@ 352 "libs/CMSIS/Include/core_cmInstr.h" 1
  85 0036 1BBA     		rev r3, r3
  86              	@ 0 "" 2
  87              	.LVL8:
  88              		.thumb
  89              	.LBE127:
  90              	.LBE126:
  91              		.loc 1 118 0
  92 0038 0693     		str	r3, [sp, #24]
  93              	.LVL9:
 119:libs/STM32F4xx_StdPeriph_Driver/src/stm32f4xx_cryp_aes.c ****     keyaddr+=4;
 120:libs/STM32F4xx_StdPeriph_Driver/src/stm32f4xx_cryp_aes.c ****     AES_CRYP_KeyInitStructure.CRYP_Key2Right= __REV(*(uint32_t*)(keyaddr));
  94              		.loc 1 120 0
  95 003a 6368     		ldr	r3, [r4, #4]
  96              	.LVL10:
  97              	.LBB128:
  98              	.LBB129:
  99              		.loc 2 352 0
 100              	@ 352 "libs/CMSIS/Include/core_cmInstr.h" 1
 101 003c 1BBA     		rev r3, r3
 102              	@ 0 "" 2
 103              	.LVL11:
 104              		.thumb
 105              	.LBE129:
 106              	.LBE128:
 107              		.loc 1 120 0
 108 003e 0793     		str	r3, [sp, #28]
 109              	.LVL12:
 121:libs/STM32F4xx_StdPeriph_Driver/src/stm32f4xx_cryp_aes.c ****     keyaddr+=4;
 122:libs/STM32F4xx_StdPeriph_Driver/src/stm32f4xx_cryp_aes.c ****     AES_CRYP_KeyInitStructure.CRYP_Key3Left = __REV(*(uint32_t*)(keyaddr));
 110              		.loc 1 122 0
 111 0040 A368     		ldr	r3, [r4, #8]
 112              	.LVL13:
 113              	.LBB130:
 114              	.LBB131:
 115              		.loc 2 352 0
 116              	@ 352 "libs/CMSIS/Include/core_cmInstr.h" 1
 117 0042 1BBA     		rev r3, r3
 118              	@ 0 "" 2
 119              	.LVL14:
 120              		.thumb
 121              	.LBE131:
 122              	.LBE130:
 123              		.loc 1 122 0
 124 0044 0893     		str	r3, [sp, #32]
 125              	.LVL15:
 123:libs/STM32F4xx_StdPeriph_Driver/src/stm32f4xx_cryp_aes.c ****     keyaddr+=4;
 124:libs/STM32F4xx_StdPeriph_Driver/src/stm32f4xx_cryp_aes.c ****     AES_CRYP_KeyInitStructure.CRYP_Key3Right= __REV(*(uint32_t*)(keyaddr));
 126              		.loc 1 124 0
 127 0046 E368     		ldr	r3, [r4, #12]
 128              	.LVL16:
 129              	.LBB132:
 130              	.LBB133:
 131              		.loc 2 352 0
 132              	@ 352 "libs/CMSIS/Include/core_cmInstr.h" 1
 133 0048 1BBA     		rev r3, r3
 134              	@ 0 "" 2
 135              	.LVL17:
 136              		.thumb
 137              	.LBE133:
 138              	.LBE132:
 139              		.loc 1 124 0
 140 004a 0993     		str	r3, [sp, #36]
 125:libs/STM32F4xx_StdPeriph_Driver/src/stm32f4xx_cryp_aes.c ****     break;
 141              		.loc 1 125 0
 142 004c 32E0     		b	.L2
 143              	.LVL18:
 144              	.L3:
 126:libs/STM32F4xx_StdPeriph_Driver/src/stm32f4xx_cryp_aes.c ****     case 192:
 127:libs/STM32F4xx_StdPeriph_Driver/src/stm32f4xx_cryp_aes.c ****     AES_CRYP_InitStructure.CRYP_KeySize  = CRYP_KeySize_192b;
 145              		.loc 1 127 0
 146 004e 4FF48073 		mov	r3, #256
 147 0052 ADF82E30 		strh	r3, [sp, #46]	@ movhi
 128:libs/STM32F4xx_StdPeriph_Driver/src/stm32f4xx_cryp_aes.c ****     AES_CRYP_KeyInitStructure.CRYP_Key1Left = __REV(*(uint32_t*)(keyaddr));
 148              		.loc 1 128 0
 149 0056 2368     		ldr	r3, [r4]
 150              	.LVL19:
 151              	.LBB134:
 152              	.LBB135:
 153              		.loc 2 352 0
 154              	@ 352 "libs/CMSIS/Include/core_cmInstr.h" 1
 155 0058 1BBA     		rev r3, r3
 156              	@ 0 "" 2
 157              	.LVL20:
 158              		.thumb
 159              	.LBE135:
 160              	.LBE134:
 161              		.loc 1 128 0
 162 005a 0493     		str	r3, [sp, #16]
 163              	.LVL21:
 129:libs/STM32F4xx_StdPeriph_Driver/src/stm32f4xx_cryp_aes.c ****     keyaddr+=4;
 130:libs/STM32F4xx_StdPeriph_Driver/src/stm32f4xx_cryp_aes.c ****     AES_CRYP_KeyInitStructure.CRYP_Key1Right= __REV(*(uint32_t*)(keyaddr));
 164              		.loc 1 130 0
 165 005c 6368     		ldr	r3, [r4, #4]
 166              	.LVL22:
 167              	.LBB136:
 168              	.LBB137:
 169              		.loc 2 352 0
 170              	@ 352 "libs/CMSIS/Include/core_cmInstr.h" 1
 171 005e 1BBA     		rev r3, r3
 172              	@ 0 "" 2
 173              	.LVL23:
 174              		.thumb
 175              	.LBE137:
 176              	.LBE136:
 177              		.loc 1 130 0
 178 0060 0593     		str	r3, [sp, #20]
 179              	.LVL24:
 131:libs/STM32F4xx_StdPeriph_Driver/src/stm32f4xx_cryp_aes.c ****     keyaddr+=4;
 132:libs/STM32F4xx_StdPeriph_Driver/src/stm32f4xx_cryp_aes.c ****     AES_CRYP_KeyInitStructure.CRYP_Key2Left = __REV(*(uint32_t*)(keyaddr));
 180              		.loc 1 132 0
 181 0062 A368     		ldr	r3, [r4, #8]
 182              	.LVL25:
 183              	.LBB138:
 184              	.LBB139:
 185              		.loc 2 352 0
 186              	@ 352 "libs/CMSIS/Include/core_cmInstr.h" 1
 187 0064 1BBA     		rev r3, r3
 188              	@ 0 "" 2
 189              	.LVL26:
 190              		.thumb
 191              	.LBE139:
 192              	.LBE138:
 193              		.loc 1 132 0
 194 0066 0693     		str	r3, [sp, #24]
 195              	.LVL27:
 133:libs/STM32F4xx_StdPeriph_Driver/src/stm32f4xx_cryp_aes.c ****     keyaddr+=4;
 134:libs/STM32F4xx_StdPeriph_Driver/src/stm32f4xx_cryp_aes.c ****     AES_CRYP_KeyInitStructure.CRYP_Key2Right= __REV(*(uint32_t*)(keyaddr));
 196              		.loc 1 134 0
 197 0068 E368     		ldr	r3, [r4, #12]
 198              	.LVL28:
 199              	.LBB140:
 200              	.LBB141:
 201              		.loc 2 352 0
 202              	@ 352 "libs/CMSIS/Include/core_cmInstr.h" 1
 203 006a 1BBA     		rev r3, r3
 204              	@ 0 "" 2
 205              	.LVL29:
 206              		.thumb
 207              	.LBE141:
 208              	.LBE140:
 209              		.loc 1 134 0
 210 006c 0793     		str	r3, [sp, #28]
 211              	.LVL30:
 135:libs/STM32F4xx_StdPeriph_Driver/src/stm32f4xx_cryp_aes.c ****     keyaddr+=4;
 136:libs/STM32F4xx_StdPeriph_Driver/src/stm32f4xx_cryp_aes.c ****     AES_CRYP_KeyInitStructure.CRYP_Key3Left = __REV(*(uint32_t*)(keyaddr));
 212              		.loc 1 136 0
 213 006e 2369     		ldr	r3, [r4, #16]
 214              	.LVL31:
 215              	.LBB142:
 216              	.LBB143:
 217              		.loc 2 352 0
 218              	@ 352 "libs/CMSIS/Include/core_cmInstr.h" 1
 219 0070 1BBA     		rev r3, r3
 220              	@ 0 "" 2
 221              	.LVL32:
 222              		.thumb
 223              	.LBE143:
 224              	.LBE142:
 225              		.loc 1 136 0
 226 0072 0893     		str	r3, [sp, #32]
 227              	.LVL33:
 137:libs/STM32F4xx_StdPeriph_Driver/src/stm32f4xx_cryp_aes.c ****     keyaddr+=4;
 138:libs/STM32F4xx_StdPeriph_Driver/src/stm32f4xx_cryp_aes.c ****     AES_CRYP_KeyInitStructure.CRYP_Key3Right= __REV(*(uint32_t*)(keyaddr));
 228              		.loc 1 138 0
 229 0074 6369     		ldr	r3, [r4, #20]
 230              	.LVL34:
 231              	.LBB144:
 232              	.LBB145:
 233              		.loc 2 352 0
 234              	@ 352 "libs/CMSIS/Include/core_cmInstr.h" 1
 235 0076 1BBA     		rev r3, r3
 236              	@ 0 "" 2
 237              	.LVL35:
 238              		.thumb
 239              	.LBE145:
 240              	.LBE144:
 241              		.loc 1 138 0
 242 0078 0993     		str	r3, [sp, #36]
 139:libs/STM32F4xx_StdPeriph_Driver/src/stm32f4xx_cryp_aes.c ****     break;
 243              		.loc 1 139 0
 244 007a 1BE0     		b	.L2
 245              	.LVL36:
 246              	.L4:
 140:libs/STM32F4xx_StdPeriph_Driver/src/stm32f4xx_cryp_aes.c ****     case 256:
 141:libs/STM32F4xx_StdPeriph_Driver/src/stm32f4xx_cryp_aes.c ****     AES_CRYP_InitStructure.CRYP_KeySize  = CRYP_KeySize_256b;
 247              		.loc 1 141 0
 248 007c 4FF40073 		mov	r3, #512
 249 0080 ADF82E30 		strh	r3, [sp, #46]	@ movhi
 142:libs/STM32F4xx_StdPeriph_Driver/src/stm32f4xx_cryp_aes.c ****     AES_CRYP_KeyInitStructure.CRYP_Key0Left = __REV(*(uint32_t*)(keyaddr));
 250              		.loc 1 142 0
 251 0084 2368     		ldr	r3, [r4]
 252              	.LVL37:
 253              	.LBB146:
 254              	.LBB147:
 255              		.loc 2 352 0
 256              	@ 352 "libs/CMSIS/Include/core_cmInstr.h" 1
 257 0086 1BBA     		rev r3, r3
 258              	@ 0 "" 2
 259              	.LVL38:
 260              		.thumb
 261              	.LBE147:
 262              	.LBE146:
 263              		.loc 1 142 0
 264 0088 0293     		str	r3, [sp, #8]
 265              	.LVL39:
 143:libs/STM32F4xx_StdPeriph_Driver/src/stm32f4xx_cryp_aes.c ****     keyaddr+=4;
 144:libs/STM32F4xx_StdPeriph_Driver/src/stm32f4xx_cryp_aes.c ****     AES_CRYP_KeyInitStructure.CRYP_Key0Right= __REV(*(uint32_t*)(keyaddr));
 266              		.loc 1 144 0
 267 008a 6368     		ldr	r3, [r4, #4]
 268              	.LVL40:
 269              	.LBB148:
 270              	.LBB149:
 271              		.loc 2 352 0
 272              	@ 352 "libs/CMSIS/Include/core_cmInstr.h" 1
 273 008c 1BBA     		rev r3, r3
 274              	@ 0 "" 2
 275              	.LVL41:
 276              		.thumb
 277              	.LBE149:
 278              	.LBE148:
 279              		.loc 1 144 0
 280 008e 0393     		str	r3, [sp, #12]
 281              	.LVL42:
 145:libs/STM32F4xx_StdPeriph_Driver/src/stm32f4xx_cryp_aes.c ****     keyaddr+=4;
 146:libs/STM32F4xx_StdPeriph_Driver/src/stm32f4xx_cryp_aes.c ****     AES_CRYP_KeyInitStructure.CRYP_Key1Left = __REV(*(uint32_t*)(keyaddr));
 282              		.loc 1 146 0
 283 0090 A368     		ldr	r3, [r4, #8]
 284              	.LVL43:
 285              	.LBB150:
 286              	.LBB151:
 287              		.loc 2 352 0
 288              	@ 352 "libs/CMSIS/Include/core_cmInstr.h" 1
 289 0092 1BBA     		rev r3, r3
 290              	@ 0 "" 2
 291              	.LVL44:
 292              		.thumb
 293              	.LBE151:
 294              	.LBE150:
 295              		.loc 1 146 0
 296 0094 0493     		str	r3, [sp, #16]
 297              	.LVL45:
 147:libs/STM32F4xx_StdPeriph_Driver/src/stm32f4xx_cryp_aes.c ****     keyaddr+=4;
 148:libs/STM32F4xx_StdPeriph_Driver/src/stm32f4xx_cryp_aes.c ****     AES_CRYP_KeyInitStructure.CRYP_Key1Right= __REV(*(uint32_t*)(keyaddr));
 298              		.loc 1 148 0
 299 0096 E368     		ldr	r3, [r4, #12]
 300              	.LVL46:
 301              	.LBB152:
 302              	.LBB153:
 303              		.loc 2 352 0
 304              	@ 352 "libs/CMSIS/Include/core_cmInstr.h" 1
 305 0098 1BBA     		rev r3, r3
 306              	@ 0 "" 2
 307              	.LVL47:
 308              		.thumb
 309              	.LBE153:
 310              	.LBE152:
 311              		.loc 1 148 0
 312 009a 0593     		str	r3, [sp, #20]
 313              	.LVL48:
 149:libs/STM32F4xx_StdPeriph_Driver/src/stm32f4xx_cryp_aes.c ****     keyaddr+=4;
 150:libs/STM32F4xx_StdPeriph_Driver/src/stm32f4xx_cryp_aes.c ****     AES_CRYP_KeyInitStructure.CRYP_Key2Left = __REV(*(uint32_t*)(keyaddr));
 314              		.loc 1 150 0
 315 009c 2369     		ldr	r3, [r4, #16]
 316              	.LVL49:
 317              	.LBB154:
 318              	.LBB155:
 319              		.loc 2 352 0
 320              	@ 352 "libs/CMSIS/Include/core_cmInstr.h" 1
 321 009e 1BBA     		rev r3, r3
 322              	@ 0 "" 2
 323              	.LVL50:
 324              		.thumb
 325              	.LBE155:
 326              	.LBE154:
 327              		.loc 1 150 0
 328 00a0 0693     		str	r3, [sp, #24]
 329              	.LVL51:
 151:libs/STM32F4xx_StdPeriph_Driver/src/stm32f4xx_cryp_aes.c ****     keyaddr+=4;
 152:libs/STM32F4xx_StdPeriph_Driver/src/stm32f4xx_cryp_aes.c ****     AES_CRYP_KeyInitStructure.CRYP_Key2Right= __REV(*(uint32_t*)(keyaddr));
 330              		.loc 1 152 0
 331 00a2 6369     		ldr	r3, [r4, #20]
 332              	.LVL52:
 333              	.LBB156:
 334              	.LBB157:
 335              		.loc 2 352 0
 336              	@ 352 "libs/CMSIS/Include/core_cmInstr.h" 1
 337 00a4 1BBA     		rev r3, r3
 338              	@ 0 "" 2
 339              	.LVL53:
 340              		.thumb
 341              	.LBE157:
 342              	.LBE156:
 343              		.loc 1 152 0
 344 00a6 0793     		str	r3, [sp, #28]
 345              	.LVL54:
 153:libs/STM32F4xx_StdPeriph_Driver/src/stm32f4xx_cryp_aes.c ****     keyaddr+=4;
 154:libs/STM32F4xx_StdPeriph_Driver/src/stm32f4xx_cryp_aes.c ****     AES_CRYP_KeyInitStructure.CRYP_Key3Left = __REV(*(uint32_t*)(keyaddr));
 346              		.loc 1 154 0
 347 00a8 A369     		ldr	r3, [r4, #24]
 348              	.LVL55:
 349              	.LBB158:
 350              	.LBB159:
 351              		.loc 2 352 0
 352              	@ 352 "libs/CMSIS/Include/core_cmInstr.h" 1
 353 00aa 1BBA     		rev r3, r3
 354              	@ 0 "" 2
 355              	.LVL56:
 356              		.thumb
 357              	.LBE159:
 358              	.LBE158:
 359              		.loc 1 154 0
 360 00ac 0893     		str	r3, [sp, #32]
 361              	.LVL57:
 155:libs/STM32F4xx_StdPeriph_Driver/src/stm32f4xx_cryp_aes.c ****     keyaddr+=4;
 156:libs/STM32F4xx_StdPeriph_Driver/src/stm32f4xx_cryp_aes.c ****     AES_CRYP_KeyInitStructure.CRYP_Key3Right= __REV(*(uint32_t*)(keyaddr));
 362              		.loc 1 156 0
 363 00ae E369     		ldr	r3, [r4, #28]
 364              	.LVL58:
 365              	.LBB160:
 366              	.LBB161:
 367              		.loc 2 352 0
 368              	@ 352 "libs/CMSIS/Include/core_cmInstr.h" 1
 369 00b0 1BBA     		rev r3, r3
 370              	@ 0 "" 2
 371              	.LVL59:
 372              		.thumb
 373              	.LBE161:
 374              	.LBE160:
 375              		.loc 1 156 0
 376 00b2 0993     		str	r3, [sp, #36]
 377              	.LVL60:
 378              	.L2:
 157:libs/STM32F4xx_StdPeriph_Driver/src/stm32f4xx_cryp_aes.c ****     break;
 158:libs/STM32F4xx_StdPeriph_Driver/src/stm32f4xx_cryp_aes.c ****     default:
 159:libs/STM32F4xx_StdPeriph_Driver/src/stm32f4xx_cryp_aes.c ****     break;
 160:libs/STM32F4xx_StdPeriph_Driver/src/stm32f4xx_cryp_aes.c ****   }
 161:libs/STM32F4xx_StdPeriph_Driver/src/stm32f4xx_cryp_aes.c **** 
 162:libs/STM32F4xx_StdPeriph_Driver/src/stm32f4xx_cryp_aes.c ****   /*------------------ AES Decryption ------------------*/
 163:libs/STM32F4xx_StdPeriph_Driver/src/stm32f4xx_cryp_aes.c ****   if(Mode == MODE_DECRYPT) /* AES decryption */
 379              		.loc 1 163 0
 380 00b4 47BB     		cbnz	r7, .L6
 164:libs/STM32F4xx_StdPeriph_Driver/src/stm32f4xx_cryp_aes.c ****   {
 165:libs/STM32F4xx_StdPeriph_Driver/src/stm32f4xx_cryp_aes.c ****     /* Flush IN/OUT FIFOs */
 166:libs/STM32F4xx_StdPeriph_Driver/src/stm32f4xx_cryp_aes.c ****     CRYP_FIFOFlush();
 381              		.loc 1 166 0
 382 00b6 FFF7FEFF 		bl	CRYP_FIFOFlush
 383              	.LVL61:
 167:libs/STM32F4xx_StdPeriph_Driver/src/stm32f4xx_cryp_aes.c **** 
 168:libs/STM32F4xx_StdPeriph_Driver/src/stm32f4xx_cryp_aes.c ****     /* Crypto Init for Key preparation for decryption process */
 169:libs/STM32F4xx_StdPeriph_Driver/src/stm32f4xx_cryp_aes.c ****     AES_CRYP_InitStructure.CRYP_AlgoDir = CRYP_AlgoDir_Decrypt;
 384              		.loc 1 169 0
 385 00ba 0423     		movs	r3, #4
 386 00bc ADF82830 		strh	r3, [sp, #40]	@ movhi
 170:libs/STM32F4xx_StdPeriph_Driver/src/stm32f4xx_cryp_aes.c ****     AES_CRYP_InitStructure.CRYP_AlgoMode = CRYP_AlgoMode_AES_Key;
 387              		.loc 1 170 0
 388 00c0 3823     		movs	r3, #56
 389 00c2 ADF82A30 		strh	r3, [sp, #42]	@ movhi
 171:libs/STM32F4xx_StdPeriph_Driver/src/stm32f4xx_cryp_aes.c ****     AES_CRYP_InitStructure.CRYP_DataType = CRYP_DataType_32b;
 390              		.loc 1 171 0
 391 00c6 0023     		movs	r3, #0
 392 00c8 ADF82C30 		strh	r3, [sp, #44]	@ movhi
 172:libs/STM32F4xx_StdPeriph_Driver/src/stm32f4xx_cryp_aes.c ****     CRYP_Init(&AES_CRYP_InitStructure);
 393              		.loc 1 172 0
 394 00cc 0AA8     		add	r0, sp, #40
 395 00ce FFF7FEFF 		bl	CRYP_Init
 396              	.LVL62:
 173:libs/STM32F4xx_StdPeriph_Driver/src/stm32f4xx_cryp_aes.c **** 
 174:libs/STM32F4xx_StdPeriph_Driver/src/stm32f4xx_cryp_aes.c ****     /* Key Initialisation */
 175:libs/STM32F4xx_StdPeriph_Driver/src/stm32f4xx_cryp_aes.c ****     CRYP_KeyInit(&AES_CRYP_KeyInitStructure);
 397              		.loc 1 175 0
 398 00d2 02A8     		add	r0, sp, #8
 399 00d4 FFF7FEFF 		bl	CRYP_KeyInit
 400              	.LVL63:
 176:libs/STM32F4xx_StdPeriph_Driver/src/stm32f4xx_cryp_aes.c **** 
 177:libs/STM32F4xx_StdPeriph_Driver/src/stm32f4xx_cryp_aes.c ****     /* Enable Crypto processor */
 178:libs/STM32F4xx_StdPeriph_Driver/src/stm32f4xx_cryp_aes.c ****     CRYP_Cmd(ENABLE);
 401              		.loc 1 178 0
 402 00d8 0120     		movs	r0, #1
 403 00da FFF7FEFF 		bl	CRYP_Cmd
 404              	.LVL64:
 179:libs/STM32F4xx_StdPeriph_Driver/src/stm32f4xx_cryp_aes.c **** 
 180:libs/STM32F4xx_StdPeriph_Driver/src/stm32f4xx_cryp_aes.c ****     /* wait until the Busy flag is RESET */
 181:libs/STM32F4xx_StdPeriph_Driver/src/stm32f4xx_cryp_aes.c ****     do
 182:libs/STM32F4xx_StdPeriph_Driver/src/stm32f4xx_cryp_aes.c ****     {
 183:libs/STM32F4xx_StdPeriph_Driver/src/stm32f4xx_cryp_aes.c ****       busystatus = CRYP_GetFlagStatus(CRYP_FLAG_BUSY);
 405              		.loc 1 183 0
 406 00de 1024     		movs	r4, #16
 407              	.LVL65:
 408              	.L8:
 409              		.loc 1 183 0 is_stmt 0 discriminator 1
 410 00e0 2046     		mov	r0, r4
 411 00e2 FFF7FEFF 		bl	CRYP_GetFlagStatus
 412              	.LVL66:
 413 00e6 0246     		mov	r2, r0
 414              	.LVL67:
 184:libs/STM32F4xx_StdPeriph_Driver/src/stm32f4xx_cryp_aes.c ****       counter++;
 415              		.loc 1 184 0 is_stmt 1 discriminator 1
 416 00e8 019B     		ldr	r3, [sp, #4]
 417 00ea 0133     		adds	r3, r3, #1
 418 00ec 0193     		str	r3, [sp, #4]
 185:libs/STM32F4xx_StdPeriph_Driver/src/stm32f4xx_cryp_aes.c ****     }while ((counter != AESBUSY_TIMEOUT) && (busystatus != RESET));
 419              		.loc 1 185 0 discriminator 1
 420 00ee 019B     		ldr	r3, [sp, #4]
 421 00f0 B3F5803F 		cmp	r3, #65536
 422 00f4 01D0     		beq	.L7
 423 00f6 0028     		cmp	r0, #0
 424 00f8 F2D1     		bne	.L8
 425              	.L7:
 186:libs/STM32F4xx_StdPeriph_Driver/src/stm32f4xx_cryp_aes.c **** 
 187:libs/STM32F4xx_StdPeriph_Driver/src/stm32f4xx_cryp_aes.c ****     if (busystatus != RESET)
 188:libs/STM32F4xx_StdPeriph_Driver/src/stm32f4xx_cryp_aes.c ****    {
 189:libs/STM32F4xx_StdPeriph_Driver/src/stm32f4xx_cryp_aes.c ****        status = ERROR;
 426              		.loc 1 189 0
 427 00fa 0027     		movs	r7, #0
 187:libs/STM32F4xx_StdPeriph_Driver/src/stm32f4xx_cryp_aes.c ****    {
 428              		.loc 1 187 0
 429 00fc 62B9     		cbnz	r2, .L9
 190:libs/STM32F4xx_StdPeriph_Driver/src/stm32f4xx_cryp_aes.c ****     }
 191:libs/STM32F4xx_StdPeriph_Driver/src/stm32f4xx_cryp_aes.c ****     else
 192:libs/STM32F4xx_StdPeriph_Driver/src/stm32f4xx_cryp_aes.c ****     {
 193:libs/STM32F4xx_StdPeriph_Driver/src/stm32f4xx_cryp_aes.c ****       /* Crypto Init for decryption process */  
 194:libs/STM32F4xx_StdPeriph_Driver/src/stm32f4xx_cryp_aes.c ****       AES_CRYP_InitStructure.CRYP_AlgoDir = CRYP_AlgoDir_Decrypt;
 430              		.loc 1 194 0
 431 00fe 0423     		movs	r3, #4
 432 0100 ADF82830 		strh	r3, [sp, #40]	@ movhi
 105:libs/STM32F4xx_StdPeriph_Driver/src/stm32f4xx_cryp_aes.c ****   uint32_t keyaddr    = (uint32_t)Key;
 433              		.loc 1 105 0
 434 0104 0127     		movs	r7, #1
 435 0106 07E0     		b	.L9
 436              	.LVL68:
 437              	.L6:
 195:libs/STM32F4xx_StdPeriph_Driver/src/stm32f4xx_cryp_aes.c ****     }
 196:libs/STM32F4xx_StdPeriph_Driver/src/stm32f4xx_cryp_aes.c ****   }
 197:libs/STM32F4xx_StdPeriph_Driver/src/stm32f4xx_cryp_aes.c ****   /*------------------ AES Encryption ------------------*/
 198:libs/STM32F4xx_StdPeriph_Driver/src/stm32f4xx_cryp_aes.c ****   else /* AES encryption */
 199:libs/STM32F4xx_StdPeriph_Driver/src/stm32f4xx_cryp_aes.c ****   {
 200:libs/STM32F4xx_StdPeriph_Driver/src/stm32f4xx_cryp_aes.c **** 
 201:libs/STM32F4xx_StdPeriph_Driver/src/stm32f4xx_cryp_aes.c ****     CRYP_KeyInit(&AES_CRYP_KeyInitStructure);
 438              		.loc 1 201 0
 439 0108 02A8     		add	r0, sp, #8
 440 010a FFF7FEFF 		bl	CRYP_KeyInit
 441              	.LVL69:
 202:libs/STM32F4xx_StdPeriph_Driver/src/stm32f4xx_cryp_aes.c **** 
 203:libs/STM32F4xx_StdPeriph_Driver/src/stm32f4xx_cryp_aes.c ****     /* Crypto Init for Encryption process */
 204:libs/STM32F4xx_StdPeriph_Driver/src/stm32f4xx_cryp_aes.c ****     AES_CRYP_InitStructure.CRYP_AlgoDir  = CRYP_AlgoDir_Encrypt;
 442              		.loc 1 204 0
 443 010e 0023     		movs	r3, #0
 444 0110 ADF82830 		strh	r3, [sp, #40]	@ movhi
 105:libs/STM32F4xx_StdPeriph_Driver/src/stm32f4xx_cryp_aes.c ****   uint32_t keyaddr    = (uint32_t)Key;
 445              		.loc 1 105 0
 446 0114 0127     		movs	r7, #1
 447 0116 FFE7     		b	.L9
 448              	.LVL70:
 449              	.L9:
 205:libs/STM32F4xx_StdPeriph_Driver/src/stm32f4xx_cryp_aes.c ****   }
 206:libs/STM32F4xx_StdPeriph_Driver/src/stm32f4xx_cryp_aes.c **** 
 207:libs/STM32F4xx_StdPeriph_Driver/src/stm32f4xx_cryp_aes.c ****   AES_CRYP_InitStructure.CRYP_AlgoMode = CRYP_AlgoMode_AES_ECB;
 450              		.loc 1 207 0
 451 0118 2023     		movs	r3, #32
 452 011a ADF82A30 		strh	r3, [sp, #42]	@ movhi
 208:libs/STM32F4xx_StdPeriph_Driver/src/stm32f4xx_cryp_aes.c ****   AES_CRYP_InitStructure.CRYP_DataType = CRYP_DataType_8b;
 453              		.loc 1 208 0
 454 011e 8023     		movs	r3, #128
 455 0120 ADF82C30 		strh	r3, [sp, #44]	@ movhi
 209:libs/STM32F4xx_StdPeriph_Driver/src/stm32f4xx_cryp_aes.c ****   CRYP_Init(&AES_CRYP_InitStructure);
 456              		.loc 1 209 0
 457 0124 0AA8     		add	r0, sp, #40
 458 0126 FFF7FEFF 		bl	CRYP_Init
 459              	.LVL71:
 210:libs/STM32F4xx_StdPeriph_Driver/src/stm32f4xx_cryp_aes.c **** 
 211:libs/STM32F4xx_StdPeriph_Driver/src/stm32f4xx_cryp_aes.c ****   /* Flush IN/OUT FIFOs */
 212:libs/STM32F4xx_StdPeriph_Driver/src/stm32f4xx_cryp_aes.c ****   CRYP_FIFOFlush();
 460              		.loc 1 212 0
 461 012a FFF7FEFF 		bl	CRYP_FIFOFlush
 462              	.LVL72:
 213:libs/STM32F4xx_StdPeriph_Driver/src/stm32f4xx_cryp_aes.c **** 
 214:libs/STM32F4xx_StdPeriph_Driver/src/stm32f4xx_cryp_aes.c ****   /* Enable Crypto processor */
 215:libs/STM32F4xx_StdPeriph_Driver/src/stm32f4xx_cryp_aes.c ****   CRYP_Cmd(ENABLE);
 463              		.loc 1 215 0
 464 012e 0120     		movs	r0, #1
 465 0130 FFF7FEFF 		bl	CRYP_Cmd
 466              	.LVL73:
 216:libs/STM32F4xx_StdPeriph_Driver/src/stm32f4xx_cryp_aes.c **** 
 217:libs/STM32F4xx_StdPeriph_Driver/src/stm32f4xx_cryp_aes.c ****   for(i=0; ((i<Ilength) && (status != ERROR)); i+=16)
 467              		.loc 1 217 0
 468 0134 0026     		movs	r6, #0
 218:libs/STM32F4xx_StdPeriph_Driver/src/stm32f4xx_cryp_aes.c ****   {
 219:libs/STM32F4xx_StdPeriph_Driver/src/stm32f4xx_cryp_aes.c **** 
 220:libs/STM32F4xx_StdPeriph_Driver/src/stm32f4xx_cryp_aes.c ****     /* Write the Input block in the IN FIFO */
 221:libs/STM32F4xx_StdPeriph_Driver/src/stm32f4xx_cryp_aes.c ****     CRYP_DataIn(*(uint32_t*)(inputaddr));
 222:libs/STM32F4xx_StdPeriph_Driver/src/stm32f4xx_cryp_aes.c ****     inputaddr+=4;
 223:libs/STM32F4xx_StdPeriph_Driver/src/stm32f4xx_cryp_aes.c ****     CRYP_DataIn(*(uint32_t*)(inputaddr));
 224:libs/STM32F4xx_StdPeriph_Driver/src/stm32f4xx_cryp_aes.c ****     inputaddr+=4;
 225:libs/STM32F4xx_StdPeriph_Driver/src/stm32f4xx_cryp_aes.c ****     CRYP_DataIn(*(uint32_t*)(inputaddr));
 226:libs/STM32F4xx_StdPeriph_Driver/src/stm32f4xx_cryp_aes.c ****     inputaddr+=4;
 227:libs/STM32F4xx_StdPeriph_Driver/src/stm32f4xx_cryp_aes.c ****     CRYP_DataIn(*(uint32_t*)(inputaddr));
 228:libs/STM32F4xx_StdPeriph_Driver/src/stm32f4xx_cryp_aes.c ****     inputaddr+=4;
 229:libs/STM32F4xx_StdPeriph_Driver/src/stm32f4xx_cryp_aes.c **** 
 230:libs/STM32F4xx_StdPeriph_Driver/src/stm32f4xx_cryp_aes.c ****     /* Wait until the complete message has been processed */
 231:libs/STM32F4xx_StdPeriph_Driver/src/stm32f4xx_cryp_aes.c ****     counter = 0;
 469              		.loc 1 231 0
 470 0136 B046     		mov	r8, r6
 232:libs/STM32F4xx_StdPeriph_Driver/src/stm32f4xx_cryp_aes.c ****     do
 233:libs/STM32F4xx_StdPeriph_Driver/src/stm32f4xx_cryp_aes.c ****     {
 234:libs/STM32F4xx_StdPeriph_Driver/src/stm32f4xx_cryp_aes.c ****       busystatus = CRYP_GetFlagStatus(CRYP_FLAG_BUSY);
 471              		.loc 1 234 0
 472 0138 1024     		movs	r4, #16
 217:libs/STM32F4xx_StdPeriph_Driver/src/stm32f4xx_cryp_aes.c ****   {
 473              		.loc 1 217 0
 474 013a 31E0     		b	.L10
 475              	.LVL74:
 476              	.L14:
 221:libs/STM32F4xx_StdPeriph_Driver/src/stm32f4xx_cryp_aes.c ****     inputaddr+=4;
 477              		.loc 1 221 0
 478 013c 2868     		ldr	r0, [r5]
 479 013e FFF7FEFF 		bl	CRYP_DataIn
 480              	.LVL75:
 223:libs/STM32F4xx_StdPeriph_Driver/src/stm32f4xx_cryp_aes.c ****     inputaddr+=4;
 481              		.loc 1 223 0
 482 0142 6868     		ldr	r0, [r5, #4]
 483 0144 FFF7FEFF 		bl	CRYP_DataIn
 484              	.LVL76:
 225:libs/STM32F4xx_StdPeriph_Driver/src/stm32f4xx_cryp_aes.c ****     inputaddr+=4;
 485              		.loc 1 225 0
 486 0148 A868     		ldr	r0, [r5, #8]
 487 014a FFF7FEFF 		bl	CRYP_DataIn
 488              	.LVL77:
 227:libs/STM32F4xx_StdPeriph_Driver/src/stm32f4xx_cryp_aes.c ****     inputaddr+=4;
 489              		.loc 1 227 0
 490 014e E868     		ldr	r0, [r5, #12]
 491 0150 FFF7FEFF 		bl	CRYP_DataIn
 492              	.LVL78:
 228:libs/STM32F4xx_StdPeriph_Driver/src/stm32f4xx_cryp_aes.c **** 
 493              		.loc 1 228 0
 494 0154 1035     		adds	r5, r5, #16
 495              	.LVL79:
 231:libs/STM32F4xx_StdPeriph_Driver/src/stm32f4xx_cryp_aes.c ****     do
 496              		.loc 1 231 0
 497 0156 CDF80480 		str	r8, [sp, #4]
 498              	.L12:
 499              		.loc 1 234 0 discriminator 1
 500 015a 2046     		mov	r0, r4
 501 015c FFF7FEFF 		bl	CRYP_GetFlagStatus
 502              	.LVL80:
 503 0160 0246     		mov	r2, r0
 504              	.LVL81:
 235:libs/STM32F4xx_StdPeriph_Driver/src/stm32f4xx_cryp_aes.c ****       counter++;
 505              		.loc 1 235 0 discriminator 1
 506 0162 019B     		ldr	r3, [sp, #4]
 507 0164 0133     		adds	r3, r3, #1
 508 0166 0193     		str	r3, [sp, #4]
 236:libs/STM32F4xx_StdPeriph_Driver/src/stm32f4xx_cryp_aes.c ****     }while ((counter != AESBUSY_TIMEOUT) && (busystatus != RESET));
 509              		.loc 1 236 0 discriminator 1
 510 0168 019B     		ldr	r3, [sp, #4]
 511 016a B3F5803F 		cmp	r3, #65536
 512 016e 01D0     		beq	.L11
 513 0170 0028     		cmp	r0, #0
 514 0172 F2D1     		bne	.L12
 515              	.L11:
 237:libs/STM32F4xx_StdPeriph_Driver/src/stm32f4xx_cryp_aes.c **** 
 238:libs/STM32F4xx_StdPeriph_Driver/src/stm32f4xx_cryp_aes.c ****     if (busystatus != RESET)
 516              		.loc 1 238 0
 517 0174 92B9     		cbnz	r2, .L16
 239:libs/STM32F4xx_StdPeriph_Driver/src/stm32f4xx_cryp_aes.c ****    {
 240:libs/STM32F4xx_StdPeriph_Driver/src/stm32f4xx_cryp_aes.c ****        status = ERROR;
 241:libs/STM32F4xx_StdPeriph_Driver/src/stm32f4xx_cryp_aes.c ****     }
 242:libs/STM32F4xx_StdPeriph_Driver/src/stm32f4xx_cryp_aes.c ****     else
 243:libs/STM32F4xx_StdPeriph_Driver/src/stm32f4xx_cryp_aes.c ****     {
 244:libs/STM32F4xx_StdPeriph_Driver/src/stm32f4xx_cryp_aes.c **** 
 245:libs/STM32F4xx_StdPeriph_Driver/src/stm32f4xx_cryp_aes.c ****       /* Read the Output block from the Output FIFO */
 246:libs/STM32F4xx_StdPeriph_Driver/src/stm32f4xx_cryp_aes.c ****       *(uint32_t*)(outputaddr) = CRYP_DataOut();
 518              		.loc 1 246 0
 519 0176 FFF7FEFF 		bl	CRYP_DataOut
 520              	.LVL82:
 521 017a C9F80000 		str	r0, [r9]
 522              	.LVL83:
 247:libs/STM32F4xx_StdPeriph_Driver/src/stm32f4xx_cryp_aes.c ****       outputaddr+=4;
 248:libs/STM32F4xx_StdPeriph_Driver/src/stm32f4xx_cryp_aes.c ****       *(uint32_t*)(outputaddr) = CRYP_DataOut();
 523              		.loc 1 248 0
 524 017e FFF7FEFF 		bl	CRYP_DataOut
 525              	.LVL84:
 526 0182 C9F80400 		str	r0, [r9, #4]
 527              	.LVL85:
 249:libs/STM32F4xx_StdPeriph_Driver/src/stm32f4xx_cryp_aes.c ****       outputaddr+=4;
 250:libs/STM32F4xx_StdPeriph_Driver/src/stm32f4xx_cryp_aes.c ****       *(uint32_t*)(outputaddr) = CRYP_DataOut();
 528              		.loc 1 250 0
 529 0186 FFF7FEFF 		bl	CRYP_DataOut
 530              	.LVL86:
 531 018a C9F80800 		str	r0, [r9, #8]
 532              	.LVL87:
 251:libs/STM32F4xx_StdPeriph_Driver/src/stm32f4xx_cryp_aes.c ****       outputaddr+=4;
 252:libs/STM32F4xx_StdPeriph_Driver/src/stm32f4xx_cryp_aes.c ****       *(uint32_t*)(outputaddr) = CRYP_DataOut(); 
 533              		.loc 1 252 0
 534 018e FFF7FEFF 		bl	CRYP_DataOut
 535              	.LVL88:
 536 0192 C9F80C00 		str	r0, [r9, #12]
 253:libs/STM32F4xx_StdPeriph_Driver/src/stm32f4xx_cryp_aes.c ****       outputaddr+=4;
 537              		.loc 1 253 0
 538 0196 09F11009 		add	r9, r9, #16
 539              	.LVL89:
 540 019a 00E0     		b	.L13
 541              	.LVL90:
 542              	.L16:
 240:libs/STM32F4xx_StdPeriph_Driver/src/stm32f4xx_cryp_aes.c ****     }
 543              		.loc 1 240 0
 544 019c 4746     		mov	r7, r8
 545              	.LVL91:
 546              	.L13:
 217:libs/STM32F4xx_StdPeriph_Driver/src/stm32f4xx_cryp_aes.c ****   {
 547              		.loc 1 217 0
 548 019e 1036     		adds	r6, r6, #16
 549              	.LVL92:
 550              	.L10:
 217:libs/STM32F4xx_StdPeriph_Driver/src/stm32f4xx_cryp_aes.c ****   {
 551              		.loc 1 217 0 is_stmt 0 discriminator 1
 552 01a0 5645     		cmp	r6, r10
 553 01a2 2CBF     		ite	cs
 554 01a4 0023     		movcs	r3, #0
 555 01a6 07F00103 		andcc	r3, r7, #1
 556 01aa 002B     		cmp	r3, #0
 557 01ac C6D1     		bne	.L14
 254:libs/STM32F4xx_StdPeriph_Driver/src/stm32f4xx_cryp_aes.c ****     }
 255:libs/STM32F4xx_StdPeriph_Driver/src/stm32f4xx_cryp_aes.c ****   }
 256:libs/STM32F4xx_StdPeriph_Driver/src/stm32f4xx_cryp_aes.c **** 
 257:libs/STM32F4xx_StdPeriph_Driver/src/stm32f4xx_cryp_aes.c ****   /* Disable Crypto */
 258:libs/STM32F4xx_StdPeriph_Driver/src/stm32f4xx_cryp_aes.c ****   CRYP_Cmd(DISABLE);
 558              		.loc 1 258 0 is_stmt 1
 559 01ae 0020     		movs	r0, #0
 560 01b0 FFF7FEFF 		bl	CRYP_Cmd
 561              	.LVL93:
 259:libs/STM32F4xx_StdPeriph_Driver/src/stm32f4xx_cryp_aes.c **** 
 260:libs/STM32F4xx_StdPeriph_Driver/src/stm32f4xx_cryp_aes.c ****   return status; 
 261:libs/STM32F4xx_StdPeriph_Driver/src/stm32f4xx_cryp_aes.c **** }
 562              		.loc 1 261 0
 563 01b4 3846     		mov	r0, r7
 564 01b6 0CB0     		add	sp, sp, #48
 565              		@ sp needed
 566 01b8 BDE8F087 		pop	{r4, r5, r6, r7, r8, r9, r10, pc}
 567              		.cfi_endproc
 568              	.LFE110:
 570              		.section	.text.CRYP_AES_CBC,"ax",%progbits
 571              		.align	2
 572              		.global	CRYP_AES_CBC
 573              		.thumb
 574              		.thumb_func
 576              	CRYP_AES_CBC:
 577              	.LFB111:
 262:libs/STM32F4xx_StdPeriph_Driver/src/stm32f4xx_cryp_aes.c **** 
 263:libs/STM32F4xx_StdPeriph_Driver/src/stm32f4xx_cryp_aes.c **** /**
 264:libs/STM32F4xx_StdPeriph_Driver/src/stm32f4xx_cryp_aes.c ****   * @brief  Encrypt and decrypt using AES in CBC Mode
 265:libs/STM32F4xx_StdPeriph_Driver/src/stm32f4xx_cryp_aes.c ****   * @param  Mode: encryption or decryption Mode.
 266:libs/STM32F4xx_StdPeriph_Driver/src/stm32f4xx_cryp_aes.c ****   *          This parameter can be one of the following values:
 267:libs/STM32F4xx_StdPeriph_Driver/src/stm32f4xx_cryp_aes.c ****   *            @arg MODE_ENCRYPT: Encryption
 268:libs/STM32F4xx_StdPeriph_Driver/src/stm32f4xx_cryp_aes.c ****   *            @arg MODE_DECRYPT: Decryption
 269:libs/STM32F4xx_StdPeriph_Driver/src/stm32f4xx_cryp_aes.c ****   * @param  InitVectors: Initialisation Vectors used for AES algorithm.
 270:libs/STM32F4xx_StdPeriph_Driver/src/stm32f4xx_cryp_aes.c ****   * @param  Key: Key used for AES algorithm.
 271:libs/STM32F4xx_StdPeriph_Driver/src/stm32f4xx_cryp_aes.c ****   * @param  Keysize: length of the Key, must be a 128, 192 or 256.
 272:libs/STM32F4xx_StdPeriph_Driver/src/stm32f4xx_cryp_aes.c ****   * @param  Input: pointer to the Input buffer.
 273:libs/STM32F4xx_StdPeriph_Driver/src/stm32f4xx_cryp_aes.c ****   * @param  Ilength: length of the Input buffer, must be a multiple of 16.
 274:libs/STM32F4xx_StdPeriph_Driver/src/stm32f4xx_cryp_aes.c ****   * @param  Output: pointer to the returned buffer.
 275:libs/STM32F4xx_StdPeriph_Driver/src/stm32f4xx_cryp_aes.c ****   * @retval An ErrorStatus enumeration value:
 276:libs/STM32F4xx_StdPeriph_Driver/src/stm32f4xx_cryp_aes.c ****   *          - SUCCESS: Operation done
 277:libs/STM32F4xx_StdPeriph_Driver/src/stm32f4xx_cryp_aes.c ****   *          - ERROR: Operation failed
 278:libs/STM32F4xx_StdPeriph_Driver/src/stm32f4xx_cryp_aes.c ****   */
 279:libs/STM32F4xx_StdPeriph_Driver/src/stm32f4xx_cryp_aes.c **** ErrorStatus CRYP_AES_CBC(uint8_t Mode, uint8_t InitVectors[16], uint8_t *Key,
 280:libs/STM32F4xx_StdPeriph_Driver/src/stm32f4xx_cryp_aes.c ****                          uint16_t Keysize, uint8_t *Input, uint32_t Ilength,
 281:libs/STM32F4xx_StdPeriph_Driver/src/stm32f4xx_cryp_aes.c ****                          uint8_t *Output)
 282:libs/STM32F4xx_StdPeriph_Driver/src/stm32f4xx_cryp_aes.c **** {
 578              		.loc 1 282 0
 579              		.cfi_startproc
 580              		@ args = 12, pretend = 0, frame = 64
 581              		@ frame_needed = 0, uses_anonymous_args = 0
 582              	.LVL94:
 583 0000 2DE9F047 		push	{r4, r5, r6, r7, r8, r9, r10, lr}
 584              	.LCFI2:
 585              		.cfi_def_cfa_offset 32
 586              		.cfi_offset 4, -32
 587              		.cfi_offset 5, -28
 588              		.cfi_offset 6, -24
 589              		.cfi_offset 7, -20
 590              		.cfi_offset 8, -16
 591              		.cfi_offset 9, -12
 592              		.cfi_offset 10, -8
 593              		.cfi_offset 14, -4
 594 0004 90B0     		sub	sp, sp, #64
 595              	.LCFI3:
 596              		.cfi_def_cfa_offset 96
 597 0006 8046     		mov	r8, r0
 598 0008 0E46     		mov	r6, r1
 599 000a 1446     		mov	r4, r2
 600 000c 1F46     		mov	r7, r3
 601 000e DDF864A0 		ldr	r10, [sp, #100]
 283:libs/STM32F4xx_StdPeriph_Driver/src/stm32f4xx_cryp_aes.c ****   CRYP_InitTypeDef AES_CRYP_InitStructure;
 284:libs/STM32F4xx_StdPeriph_Driver/src/stm32f4xx_cryp_aes.c ****   CRYP_KeyInitTypeDef AES_CRYP_KeyInitStructure;
 285:libs/STM32F4xx_StdPeriph_Driver/src/stm32f4xx_cryp_aes.c ****   CRYP_IVInitTypeDef AES_CRYP_IVInitStructure;
 286:libs/STM32F4xx_StdPeriph_Driver/src/stm32f4xx_cryp_aes.c ****   __IO uint32_t counter = 0;
 602              		.loc 1 286 0
 603 0012 0023     		movs	r3, #0
 604              	.LVL95:
 605 0014 0193     		str	r3, [sp, #4]
 606              	.LVL96:
 287:libs/STM32F4xx_StdPeriph_Driver/src/stm32f4xx_cryp_aes.c ****   uint32_t busystatus = 0;
 288:libs/STM32F4xx_StdPeriph_Driver/src/stm32f4xx_cryp_aes.c ****   ErrorStatus status = SUCCESS;
 289:libs/STM32F4xx_StdPeriph_Driver/src/stm32f4xx_cryp_aes.c ****   uint32_t keyaddr    = (uint32_t)Key;
 290:libs/STM32F4xx_StdPeriph_Driver/src/stm32f4xx_cryp_aes.c ****   uint32_t inputaddr  = (uint32_t)Input;
 607              		.loc 1 290 0
 608 0016 189D     		ldr	r5, [sp, #96]
 609              	.LVL97:
 291:libs/STM32F4xx_StdPeriph_Driver/src/stm32f4xx_cryp_aes.c ****   uint32_t outputaddr = (uint32_t)Output;
 610              		.loc 1 291 0
 611 0018 DDF86890 		ldr	r9, [sp, #104]
 612              	.LVL98:
 292:libs/STM32F4xx_StdPeriph_Driver/src/stm32f4xx_cryp_aes.c ****   uint32_t ivaddr     = (uint32_t)InitVectors;
 293:libs/STM32F4xx_StdPeriph_Driver/src/stm32f4xx_cryp_aes.c ****   uint32_t i = 0;
 294:libs/STM32F4xx_StdPeriph_Driver/src/stm32f4xx_cryp_aes.c **** 
 295:libs/STM32F4xx_StdPeriph_Driver/src/stm32f4xx_cryp_aes.c ****   /* Crypto structures initialisation*/
 296:libs/STM32F4xx_StdPeriph_Driver/src/stm32f4xx_cryp_aes.c ****   CRYP_KeyStructInit(&AES_CRYP_KeyInitStructure);
 613              		.loc 1 296 0
 614 001c 06A8     		add	r0, sp, #24
 615              	.LVL99:
 616 001e FFF7FEFF 		bl	CRYP_KeyStructInit
 617              	.LVL100:
 297:libs/STM32F4xx_StdPeriph_Driver/src/stm32f4xx_cryp_aes.c **** 
 298:libs/STM32F4xx_StdPeriph_Driver/src/stm32f4xx_cryp_aes.c ****   switch(Keysize)
 618              		.loc 1 298 0
 619 0022 C02F     		cmp	r7, #192
 620 0024 14D0     		beq	.L21
 621 0026 B7F5807F 		cmp	r7, #256
 622 002a 28D0     		beq	.L22
 623 002c 802F     		cmp	r7, #128
 624 002e 42D1     		bne	.L20
 299:libs/STM32F4xx_StdPeriph_Driver/src/stm32f4xx_cryp_aes.c ****   {
 300:libs/STM32F4xx_StdPeriph_Driver/src/stm32f4xx_cryp_aes.c ****     case 128:
 301:libs/STM32F4xx_StdPeriph_Driver/src/stm32f4xx_cryp_aes.c ****     AES_CRYP_InitStructure.CRYP_KeySize = CRYP_KeySize_128b;
 625              		.loc 1 301 0
 626 0030 0023     		movs	r3, #0
 627 0032 ADF83E30 		strh	r3, [sp, #62]	@ movhi
 302:libs/STM32F4xx_StdPeriph_Driver/src/stm32f4xx_cryp_aes.c ****     AES_CRYP_KeyInitStructure.CRYP_Key2Left = __REV(*(uint32_t*)(keyaddr));
 628              		.loc 1 302 0
 629 0036 2368     		ldr	r3, [r4]
 630              	.LVL101:
 631              	.LBB162:
 632              	.LBB163:
 633              		.loc 2 352 0
 634              	@ 352 "libs/CMSIS/Include/core_cmInstr.h" 1
 635 0038 1BBA     		rev r3, r3
 636              	@ 0 "" 2
 637              	.LVL102:
 638              		.thumb
 639              	.LBE163:
 640              	.LBE162:
 641              		.loc 1 302 0
 642 003a 0A93     		str	r3, [sp, #40]
 643              	.LVL103:
 303:libs/STM32F4xx_StdPeriph_Driver/src/stm32f4xx_cryp_aes.c ****     keyaddr+=4;
 304:libs/STM32F4xx_StdPeriph_Driver/src/stm32f4xx_cryp_aes.c ****     AES_CRYP_KeyInitStructure.CRYP_Key2Right= __REV(*(uint32_t*)(keyaddr));
 644              		.loc 1 304 0
 645 003c 6368     		ldr	r3, [r4, #4]
 646              	.LVL104:
 647              	.LBB164:
 648              	.LBB165:
 649              		.loc 2 352 0
 650              	@ 352 "libs/CMSIS/Include/core_cmInstr.h" 1
 651 003e 1BBA     		rev r3, r3
 652              	@ 0 "" 2
 653              	.LVL105:
 654              		.thumb
 655              	.LBE165:
 656              	.LBE164:
 657              		.loc 1 304 0
 658 0040 0B93     		str	r3, [sp, #44]
 659              	.LVL106:
 305:libs/STM32F4xx_StdPeriph_Driver/src/stm32f4xx_cryp_aes.c ****     keyaddr+=4;
 306:libs/STM32F4xx_StdPeriph_Driver/src/stm32f4xx_cryp_aes.c ****     AES_CRYP_KeyInitStructure.CRYP_Key3Left = __REV(*(uint32_t*)(keyaddr));
 660              		.loc 1 306 0
 661 0042 A368     		ldr	r3, [r4, #8]
 662              	.LVL107:
 663              	.LBB166:
 664              	.LBB167:
 665              		.loc 2 352 0
 666              	@ 352 "libs/CMSIS/Include/core_cmInstr.h" 1
 667 0044 1BBA     		rev r3, r3
 668              	@ 0 "" 2
 669              	.LVL108:
 670              		.thumb
 671              	.LBE167:
 672              	.LBE166:
 673              		.loc 1 306 0
 674 0046 0C93     		str	r3, [sp, #48]
 675              	.LVL109:
 307:libs/STM32F4xx_StdPeriph_Driver/src/stm32f4xx_cryp_aes.c ****     keyaddr+=4;
 308:libs/STM32F4xx_StdPeriph_Driver/src/stm32f4xx_cryp_aes.c ****     AES_CRYP_KeyInitStructure.CRYP_Key3Right= __REV(*(uint32_t*)(keyaddr));
 676              		.loc 1 308 0
 677 0048 E368     		ldr	r3, [r4, #12]
 678              	.LVL110:
 679              	.LBB168:
 680              	.LBB169:
 681              		.loc 2 352 0
 682              	@ 352 "libs/CMSIS/Include/core_cmInstr.h" 1
 683 004a 1BBA     		rev r3, r3
 684              	@ 0 "" 2
 685              	.LVL111:
 686              		.thumb
 687              	.LBE169:
 688              	.LBE168:
 689              		.loc 1 308 0
 690 004c 0D93     		str	r3, [sp, #52]
 309:libs/STM32F4xx_StdPeriph_Driver/src/stm32f4xx_cryp_aes.c ****     break;
 691              		.loc 1 309 0
 692 004e 32E0     		b	.L20
 693              	.LVL112:
 694              	.L21:
 310:libs/STM32F4xx_StdPeriph_Driver/src/stm32f4xx_cryp_aes.c ****     case 192:
 311:libs/STM32F4xx_StdPeriph_Driver/src/stm32f4xx_cryp_aes.c ****     AES_CRYP_InitStructure.CRYP_KeySize  = CRYP_KeySize_192b;
 695              		.loc 1 311 0
 696 0050 4FF48073 		mov	r3, #256
 697 0054 ADF83E30 		strh	r3, [sp, #62]	@ movhi
 312:libs/STM32F4xx_StdPeriph_Driver/src/stm32f4xx_cryp_aes.c ****     AES_CRYP_KeyInitStructure.CRYP_Key1Left = __REV(*(uint32_t*)(keyaddr));
 698              		.loc 1 312 0
 699 0058 2368     		ldr	r3, [r4]
 700              	.LVL113:
 701              	.LBB170:
 702              	.LBB171:
 703              		.loc 2 352 0
 704              	@ 352 "libs/CMSIS/Include/core_cmInstr.h" 1
 705 005a 1BBA     		rev r3, r3
 706              	@ 0 "" 2
 707              	.LVL114:
 708              		.thumb
 709              	.LBE171:
 710              	.LBE170:
 711              		.loc 1 312 0
 712 005c 0893     		str	r3, [sp, #32]
 713              	.LVL115:
 313:libs/STM32F4xx_StdPeriph_Driver/src/stm32f4xx_cryp_aes.c ****     keyaddr+=4;
 314:libs/STM32F4xx_StdPeriph_Driver/src/stm32f4xx_cryp_aes.c ****     AES_CRYP_KeyInitStructure.CRYP_Key1Right= __REV(*(uint32_t*)(keyaddr));
 714              		.loc 1 314 0
 715 005e 6368     		ldr	r3, [r4, #4]
 716              	.LVL116:
 717              	.LBB172:
 718              	.LBB173:
 719              		.loc 2 352 0
 720              	@ 352 "libs/CMSIS/Include/core_cmInstr.h" 1
 721 0060 1BBA     		rev r3, r3
 722              	@ 0 "" 2
 723              	.LVL117:
 724              		.thumb
 725              	.LBE173:
 726              	.LBE172:
 727              		.loc 1 314 0
 728 0062 0993     		str	r3, [sp, #36]
 729              	.LVL118:
 315:libs/STM32F4xx_StdPeriph_Driver/src/stm32f4xx_cryp_aes.c ****     keyaddr+=4;
 316:libs/STM32F4xx_StdPeriph_Driver/src/stm32f4xx_cryp_aes.c ****     AES_CRYP_KeyInitStructure.CRYP_Key2Left = __REV(*(uint32_t*)(keyaddr));
 730              		.loc 1 316 0
 731 0064 A368     		ldr	r3, [r4, #8]
 732              	.LVL119:
 733              	.LBB174:
 734              	.LBB175:
 735              		.loc 2 352 0
 736              	@ 352 "libs/CMSIS/Include/core_cmInstr.h" 1
 737 0066 1BBA     		rev r3, r3
 738              	@ 0 "" 2
 739              	.LVL120:
 740              		.thumb
 741              	.LBE175:
 742              	.LBE174:
 743              		.loc 1 316 0
 744 0068 0A93     		str	r3, [sp, #40]
 745              	.LVL121:
 317:libs/STM32F4xx_StdPeriph_Driver/src/stm32f4xx_cryp_aes.c ****     keyaddr+=4;
 318:libs/STM32F4xx_StdPeriph_Driver/src/stm32f4xx_cryp_aes.c ****     AES_CRYP_KeyInitStructure.CRYP_Key2Right= __REV(*(uint32_t*)(keyaddr));
 746              		.loc 1 318 0
 747 006a E368     		ldr	r3, [r4, #12]
 748              	.LVL122:
 749              	.LBB176:
 750              	.LBB177:
 751              		.loc 2 352 0
 752              	@ 352 "libs/CMSIS/Include/core_cmInstr.h" 1
 753 006c 1BBA     		rev r3, r3
 754              	@ 0 "" 2
 755              	.LVL123:
 756              		.thumb
 757              	.LBE177:
 758              	.LBE176:
 759              		.loc 1 318 0
 760 006e 0B93     		str	r3, [sp, #44]
 761              	.LVL124:
 319:libs/STM32F4xx_StdPeriph_Driver/src/stm32f4xx_cryp_aes.c ****     keyaddr+=4;
 320:libs/STM32F4xx_StdPeriph_Driver/src/stm32f4xx_cryp_aes.c ****     AES_CRYP_KeyInitStructure.CRYP_Key3Left = __REV(*(uint32_t*)(keyaddr));
 762              		.loc 1 320 0
 763 0070 2369     		ldr	r3, [r4, #16]
 764              	.LVL125:
 765              	.LBB178:
 766              	.LBB179:
 767              		.loc 2 352 0
 768              	@ 352 "libs/CMSIS/Include/core_cmInstr.h" 1
 769 0072 1BBA     		rev r3, r3
 770              	@ 0 "" 2
 771              	.LVL126:
 772              		.thumb
 773              	.LBE179:
 774              	.LBE178:
 775              		.loc 1 320 0
 776 0074 0C93     		str	r3, [sp, #48]
 777              	.LVL127:
 321:libs/STM32F4xx_StdPeriph_Driver/src/stm32f4xx_cryp_aes.c ****     keyaddr+=4;
 322:libs/STM32F4xx_StdPeriph_Driver/src/stm32f4xx_cryp_aes.c ****     AES_CRYP_KeyInitStructure.CRYP_Key3Right= __REV(*(uint32_t*)(keyaddr));
 778              		.loc 1 322 0
 779 0076 6369     		ldr	r3, [r4, #20]
 780              	.LVL128:
 781              	.LBB180:
 782              	.LBB181:
 783              		.loc 2 352 0
 784              	@ 352 "libs/CMSIS/Include/core_cmInstr.h" 1
 785 0078 1BBA     		rev r3, r3
 786              	@ 0 "" 2
 787              	.LVL129:
 788              		.thumb
 789              	.LBE181:
 790              	.LBE180:
 791              		.loc 1 322 0
 792 007a 0D93     		str	r3, [sp, #52]
 323:libs/STM32F4xx_StdPeriph_Driver/src/stm32f4xx_cryp_aes.c ****     break;
 793              		.loc 1 323 0
 794 007c 1BE0     		b	.L20
 795              	.LVL130:
 796              	.L22:
 324:libs/STM32F4xx_StdPeriph_Driver/src/stm32f4xx_cryp_aes.c ****     case 256:
 325:libs/STM32F4xx_StdPeriph_Driver/src/stm32f4xx_cryp_aes.c ****     AES_CRYP_InitStructure.CRYP_KeySize  = CRYP_KeySize_256b;
 797              		.loc 1 325 0
 798 007e 4FF40073 		mov	r3, #512
 799 0082 ADF83E30 		strh	r3, [sp, #62]	@ movhi
 326:libs/STM32F4xx_StdPeriph_Driver/src/stm32f4xx_cryp_aes.c ****     AES_CRYP_KeyInitStructure.CRYP_Key0Left = __REV(*(uint32_t*)(keyaddr));
 800              		.loc 1 326 0
 801 0086 2368     		ldr	r3, [r4]
 802              	.LVL131:
 803              	.LBB182:
 804              	.LBB183:
 805              		.loc 2 352 0
 806              	@ 352 "libs/CMSIS/Include/core_cmInstr.h" 1
 807 0088 1BBA     		rev r3, r3
 808              	@ 0 "" 2
 809              	.LVL132:
 810              		.thumb
 811              	.LBE183:
 812              	.LBE182:
 813              		.loc 1 326 0
 814 008a 0693     		str	r3, [sp, #24]
 815              	.LVL133:
 327:libs/STM32F4xx_StdPeriph_Driver/src/stm32f4xx_cryp_aes.c ****     keyaddr+=4;
 328:libs/STM32F4xx_StdPeriph_Driver/src/stm32f4xx_cryp_aes.c ****     AES_CRYP_KeyInitStructure.CRYP_Key0Right= __REV(*(uint32_t*)(keyaddr));
 816              		.loc 1 328 0
 817 008c 6368     		ldr	r3, [r4, #4]
 818              	.LVL134:
 819              	.LBB184:
 820              	.LBB185:
 821              		.loc 2 352 0
 822              	@ 352 "libs/CMSIS/Include/core_cmInstr.h" 1
 823 008e 1BBA     		rev r3, r3
 824              	@ 0 "" 2
 825              	.LVL135:
 826              		.thumb
 827              	.LBE185:
 828              	.LBE184:
 829              		.loc 1 328 0
 830 0090 0793     		str	r3, [sp, #28]
 831              	.LVL136:
 329:libs/STM32F4xx_StdPeriph_Driver/src/stm32f4xx_cryp_aes.c ****     keyaddr+=4;
 330:libs/STM32F4xx_StdPeriph_Driver/src/stm32f4xx_cryp_aes.c ****     AES_CRYP_KeyInitStructure.CRYP_Key1Left = __REV(*(uint32_t*)(keyaddr));
 832              		.loc 1 330 0
 833 0092 A368     		ldr	r3, [r4, #8]
 834              	.LVL137:
 835              	.LBB186:
 836              	.LBB187:
 837              		.loc 2 352 0
 838              	@ 352 "libs/CMSIS/Include/core_cmInstr.h" 1
 839 0094 1BBA     		rev r3, r3
 840              	@ 0 "" 2
 841              	.LVL138:
 842              		.thumb
 843              	.LBE187:
 844              	.LBE186:
 845              		.loc 1 330 0
 846 0096 0893     		str	r3, [sp, #32]
 847              	.LVL139:
 331:libs/STM32F4xx_StdPeriph_Driver/src/stm32f4xx_cryp_aes.c ****     keyaddr+=4;
 332:libs/STM32F4xx_StdPeriph_Driver/src/stm32f4xx_cryp_aes.c ****     AES_CRYP_KeyInitStructure.CRYP_Key1Right= __REV(*(uint32_t*)(keyaddr));
 848              		.loc 1 332 0
 849 0098 E368     		ldr	r3, [r4, #12]
 850              	.LVL140:
 851              	.LBB188:
 852              	.LBB189:
 853              		.loc 2 352 0
 854              	@ 352 "libs/CMSIS/Include/core_cmInstr.h" 1
 855 009a 1BBA     		rev r3, r3
 856              	@ 0 "" 2
 857              	.LVL141:
 858              		.thumb
 859              	.LBE189:
 860              	.LBE188:
 861              		.loc 1 332 0
 862 009c 0993     		str	r3, [sp, #36]
 863              	.LVL142:
 333:libs/STM32F4xx_StdPeriph_Driver/src/stm32f4xx_cryp_aes.c ****     keyaddr+=4;
 334:libs/STM32F4xx_StdPeriph_Driver/src/stm32f4xx_cryp_aes.c ****     AES_CRYP_KeyInitStructure.CRYP_Key2Left = __REV(*(uint32_t*)(keyaddr));
 864              		.loc 1 334 0
 865 009e 2369     		ldr	r3, [r4, #16]
 866              	.LVL143:
 867              	.LBB190:
 868              	.LBB191:
 869              		.loc 2 352 0
 870              	@ 352 "libs/CMSIS/Include/core_cmInstr.h" 1
 871 00a0 1BBA     		rev r3, r3
 872              	@ 0 "" 2
 873              	.LVL144:
 874              		.thumb
 875              	.LBE191:
 876              	.LBE190:
 877              		.loc 1 334 0
 878 00a2 0A93     		str	r3, [sp, #40]
 879              	.LVL145:
 335:libs/STM32F4xx_StdPeriph_Driver/src/stm32f4xx_cryp_aes.c ****     keyaddr+=4;
 336:libs/STM32F4xx_StdPeriph_Driver/src/stm32f4xx_cryp_aes.c ****     AES_CRYP_KeyInitStructure.CRYP_Key2Right= __REV(*(uint32_t*)(keyaddr));
 880              		.loc 1 336 0
 881 00a4 6369     		ldr	r3, [r4, #20]
 882              	.LVL146:
 883              	.LBB192:
 884              	.LBB193:
 885              		.loc 2 352 0
 886              	@ 352 "libs/CMSIS/Include/core_cmInstr.h" 1
 887 00a6 1BBA     		rev r3, r3
 888              	@ 0 "" 2
 889              	.LVL147:
 890              		.thumb
 891              	.LBE193:
 892              	.LBE192:
 893              		.loc 1 336 0
 894 00a8 0B93     		str	r3, [sp, #44]
 895              	.LVL148:
 337:libs/STM32F4xx_StdPeriph_Driver/src/stm32f4xx_cryp_aes.c ****     keyaddr+=4;
 338:libs/STM32F4xx_StdPeriph_Driver/src/stm32f4xx_cryp_aes.c ****     AES_CRYP_KeyInitStructure.CRYP_Key3Left = __REV(*(uint32_t*)(keyaddr));
 896              		.loc 1 338 0
 897 00aa A369     		ldr	r3, [r4, #24]
 898              	.LVL149:
 899              	.LBB194:
 900              	.LBB195:
 901              		.loc 2 352 0
 902              	@ 352 "libs/CMSIS/Include/core_cmInstr.h" 1
 903 00ac 1BBA     		rev r3, r3
 904              	@ 0 "" 2
 905              	.LVL150:
 906              		.thumb
 907              	.LBE195:
 908              	.LBE194:
 909              		.loc 1 338 0
 910 00ae 0C93     		str	r3, [sp, #48]
 911              	.LVL151:
 339:libs/STM32F4xx_StdPeriph_Driver/src/stm32f4xx_cryp_aes.c ****     keyaddr+=4;
 340:libs/STM32F4xx_StdPeriph_Driver/src/stm32f4xx_cryp_aes.c ****     AES_CRYP_KeyInitStructure.CRYP_Key3Right= __REV(*(uint32_t*)(keyaddr));
 912              		.loc 1 340 0
 913 00b0 E369     		ldr	r3, [r4, #28]
 914              	.LVL152:
 915              	.LBB196:
 916              	.LBB197:
 917              		.loc 2 352 0
 918              	@ 352 "libs/CMSIS/Include/core_cmInstr.h" 1
 919 00b2 1BBA     		rev r3, r3
 920              	@ 0 "" 2
 921              	.LVL153:
 922              		.thumb
 923              	.LBE197:
 924              	.LBE196:
 925              		.loc 1 340 0
 926 00b4 0D93     		str	r3, [sp, #52]
 927              	.LVL154:
 928              	.L20:
 341:libs/STM32F4xx_StdPeriph_Driver/src/stm32f4xx_cryp_aes.c ****     break;
 342:libs/STM32F4xx_StdPeriph_Driver/src/stm32f4xx_cryp_aes.c ****     default:
 343:libs/STM32F4xx_StdPeriph_Driver/src/stm32f4xx_cryp_aes.c ****     break;
 344:libs/STM32F4xx_StdPeriph_Driver/src/stm32f4xx_cryp_aes.c ****   }
 345:libs/STM32F4xx_StdPeriph_Driver/src/stm32f4xx_cryp_aes.c **** 
 346:libs/STM32F4xx_StdPeriph_Driver/src/stm32f4xx_cryp_aes.c ****   /* CRYP Initialization Vectors */
 347:libs/STM32F4xx_StdPeriph_Driver/src/stm32f4xx_cryp_aes.c ****   AES_CRYP_IVInitStructure.CRYP_IV0Left = __REV(*(uint32_t*)(ivaddr));
 929              		.loc 1 347 0
 930 00b6 3368     		ldr	r3, [r6]
 931              	.LVL155:
 932              	.LBB198:
 933              	.LBB199:
 934              		.loc 2 352 0
 935              	@ 352 "libs/CMSIS/Include/core_cmInstr.h" 1
 936 00b8 1BBA     		rev r3, r3
 937              	@ 0 "" 2
 938              	.LVL156:
 939              		.thumb
 940              	.LBE199:
 941              	.LBE198:
 942              		.loc 1 347 0
 943 00ba 0293     		str	r3, [sp, #8]
 944              	.LVL157:
 348:libs/STM32F4xx_StdPeriph_Driver/src/stm32f4xx_cryp_aes.c ****   ivaddr+=4;
 349:libs/STM32F4xx_StdPeriph_Driver/src/stm32f4xx_cryp_aes.c ****   AES_CRYP_IVInitStructure.CRYP_IV0Right= __REV(*(uint32_t*)(ivaddr));
 945              		.loc 1 349 0
 946 00bc 7368     		ldr	r3, [r6, #4]
 947              	.LVL158:
 948              	.LBB200:
 949              	.LBB201:
 950              		.loc 2 352 0
 951              	@ 352 "libs/CMSIS/Include/core_cmInstr.h" 1
 952 00be 1BBA     		rev r3, r3
 953              	@ 0 "" 2
 954              	.LVL159:
 955              		.thumb
 956              	.LBE201:
 957              	.LBE200:
 958              		.loc 1 349 0
 959 00c0 0393     		str	r3, [sp, #12]
 960              	.LVL160:
 350:libs/STM32F4xx_StdPeriph_Driver/src/stm32f4xx_cryp_aes.c ****   ivaddr+=4;
 351:libs/STM32F4xx_StdPeriph_Driver/src/stm32f4xx_cryp_aes.c ****   AES_CRYP_IVInitStructure.CRYP_IV1Left = __REV(*(uint32_t*)(ivaddr));
 961              		.loc 1 351 0
 962 00c2 B368     		ldr	r3, [r6, #8]
 963              	.LVL161:
 964              	.LBB202:
 965              	.LBB203:
 966              		.loc 2 352 0
 967              	@ 352 "libs/CMSIS/Include/core_cmInstr.h" 1
 968 00c4 1BBA     		rev r3, r3
 969              	@ 0 "" 2
 970              	.LVL162:
 971              		.thumb
 972              	.LBE203:
 973              	.LBE202:
 974              		.loc 1 351 0
 975 00c6 0493     		str	r3, [sp, #16]
 976              	.LVL163:
 352:libs/STM32F4xx_StdPeriph_Driver/src/stm32f4xx_cryp_aes.c ****   ivaddr+=4;
 353:libs/STM32F4xx_StdPeriph_Driver/src/stm32f4xx_cryp_aes.c ****   AES_CRYP_IVInitStructure.CRYP_IV1Right= __REV(*(uint32_t*)(ivaddr));
 977              		.loc 1 353 0
 978 00c8 F368     		ldr	r3, [r6, #12]
 979              	.LVL164:
 980              	.LBB204:
 981              	.LBB205:
 982              		.loc 2 352 0
 983              	@ 352 "libs/CMSIS/Include/core_cmInstr.h" 1
 984 00ca 1BBA     		rev r3, r3
 985              	@ 0 "" 2
 986              	.LVL165:
 987              		.thumb
 988              	.LBE205:
 989              	.LBE204:
 990              		.loc 1 353 0
 991 00cc 0593     		str	r3, [sp, #20]
 354:libs/STM32F4xx_StdPeriph_Driver/src/stm32f4xx_cryp_aes.c **** 
 355:libs/STM32F4xx_StdPeriph_Driver/src/stm32f4xx_cryp_aes.c **** 
 356:libs/STM32F4xx_StdPeriph_Driver/src/stm32f4xx_cryp_aes.c ****   /*------------------ AES Decryption ------------------*/
 357:libs/STM32F4xx_StdPeriph_Driver/src/stm32f4xx_cryp_aes.c ****   if(Mode == MODE_DECRYPT) /* AES decryption */
 992              		.loc 1 357 0
 993 00ce B8F1000F 		cmp	r8, #0
 994 00d2 28D1     		bne	.L24
 358:libs/STM32F4xx_StdPeriph_Driver/src/stm32f4xx_cryp_aes.c ****   {
 359:libs/STM32F4xx_StdPeriph_Driver/src/stm32f4xx_cryp_aes.c ****     /* Flush IN/OUT FIFOs */
 360:libs/STM32F4xx_StdPeriph_Driver/src/stm32f4xx_cryp_aes.c ****     CRYP_FIFOFlush();
 995              		.loc 1 360 0
 996 00d4 FFF7FEFF 		bl	CRYP_FIFOFlush
 997              	.LVL166:
 361:libs/STM32F4xx_StdPeriph_Driver/src/stm32f4xx_cryp_aes.c **** 
 362:libs/STM32F4xx_StdPeriph_Driver/src/stm32f4xx_cryp_aes.c ****     /* Crypto Init for Key preparation for decryption process */
 363:libs/STM32F4xx_StdPeriph_Driver/src/stm32f4xx_cryp_aes.c ****     AES_CRYP_InitStructure.CRYP_AlgoDir = CRYP_AlgoDir_Decrypt;
 998              		.loc 1 363 0
 999 00d8 0423     		movs	r3, #4
 1000 00da ADF83830 		strh	r3, [sp, #56]	@ movhi
 364:libs/STM32F4xx_StdPeriph_Driver/src/stm32f4xx_cryp_aes.c ****     AES_CRYP_InitStructure.CRYP_AlgoMode = CRYP_AlgoMode_AES_Key;
 1001              		.loc 1 364 0
 1002 00de 3823     		movs	r3, #56
 1003 00e0 ADF83A30 		strh	r3, [sp, #58]	@ movhi
 365:libs/STM32F4xx_StdPeriph_Driver/src/stm32f4xx_cryp_aes.c ****     AES_CRYP_InitStructure.CRYP_DataType = CRYP_DataType_32b;
 1004              		.loc 1 365 0
 1005 00e4 0023     		movs	r3, #0
 1006 00e6 ADF83C30 		strh	r3, [sp, #60]	@ movhi
 366:libs/STM32F4xx_StdPeriph_Driver/src/stm32f4xx_cryp_aes.c **** 
 367:libs/STM32F4xx_StdPeriph_Driver/src/stm32f4xx_cryp_aes.c ****     CRYP_Init(&AES_CRYP_InitStructure);
 1007              		.loc 1 367 0
 1008 00ea 0EA8     		add	r0, sp, #56
 1009 00ec FFF7FEFF 		bl	CRYP_Init
 1010              	.LVL167:
 368:libs/STM32F4xx_StdPeriph_Driver/src/stm32f4xx_cryp_aes.c **** 
 369:libs/STM32F4xx_StdPeriph_Driver/src/stm32f4xx_cryp_aes.c ****     /* Key Initialisation */
 370:libs/STM32F4xx_StdPeriph_Driver/src/stm32f4xx_cryp_aes.c ****     CRYP_KeyInit(&AES_CRYP_KeyInitStructure);
 1011              		.loc 1 370 0
 1012 00f0 06A8     		add	r0, sp, #24
 1013 00f2 FFF7FEFF 		bl	CRYP_KeyInit
 1014              	.LVL168:
 371:libs/STM32F4xx_StdPeriph_Driver/src/stm32f4xx_cryp_aes.c **** 
 372:libs/STM32F4xx_StdPeriph_Driver/src/stm32f4xx_cryp_aes.c ****     /* Enable Crypto processor */
 373:libs/STM32F4xx_StdPeriph_Driver/src/stm32f4xx_cryp_aes.c ****     CRYP_Cmd(ENABLE);
 1015              		.loc 1 373 0
 1016 00f6 0120     		movs	r0, #1
 1017 00f8 FFF7FEFF 		bl	CRYP_Cmd
 1018              	.LVL169:
 374:libs/STM32F4xx_StdPeriph_Driver/src/stm32f4xx_cryp_aes.c **** 
 375:libs/STM32F4xx_StdPeriph_Driver/src/stm32f4xx_cryp_aes.c ****     /* wait until the Busy flag is RESET */
 376:libs/STM32F4xx_StdPeriph_Driver/src/stm32f4xx_cryp_aes.c ****     do
 377:libs/STM32F4xx_StdPeriph_Driver/src/stm32f4xx_cryp_aes.c ****     {
 378:libs/STM32F4xx_StdPeriph_Driver/src/stm32f4xx_cryp_aes.c ****       busystatus = CRYP_GetFlagStatus(CRYP_FLAG_BUSY);
 1019              		.loc 1 378 0
 1020 00fc 1024     		movs	r4, #16
 1021              	.LVL170:
 1022              	.L26:
 1023              		.loc 1 378 0 is_stmt 0 discriminator 1
 1024 00fe 2046     		mov	r0, r4
 1025 0100 FFF7FEFF 		bl	CRYP_GetFlagStatus
 1026              	.LVL171:
 1027 0104 0246     		mov	r2, r0
 1028              	.LVL172:
 379:libs/STM32F4xx_StdPeriph_Driver/src/stm32f4xx_cryp_aes.c ****       counter++;
 1029              		.loc 1 379 0 is_stmt 1 discriminator 1
 1030 0106 019B     		ldr	r3, [sp, #4]
 1031 0108 0133     		adds	r3, r3, #1
 1032 010a 0193     		str	r3, [sp, #4]
 380:libs/STM32F4xx_StdPeriph_Driver/src/stm32f4xx_cryp_aes.c ****     }while ((counter != AESBUSY_TIMEOUT) && (busystatus != RESET));
 1033              		.loc 1 380 0 discriminator 1
 1034 010c 019B     		ldr	r3, [sp, #4]
 1035 010e B3F5803F 		cmp	r3, #65536
 1036 0112 01D0     		beq	.L25
 1037 0114 0028     		cmp	r0, #0
 1038 0116 F2D1     		bne	.L26
 1039              	.L25:
 381:libs/STM32F4xx_StdPeriph_Driver/src/stm32f4xx_cryp_aes.c **** 
 382:libs/STM32F4xx_StdPeriph_Driver/src/stm32f4xx_cryp_aes.c ****     if (busystatus != RESET)
 383:libs/STM32F4xx_StdPeriph_Driver/src/stm32f4xx_cryp_aes.c ****    {
 384:libs/STM32F4xx_StdPeriph_Driver/src/stm32f4xx_cryp_aes.c ****        status = ERROR;
 1040              		.loc 1 384 0
 1041 0118 0027     		movs	r7, #0
 382:libs/STM32F4xx_StdPeriph_Driver/src/stm32f4xx_cryp_aes.c ****    {
 1042              		.loc 1 382 0
 1043 011a 62B9     		cbnz	r2, .L27
 385:libs/STM32F4xx_StdPeriph_Driver/src/stm32f4xx_cryp_aes.c ****     }
 386:libs/STM32F4xx_StdPeriph_Driver/src/stm32f4xx_cryp_aes.c ****     else
 387:libs/STM32F4xx_StdPeriph_Driver/src/stm32f4xx_cryp_aes.c ****     {
 388:libs/STM32F4xx_StdPeriph_Driver/src/stm32f4xx_cryp_aes.c ****       /* Crypto Init for decryption process */  
 389:libs/STM32F4xx_StdPeriph_Driver/src/stm32f4xx_cryp_aes.c ****       AES_CRYP_InitStructure.CRYP_AlgoDir = CRYP_AlgoDir_Decrypt;
 1044              		.loc 1 389 0
 1045 011c 0423     		movs	r3, #4
 1046 011e ADF83830 		strh	r3, [sp, #56]	@ movhi
 288:libs/STM32F4xx_StdPeriph_Driver/src/stm32f4xx_cryp_aes.c ****   uint32_t keyaddr    = (uint32_t)Key;
 1047              		.loc 1 288 0
 1048 0122 0127     		movs	r7, #1
 1049 0124 07E0     		b	.L27
 1050              	.LVL173:
 1051              	.L24:
 390:libs/STM32F4xx_StdPeriph_Driver/src/stm32f4xx_cryp_aes.c ****     }
 391:libs/STM32F4xx_StdPeriph_Driver/src/stm32f4xx_cryp_aes.c ****   }
 392:libs/STM32F4xx_StdPeriph_Driver/src/stm32f4xx_cryp_aes.c ****   /*------------------ AES Encryption ------------------*/
 393:libs/STM32F4xx_StdPeriph_Driver/src/stm32f4xx_cryp_aes.c ****   else /* AES encryption */
 394:libs/STM32F4xx_StdPeriph_Driver/src/stm32f4xx_cryp_aes.c ****   {
 395:libs/STM32F4xx_StdPeriph_Driver/src/stm32f4xx_cryp_aes.c ****     CRYP_KeyInit(&AES_CRYP_KeyInitStructure);
 1052              		.loc 1 395 0
 1053 0126 06A8     		add	r0, sp, #24
 1054 0128 FFF7FEFF 		bl	CRYP_KeyInit
 1055              	.LVL174:
 396:libs/STM32F4xx_StdPeriph_Driver/src/stm32f4xx_cryp_aes.c **** 
 397:libs/STM32F4xx_StdPeriph_Driver/src/stm32f4xx_cryp_aes.c ****     /* Crypto Init for Encryption process */
 398:libs/STM32F4xx_StdPeriph_Driver/src/stm32f4xx_cryp_aes.c ****     AES_CRYP_InitStructure.CRYP_AlgoDir  = CRYP_AlgoDir_Encrypt;
 1056              		.loc 1 398 0
 1057 012c 0023     		movs	r3, #0
 1058 012e ADF83830 		strh	r3, [sp, #56]	@ movhi
 288:libs/STM32F4xx_StdPeriph_Driver/src/stm32f4xx_cryp_aes.c ****   uint32_t keyaddr    = (uint32_t)Key;
 1059              		.loc 1 288 0
 1060 0132 0127     		movs	r7, #1
 1061 0134 FFE7     		b	.L27
 1062              	.LVL175:
 1063              	.L27:
 399:libs/STM32F4xx_StdPeriph_Driver/src/stm32f4xx_cryp_aes.c ****   }
 400:libs/STM32F4xx_StdPeriph_Driver/src/stm32f4xx_cryp_aes.c ****   AES_CRYP_InitStructure.CRYP_AlgoMode = CRYP_AlgoMode_AES_CBC;
 1064              		.loc 1 400 0
 1065 0136 2823     		movs	r3, #40
 1066 0138 ADF83A30 		strh	r3, [sp, #58]	@ movhi
 401:libs/STM32F4xx_StdPeriph_Driver/src/stm32f4xx_cryp_aes.c ****   AES_CRYP_InitStructure.CRYP_DataType = CRYP_DataType_8b;
 1067              		.loc 1 401 0
 1068 013c 8023     		movs	r3, #128
 1069 013e ADF83C30 		strh	r3, [sp, #60]	@ movhi
 402:libs/STM32F4xx_StdPeriph_Driver/src/stm32f4xx_cryp_aes.c ****   CRYP_Init(&AES_CRYP_InitStructure);
 1070              		.loc 1 402 0
 1071 0142 0EA8     		add	r0, sp, #56
 1072 0144 FFF7FEFF 		bl	CRYP_Init
 1073              	.LVL176:
 403:libs/STM32F4xx_StdPeriph_Driver/src/stm32f4xx_cryp_aes.c **** 
 404:libs/STM32F4xx_StdPeriph_Driver/src/stm32f4xx_cryp_aes.c ****   /* CRYP Initialization Vectors */
 405:libs/STM32F4xx_StdPeriph_Driver/src/stm32f4xx_cryp_aes.c ****   CRYP_IVInit(&AES_CRYP_IVInitStructure);
 1074              		.loc 1 405 0
 1075 0148 02A8     		add	r0, sp, #8
 1076 014a FFF7FEFF 		bl	CRYP_IVInit
 1077              	.LVL177:
 406:libs/STM32F4xx_StdPeriph_Driver/src/stm32f4xx_cryp_aes.c **** 
 407:libs/STM32F4xx_StdPeriph_Driver/src/stm32f4xx_cryp_aes.c ****   /* Flush IN/OUT FIFOs */
 408:libs/STM32F4xx_StdPeriph_Driver/src/stm32f4xx_cryp_aes.c ****   CRYP_FIFOFlush();
 1078              		.loc 1 408 0
 1079 014e FFF7FEFF 		bl	CRYP_FIFOFlush
 1080              	.LVL178:
 409:libs/STM32F4xx_StdPeriph_Driver/src/stm32f4xx_cryp_aes.c **** 
 410:libs/STM32F4xx_StdPeriph_Driver/src/stm32f4xx_cryp_aes.c ****   /* Enable Crypto processor */
 411:libs/STM32F4xx_StdPeriph_Driver/src/stm32f4xx_cryp_aes.c ****   CRYP_Cmd(ENABLE);
 1081              		.loc 1 411 0
 1082 0152 0120     		movs	r0, #1
 1083 0154 FFF7FEFF 		bl	CRYP_Cmd
 1084              	.LVL179:
 412:libs/STM32F4xx_StdPeriph_Driver/src/stm32f4xx_cryp_aes.c **** 
 413:libs/STM32F4xx_StdPeriph_Driver/src/stm32f4xx_cryp_aes.c **** 
 414:libs/STM32F4xx_StdPeriph_Driver/src/stm32f4xx_cryp_aes.c ****   for(i=0; ((i<Ilength) && (status != ERROR)); i+=16)
 1085              		.loc 1 414 0
 1086 0158 0026     		movs	r6, #0
 1087              	.LVL180:
 415:libs/STM32F4xx_StdPeriph_Driver/src/stm32f4xx_cryp_aes.c ****   {
 416:libs/STM32F4xx_StdPeriph_Driver/src/stm32f4xx_cryp_aes.c **** 
 417:libs/STM32F4xx_StdPeriph_Driver/src/stm32f4xx_cryp_aes.c ****     /* Write the Input block in the IN FIFO */
 418:libs/STM32F4xx_StdPeriph_Driver/src/stm32f4xx_cryp_aes.c ****     CRYP_DataIn(*(uint32_t*)(inputaddr));
 419:libs/STM32F4xx_StdPeriph_Driver/src/stm32f4xx_cryp_aes.c ****     inputaddr+=4;
 420:libs/STM32F4xx_StdPeriph_Driver/src/stm32f4xx_cryp_aes.c ****     CRYP_DataIn(*(uint32_t*)(inputaddr));
 421:libs/STM32F4xx_StdPeriph_Driver/src/stm32f4xx_cryp_aes.c ****     inputaddr+=4;
 422:libs/STM32F4xx_StdPeriph_Driver/src/stm32f4xx_cryp_aes.c ****     CRYP_DataIn(*(uint32_t*)(inputaddr));
 423:libs/STM32F4xx_StdPeriph_Driver/src/stm32f4xx_cryp_aes.c ****     inputaddr+=4;
 424:libs/STM32F4xx_StdPeriph_Driver/src/stm32f4xx_cryp_aes.c ****     CRYP_DataIn(*(uint32_t*)(inputaddr));
 425:libs/STM32F4xx_StdPeriph_Driver/src/stm32f4xx_cryp_aes.c ****     inputaddr+=4;
 426:libs/STM32F4xx_StdPeriph_Driver/src/stm32f4xx_cryp_aes.c ****     /* Wait until the complete message has been processed */
 427:libs/STM32F4xx_StdPeriph_Driver/src/stm32f4xx_cryp_aes.c ****     counter = 0;
 1088              		.loc 1 427 0
 1089 015a B046     		mov	r8, r6
 428:libs/STM32F4xx_StdPeriph_Driver/src/stm32f4xx_cryp_aes.c ****     do
 429:libs/STM32F4xx_StdPeriph_Driver/src/stm32f4xx_cryp_aes.c ****     {
 430:libs/STM32F4xx_StdPeriph_Driver/src/stm32f4xx_cryp_aes.c ****       busystatus = CRYP_GetFlagStatus(CRYP_FLAG_BUSY);
 1090              		.loc 1 430 0
 1091 015c 1024     		movs	r4, #16
 414:libs/STM32F4xx_StdPeriph_Driver/src/stm32f4xx_cryp_aes.c ****   {
 1092              		.loc 1 414 0
 1093 015e 31E0     		b	.L28
 1094              	.LVL181:
 1095              	.L32:
 418:libs/STM32F4xx_StdPeriph_Driver/src/stm32f4xx_cryp_aes.c ****     inputaddr+=4;
 1096              		.loc 1 418 0
 1097 0160 2868     		ldr	r0, [r5]
 1098 0162 FFF7FEFF 		bl	CRYP_DataIn
 1099              	.LVL182:
 420:libs/STM32F4xx_StdPeriph_Driver/src/stm32f4xx_cryp_aes.c ****     inputaddr+=4;
 1100              		.loc 1 420 0
 1101 0166 6868     		ldr	r0, [r5, #4]
 1102 0168 FFF7FEFF 		bl	CRYP_DataIn
 1103              	.LVL183:
 422:libs/STM32F4xx_StdPeriph_Driver/src/stm32f4xx_cryp_aes.c ****     inputaddr+=4;
 1104              		.loc 1 422 0
 1105 016c A868     		ldr	r0, [r5, #8]
 1106 016e FFF7FEFF 		bl	CRYP_DataIn
 1107              	.LVL184:
 424:libs/STM32F4xx_StdPeriph_Driver/src/stm32f4xx_cryp_aes.c ****     inputaddr+=4;
 1108              		.loc 1 424 0
 1109 0172 E868     		ldr	r0, [r5, #12]
 1110 0174 FFF7FEFF 		bl	CRYP_DataIn
 1111              	.LVL185:
 425:libs/STM32F4xx_StdPeriph_Driver/src/stm32f4xx_cryp_aes.c ****     /* Wait until the complete message has been processed */
 1112              		.loc 1 425 0
 1113 0178 1035     		adds	r5, r5, #16
 1114              	.LVL186:
 427:libs/STM32F4xx_StdPeriph_Driver/src/stm32f4xx_cryp_aes.c ****     do
 1115              		.loc 1 427 0
 1116 017a CDF80480 		str	r8, [sp, #4]
 1117              	.L30:
 1118              		.loc 1 430 0 discriminator 1
 1119 017e 2046     		mov	r0, r4
 1120 0180 FFF7FEFF 		bl	CRYP_GetFlagStatus
 1121              	.LVL187:
 1122 0184 0246     		mov	r2, r0
 1123              	.LVL188:
 431:libs/STM32F4xx_StdPeriph_Driver/src/stm32f4xx_cryp_aes.c ****       counter++;
 1124              		.loc 1 431 0 discriminator 1
 1125 0186 019B     		ldr	r3, [sp, #4]
 1126 0188 0133     		adds	r3, r3, #1
 1127 018a 0193     		str	r3, [sp, #4]
 432:libs/STM32F4xx_StdPeriph_Driver/src/stm32f4xx_cryp_aes.c ****     }while ((counter != AESBUSY_TIMEOUT) && (busystatus != RESET));
 1128              		.loc 1 432 0 discriminator 1
 1129 018c 019B     		ldr	r3, [sp, #4]
 1130 018e B3F5803F 		cmp	r3, #65536
 1131 0192 01D0     		beq	.L29
 1132 0194 0028     		cmp	r0, #0
 1133 0196 F2D1     		bne	.L30
 1134              	.L29:
 433:libs/STM32F4xx_StdPeriph_Driver/src/stm32f4xx_cryp_aes.c **** 
 434:libs/STM32F4xx_StdPeriph_Driver/src/stm32f4xx_cryp_aes.c ****     if (busystatus != RESET)
 1135              		.loc 1 434 0
 1136 0198 92B9     		cbnz	r2, .L34
 435:libs/STM32F4xx_StdPeriph_Driver/src/stm32f4xx_cryp_aes.c ****    {
 436:libs/STM32F4xx_StdPeriph_Driver/src/stm32f4xx_cryp_aes.c ****        status = ERROR;
 437:libs/STM32F4xx_StdPeriph_Driver/src/stm32f4xx_cryp_aes.c ****     }
 438:libs/STM32F4xx_StdPeriph_Driver/src/stm32f4xx_cryp_aes.c ****     else
 439:libs/STM32F4xx_StdPeriph_Driver/src/stm32f4xx_cryp_aes.c ****     {
 440:libs/STM32F4xx_StdPeriph_Driver/src/stm32f4xx_cryp_aes.c **** 
 441:libs/STM32F4xx_StdPeriph_Driver/src/stm32f4xx_cryp_aes.c ****       /* Read the Output block from the Output FIFO */
 442:libs/STM32F4xx_StdPeriph_Driver/src/stm32f4xx_cryp_aes.c ****       *(uint32_t*)(outputaddr) = CRYP_DataOut();
 1137              		.loc 1 442 0
 1138 019a FFF7FEFF 		bl	CRYP_DataOut
 1139              	.LVL189:
 1140 019e C9F80000 		str	r0, [r9]
 1141              	.LVL190:
 443:libs/STM32F4xx_StdPeriph_Driver/src/stm32f4xx_cryp_aes.c ****       outputaddr+=4;
 444:libs/STM32F4xx_StdPeriph_Driver/src/stm32f4xx_cryp_aes.c ****       *(uint32_t*)(outputaddr) = CRYP_DataOut();
 1142              		.loc 1 444 0
 1143 01a2 FFF7FEFF 		bl	CRYP_DataOut
 1144              	.LVL191:
 1145 01a6 C9F80400 		str	r0, [r9, #4]
 1146              	.LVL192:
 445:libs/STM32F4xx_StdPeriph_Driver/src/stm32f4xx_cryp_aes.c ****       outputaddr+=4;
 446:libs/STM32F4xx_StdPeriph_Driver/src/stm32f4xx_cryp_aes.c ****       *(uint32_t*)(outputaddr) = CRYP_DataOut();
 1147              		.loc 1 446 0
 1148 01aa FFF7FEFF 		bl	CRYP_DataOut
 1149              	.LVL193:
 1150 01ae C9F80800 		str	r0, [r9, #8]
 1151              	.LVL194:
 447:libs/STM32F4xx_StdPeriph_Driver/src/stm32f4xx_cryp_aes.c ****       outputaddr+=4;
 448:libs/STM32F4xx_StdPeriph_Driver/src/stm32f4xx_cryp_aes.c ****       *(uint32_t*)(outputaddr) = CRYP_DataOut();
 1152              		.loc 1 448 0
 1153 01b2 FFF7FEFF 		bl	CRYP_DataOut
 1154              	.LVL195:
 1155 01b6 C9F80C00 		str	r0, [r9, #12]
 449:libs/STM32F4xx_StdPeriph_Driver/src/stm32f4xx_cryp_aes.c ****       outputaddr+=4;
 1156              		.loc 1 449 0
 1157 01ba 09F11009 		add	r9, r9, #16
 1158              	.LVL196:
 1159 01be 00E0     		b	.L31
 1160              	.LVL197:
 1161              	.L34:
 436:libs/STM32F4xx_StdPeriph_Driver/src/stm32f4xx_cryp_aes.c ****     }
 1162              		.loc 1 436 0
 1163 01c0 4746     		mov	r7, r8
 1164              	.LVL198:
 1165              	.L31:
 414:libs/STM32F4xx_StdPeriph_Driver/src/stm32f4xx_cryp_aes.c ****   {
 1166              		.loc 1 414 0
 1167 01c2 1036     		adds	r6, r6, #16
 1168              	.LVL199:
 1169              	.L28:
 414:libs/STM32F4xx_StdPeriph_Driver/src/stm32f4xx_cryp_aes.c ****   {
 1170              		.loc 1 414 0 is_stmt 0 discriminator 1
 1171 01c4 5645     		cmp	r6, r10
 1172 01c6 2CBF     		ite	cs
 1173 01c8 0023     		movcs	r3, #0
 1174 01ca 07F00103 		andcc	r3, r7, #1
 1175 01ce 002B     		cmp	r3, #0
 1176 01d0 C6D1     		bne	.L32
 450:libs/STM32F4xx_StdPeriph_Driver/src/stm32f4xx_cryp_aes.c ****     }
 451:libs/STM32F4xx_StdPeriph_Driver/src/stm32f4xx_cryp_aes.c ****   }
 452:libs/STM32F4xx_StdPeriph_Driver/src/stm32f4xx_cryp_aes.c **** 
 453:libs/STM32F4xx_StdPeriph_Driver/src/stm32f4xx_cryp_aes.c ****   /* Disable Crypto */
 454:libs/STM32F4xx_StdPeriph_Driver/src/stm32f4xx_cryp_aes.c ****   CRYP_Cmd(DISABLE);
 1177              		.loc 1 454 0 is_stmt 1
 1178 01d2 0020     		movs	r0, #0
 1179 01d4 FFF7FEFF 		bl	CRYP_Cmd
 1180              	.LVL200:
 455:libs/STM32F4xx_StdPeriph_Driver/src/stm32f4xx_cryp_aes.c **** 
 456:libs/STM32F4xx_StdPeriph_Driver/src/stm32f4xx_cryp_aes.c ****   return status;
 457:libs/STM32F4xx_StdPeriph_Driver/src/stm32f4xx_cryp_aes.c **** }
 1181              		.loc 1 457 0
 1182 01d8 3846     		mov	r0, r7
 1183 01da 10B0     		add	sp, sp, #64
 1184              		@ sp needed
 1185 01dc BDE8F087 		pop	{r4, r5, r6, r7, r8, r9, r10, pc}
 1186              		.cfi_endproc
 1187              	.LFE111:
 1189              		.section	.text.CRYP_AES_CTR,"ax",%progbits
 1190              		.align	2
 1191              		.global	CRYP_AES_CTR
 1192              		.thumb
 1193              		.thumb_func
 1195              	CRYP_AES_CTR:
 1196              	.LFB112:
 458:libs/STM32F4xx_StdPeriph_Driver/src/stm32f4xx_cryp_aes.c **** 
 459:libs/STM32F4xx_StdPeriph_Driver/src/stm32f4xx_cryp_aes.c **** /**
 460:libs/STM32F4xx_StdPeriph_Driver/src/stm32f4xx_cryp_aes.c ****   * @brief  Encrypt and decrypt using AES in CTR Mode
 461:libs/STM32F4xx_StdPeriph_Driver/src/stm32f4xx_cryp_aes.c ****   * @param  Mode: encryption or decryption Mode.
 462:libs/STM32F4xx_StdPeriph_Driver/src/stm32f4xx_cryp_aes.c ****   *           This parameter can be one of the following values:
 463:libs/STM32F4xx_StdPeriph_Driver/src/stm32f4xx_cryp_aes.c ****   *            @arg MODE_ENCRYPT: Encryption
 464:libs/STM32F4xx_StdPeriph_Driver/src/stm32f4xx_cryp_aes.c ****   *            @arg MODE_DECRYPT: Decryption
 465:libs/STM32F4xx_StdPeriph_Driver/src/stm32f4xx_cryp_aes.c ****   * @param  InitVectors: Initialisation Vectors used for AES algorithm.
 466:libs/STM32F4xx_StdPeriph_Driver/src/stm32f4xx_cryp_aes.c ****   * @param  Key: Key used for AES algorithm.
 467:libs/STM32F4xx_StdPeriph_Driver/src/stm32f4xx_cryp_aes.c ****   * @param  Keysize: length of the Key, must be a 128, 192 or 256.
 468:libs/STM32F4xx_StdPeriph_Driver/src/stm32f4xx_cryp_aes.c ****   * @param  Input: pointer to the Input buffer.
 469:libs/STM32F4xx_StdPeriph_Driver/src/stm32f4xx_cryp_aes.c ****   * @param  Ilength: length of the Input buffer, must be a multiple of 16.
 470:libs/STM32F4xx_StdPeriph_Driver/src/stm32f4xx_cryp_aes.c ****   * @param  Output: pointer to the returned buffer.
 471:libs/STM32F4xx_StdPeriph_Driver/src/stm32f4xx_cryp_aes.c ****   * @retval An ErrorStatus enumeration value:
 472:libs/STM32F4xx_StdPeriph_Driver/src/stm32f4xx_cryp_aes.c ****   *          - SUCCESS: Operation done
 473:libs/STM32F4xx_StdPeriph_Driver/src/stm32f4xx_cryp_aes.c ****   *          - ERROR: Operation failed
 474:libs/STM32F4xx_StdPeriph_Driver/src/stm32f4xx_cryp_aes.c ****   */
 475:libs/STM32F4xx_StdPeriph_Driver/src/stm32f4xx_cryp_aes.c **** ErrorStatus CRYP_AES_CTR(uint8_t Mode, uint8_t InitVectors[16], uint8_t *Key, 
 476:libs/STM32F4xx_StdPeriph_Driver/src/stm32f4xx_cryp_aes.c ****                          uint16_t Keysize, uint8_t *Input, uint32_t Ilength,
 477:libs/STM32F4xx_StdPeriph_Driver/src/stm32f4xx_cryp_aes.c ****                          uint8_t *Output)
 478:libs/STM32F4xx_StdPeriph_Driver/src/stm32f4xx_cryp_aes.c **** {
 1197              		.loc 1 478 0
 1198              		.cfi_startproc
 1199              		@ args = 12, pretend = 0, frame = 64
 1200              		@ frame_needed = 0, uses_anonymous_args = 0
 1201              	.LVL201:
 1202 0000 2DE9F047 		push	{r4, r5, r6, r7, r8, r9, r10, lr}
 1203              	.LCFI4:
 1204              		.cfi_def_cfa_offset 32
 1205              		.cfi_offset 4, -32
 1206              		.cfi_offset 5, -28
 1207              		.cfi_offset 6, -24
 1208              		.cfi_offset 7, -20
 1209              		.cfi_offset 8, -16
 1210              		.cfi_offset 9, -12
 1211              		.cfi_offset 10, -8
 1212              		.cfi_offset 14, -4
 1213 0004 90B0     		sub	sp, sp, #64
 1214              	.LCFI5:
 1215              		.cfi_def_cfa_offset 96
 1216 0006 8046     		mov	r8, r0
 1217 0008 0E46     		mov	r6, r1
 1218 000a 1446     		mov	r4, r2
 1219 000c 1F46     		mov	r7, r3
 1220 000e DDF864A0 		ldr	r10, [sp, #100]
 479:libs/STM32F4xx_StdPeriph_Driver/src/stm32f4xx_cryp_aes.c ****   CRYP_InitTypeDef AES_CRYP_InitStructure;
 480:libs/STM32F4xx_StdPeriph_Driver/src/stm32f4xx_cryp_aes.c ****   CRYP_KeyInitTypeDef AES_CRYP_KeyInitStructure;
 481:libs/STM32F4xx_StdPeriph_Driver/src/stm32f4xx_cryp_aes.c ****   CRYP_IVInitTypeDef AES_CRYP_IVInitStructure;
 482:libs/STM32F4xx_StdPeriph_Driver/src/stm32f4xx_cryp_aes.c ****   __IO uint32_t counter = 0;
 1221              		.loc 1 482 0
 1222 0012 0023     		movs	r3, #0
 1223              	.LVL202:
 1224 0014 0193     		str	r3, [sp, #4]
 1225              	.LVL203:
 483:libs/STM32F4xx_StdPeriph_Driver/src/stm32f4xx_cryp_aes.c ****   uint32_t busystatus = 0;
 484:libs/STM32F4xx_StdPeriph_Driver/src/stm32f4xx_cryp_aes.c ****   ErrorStatus status = SUCCESS;
 485:libs/STM32F4xx_StdPeriph_Driver/src/stm32f4xx_cryp_aes.c ****   uint32_t keyaddr    = (uint32_t)Key;
 486:libs/STM32F4xx_StdPeriph_Driver/src/stm32f4xx_cryp_aes.c ****   uint32_t inputaddr  = (uint32_t)Input;
 1226              		.loc 1 486 0
 1227 0016 189D     		ldr	r5, [sp, #96]
 1228              	.LVL204:
 487:libs/STM32F4xx_StdPeriph_Driver/src/stm32f4xx_cryp_aes.c ****   uint32_t outputaddr = (uint32_t)Output;
 1229              		.loc 1 487 0
 1230 0018 DDF86890 		ldr	r9, [sp, #104]
 1231              	.LVL205:
 488:libs/STM32F4xx_StdPeriph_Driver/src/stm32f4xx_cryp_aes.c ****   uint32_t ivaddr     = (uint32_t)InitVectors;
 489:libs/STM32F4xx_StdPeriph_Driver/src/stm32f4xx_cryp_aes.c ****   uint32_t i = 0;
 490:libs/STM32F4xx_StdPeriph_Driver/src/stm32f4xx_cryp_aes.c **** 
 491:libs/STM32F4xx_StdPeriph_Driver/src/stm32f4xx_cryp_aes.c ****   /* Crypto structures initialisation*/
 492:libs/STM32F4xx_StdPeriph_Driver/src/stm32f4xx_cryp_aes.c ****   CRYP_KeyStructInit(&AES_CRYP_KeyInitStructure);
 1232              		.loc 1 492 0
 1233 001c 06A8     		add	r0, sp, #24
 1234              	.LVL206:
 1235 001e FFF7FEFF 		bl	CRYP_KeyStructInit
 1236              	.LVL207:
 493:libs/STM32F4xx_StdPeriph_Driver/src/stm32f4xx_cryp_aes.c **** 
 494:libs/STM32F4xx_StdPeriph_Driver/src/stm32f4xx_cryp_aes.c ****   switch(Keysize)
 1237              		.loc 1 494 0
 1238 0022 C02F     		cmp	r7, #192
 1239 0024 14D0     		beq	.L39
 1240 0026 B7F5807F 		cmp	r7, #256
 1241 002a 28D0     		beq	.L40
 1242 002c 802F     		cmp	r7, #128
 1243 002e 42D1     		bne	.L38
 495:libs/STM32F4xx_StdPeriph_Driver/src/stm32f4xx_cryp_aes.c ****   {
 496:libs/STM32F4xx_StdPeriph_Driver/src/stm32f4xx_cryp_aes.c ****     case 128:
 497:libs/STM32F4xx_StdPeriph_Driver/src/stm32f4xx_cryp_aes.c ****     AES_CRYP_InitStructure.CRYP_KeySize = CRYP_KeySize_128b;
 1244              		.loc 1 497 0
 1245 0030 0023     		movs	r3, #0
 1246 0032 ADF83E30 		strh	r3, [sp, #62]	@ movhi
 498:libs/STM32F4xx_StdPeriph_Driver/src/stm32f4xx_cryp_aes.c ****     AES_CRYP_KeyInitStructure.CRYP_Key2Left = __REV(*(uint32_t*)(keyaddr));
 1247              		.loc 1 498 0
 1248 0036 2368     		ldr	r3, [r4]
 1249              	.LVL208:
 1250              	.LBB206:
 1251              	.LBB207:
 1252              		.loc 2 352 0
 1253              	@ 352 "libs/CMSIS/Include/core_cmInstr.h" 1
 1254 0038 1BBA     		rev r3, r3
 1255              	@ 0 "" 2
 1256              	.LVL209:
 1257              		.thumb
 1258              	.LBE207:
 1259              	.LBE206:
 1260              		.loc 1 498 0
 1261 003a 0A93     		str	r3, [sp, #40]
 1262              	.LVL210:
 499:libs/STM32F4xx_StdPeriph_Driver/src/stm32f4xx_cryp_aes.c ****     keyaddr+=4;
 500:libs/STM32F4xx_StdPeriph_Driver/src/stm32f4xx_cryp_aes.c ****     AES_CRYP_KeyInitStructure.CRYP_Key2Right= __REV(*(uint32_t*)(keyaddr));
 1263              		.loc 1 500 0
 1264 003c 6368     		ldr	r3, [r4, #4]
 1265              	.LVL211:
 1266              	.LBB208:
 1267              	.LBB209:
 1268              		.loc 2 352 0
 1269              	@ 352 "libs/CMSIS/Include/core_cmInstr.h" 1
 1270 003e 1BBA     		rev r3, r3
 1271              	@ 0 "" 2
 1272              	.LVL212:
 1273              		.thumb
 1274              	.LBE209:
 1275              	.LBE208:
 1276              		.loc 1 500 0
 1277 0040 0B93     		str	r3, [sp, #44]
 1278              	.LVL213:
 501:libs/STM32F4xx_StdPeriph_Driver/src/stm32f4xx_cryp_aes.c ****     keyaddr+=4;
 502:libs/STM32F4xx_StdPeriph_Driver/src/stm32f4xx_cryp_aes.c ****     AES_CRYP_KeyInitStructure.CRYP_Key3Left = __REV(*(uint32_t*)(keyaddr));
 1279              		.loc 1 502 0
 1280 0042 A368     		ldr	r3, [r4, #8]
 1281              	.LVL214:
 1282              	.LBB210:
 1283              	.LBB211:
 1284              		.loc 2 352 0
 1285              	@ 352 "libs/CMSIS/Include/core_cmInstr.h" 1
 1286 0044 1BBA     		rev r3, r3
 1287              	@ 0 "" 2
 1288              	.LVL215:
 1289              		.thumb
 1290              	.LBE211:
 1291              	.LBE210:
 1292              		.loc 1 502 0
 1293 0046 0C93     		str	r3, [sp, #48]
 1294              	.LVL216:
 503:libs/STM32F4xx_StdPeriph_Driver/src/stm32f4xx_cryp_aes.c ****     keyaddr+=4;
 504:libs/STM32F4xx_StdPeriph_Driver/src/stm32f4xx_cryp_aes.c ****     AES_CRYP_KeyInitStructure.CRYP_Key3Right= __REV(*(uint32_t*)(keyaddr));
 1295              		.loc 1 504 0
 1296 0048 E368     		ldr	r3, [r4, #12]
 1297              	.LVL217:
 1298              	.LBB212:
 1299              	.LBB213:
 1300              		.loc 2 352 0
 1301              	@ 352 "libs/CMSIS/Include/core_cmInstr.h" 1
 1302 004a 1BBA     		rev r3, r3
 1303              	@ 0 "" 2
 1304              	.LVL218:
 1305              		.thumb
 1306              	.LBE213:
 1307              	.LBE212:
 1308              		.loc 1 504 0
 1309 004c 0D93     		str	r3, [sp, #52]
 505:libs/STM32F4xx_StdPeriph_Driver/src/stm32f4xx_cryp_aes.c ****     break;
 1310              		.loc 1 505 0
 1311 004e 32E0     		b	.L38
 1312              	.LVL219:
 1313              	.L39:
 506:libs/STM32F4xx_StdPeriph_Driver/src/stm32f4xx_cryp_aes.c ****     case 192:
 507:libs/STM32F4xx_StdPeriph_Driver/src/stm32f4xx_cryp_aes.c ****     AES_CRYP_InitStructure.CRYP_KeySize  = CRYP_KeySize_192b;
 1314              		.loc 1 507 0
 1315 0050 4FF48073 		mov	r3, #256
 1316 0054 ADF83E30 		strh	r3, [sp, #62]	@ movhi
 508:libs/STM32F4xx_StdPeriph_Driver/src/stm32f4xx_cryp_aes.c ****     AES_CRYP_KeyInitStructure.CRYP_Key1Left = __REV(*(uint32_t*)(keyaddr));
 1317              		.loc 1 508 0
 1318 0058 2368     		ldr	r3, [r4]
 1319              	.LVL220:
 1320              	.LBB214:
 1321              	.LBB215:
 1322              		.loc 2 352 0
 1323              	@ 352 "libs/CMSIS/Include/core_cmInstr.h" 1
 1324 005a 1BBA     		rev r3, r3
 1325              	@ 0 "" 2
 1326              	.LVL221:
 1327              		.thumb
 1328              	.LBE215:
 1329              	.LBE214:
 1330              		.loc 1 508 0
 1331 005c 0893     		str	r3, [sp, #32]
 1332              	.LVL222:
 509:libs/STM32F4xx_StdPeriph_Driver/src/stm32f4xx_cryp_aes.c ****     keyaddr+=4;
 510:libs/STM32F4xx_StdPeriph_Driver/src/stm32f4xx_cryp_aes.c ****     AES_CRYP_KeyInitStructure.CRYP_Key1Right= __REV(*(uint32_t*)(keyaddr));
 1333              		.loc 1 510 0
 1334 005e 6368     		ldr	r3, [r4, #4]
 1335              	.LVL223:
 1336              	.LBB216:
 1337              	.LBB217:
 1338              		.loc 2 352 0
 1339              	@ 352 "libs/CMSIS/Include/core_cmInstr.h" 1
 1340 0060 1BBA     		rev r3, r3
 1341              	@ 0 "" 2
 1342              	.LVL224:
 1343              		.thumb
 1344              	.LBE217:
 1345              	.LBE216:
 1346              		.loc 1 510 0
 1347 0062 0993     		str	r3, [sp, #36]
 1348              	.LVL225:
 511:libs/STM32F4xx_StdPeriph_Driver/src/stm32f4xx_cryp_aes.c ****     keyaddr+=4;
 512:libs/STM32F4xx_StdPeriph_Driver/src/stm32f4xx_cryp_aes.c ****     AES_CRYP_KeyInitStructure.CRYP_Key2Left = __REV(*(uint32_t*)(keyaddr));
 1349              		.loc 1 512 0
 1350 0064 A368     		ldr	r3, [r4, #8]
 1351              	.LVL226:
 1352              	.LBB218:
 1353              	.LBB219:
 1354              		.loc 2 352 0
 1355              	@ 352 "libs/CMSIS/Include/core_cmInstr.h" 1
 1356 0066 1BBA     		rev r3, r3
 1357              	@ 0 "" 2
 1358              	.LVL227:
 1359              		.thumb
 1360              	.LBE219:
 1361              	.LBE218:
 1362              		.loc 1 512 0
 1363 0068 0A93     		str	r3, [sp, #40]
 1364              	.LVL228:
 513:libs/STM32F4xx_StdPeriph_Driver/src/stm32f4xx_cryp_aes.c ****     keyaddr+=4;
 514:libs/STM32F4xx_StdPeriph_Driver/src/stm32f4xx_cryp_aes.c ****     AES_CRYP_KeyInitStructure.CRYP_Key2Right= __REV(*(uint32_t*)(keyaddr));
 1365              		.loc 1 514 0
 1366 006a E368     		ldr	r3, [r4, #12]
 1367              	.LVL229:
 1368              	.LBB220:
 1369              	.LBB221:
 1370              		.loc 2 352 0
 1371              	@ 352 "libs/CMSIS/Include/core_cmInstr.h" 1
 1372 006c 1BBA     		rev r3, r3
 1373              	@ 0 "" 2
 1374              	.LVL230:
 1375              		.thumb
 1376              	.LBE221:
 1377              	.LBE220:
 1378              		.loc 1 514 0
 1379 006e 0B93     		str	r3, [sp, #44]
 1380              	.LVL231:
 515:libs/STM32F4xx_StdPeriph_Driver/src/stm32f4xx_cryp_aes.c ****     keyaddr+=4;
 516:libs/STM32F4xx_StdPeriph_Driver/src/stm32f4xx_cryp_aes.c ****     AES_CRYP_KeyInitStructure.CRYP_Key3Left = __REV(*(uint32_t*)(keyaddr));
 1381              		.loc 1 516 0
 1382 0070 2369     		ldr	r3, [r4, #16]
 1383              	.LVL232:
 1384              	.LBB222:
 1385              	.LBB223:
 1386              		.loc 2 352 0
 1387              	@ 352 "libs/CMSIS/Include/core_cmInstr.h" 1
 1388 0072 1BBA     		rev r3, r3
 1389              	@ 0 "" 2
 1390              	.LVL233:
 1391              		.thumb
 1392              	.LBE223:
 1393              	.LBE222:
 1394              		.loc 1 516 0
 1395 0074 0C93     		str	r3, [sp, #48]
 1396              	.LVL234:
 517:libs/STM32F4xx_StdPeriph_Driver/src/stm32f4xx_cryp_aes.c ****     keyaddr+=4;
 518:libs/STM32F4xx_StdPeriph_Driver/src/stm32f4xx_cryp_aes.c ****     AES_CRYP_KeyInitStructure.CRYP_Key3Right= __REV(*(uint32_t*)(keyaddr));
 1397              		.loc 1 518 0
 1398 0076 6369     		ldr	r3, [r4, #20]
 1399              	.LVL235:
 1400              	.LBB224:
 1401              	.LBB225:
 1402              		.loc 2 352 0
 1403              	@ 352 "libs/CMSIS/Include/core_cmInstr.h" 1
 1404 0078 1BBA     		rev r3, r3
 1405              	@ 0 "" 2
 1406              	.LVL236:
 1407              		.thumb
 1408              	.LBE225:
 1409              	.LBE224:
 1410              		.loc 1 518 0
 1411 007a 0D93     		str	r3, [sp, #52]
 519:libs/STM32F4xx_StdPeriph_Driver/src/stm32f4xx_cryp_aes.c ****     break;
 1412              		.loc 1 519 0
 1413 007c 1BE0     		b	.L38
 1414              	.LVL237:
 1415              	.L40:
 520:libs/STM32F4xx_StdPeriph_Driver/src/stm32f4xx_cryp_aes.c ****     case 256:
 521:libs/STM32F4xx_StdPeriph_Driver/src/stm32f4xx_cryp_aes.c ****     AES_CRYP_InitStructure.CRYP_KeySize  = CRYP_KeySize_256b;
 1416              		.loc 1 521 0
 1417 007e 4FF40073 		mov	r3, #512
 1418 0082 ADF83E30 		strh	r3, [sp, #62]	@ movhi
 522:libs/STM32F4xx_StdPeriph_Driver/src/stm32f4xx_cryp_aes.c ****     AES_CRYP_KeyInitStructure.CRYP_Key0Left = __REV(*(uint32_t*)(keyaddr));
 1419              		.loc 1 522 0
 1420 0086 2368     		ldr	r3, [r4]
 1421              	.LVL238:
 1422              	.LBB226:
 1423              	.LBB227:
 1424              		.loc 2 352 0
 1425              	@ 352 "libs/CMSIS/Include/core_cmInstr.h" 1
 1426 0088 1BBA     		rev r3, r3
 1427              	@ 0 "" 2
 1428              	.LVL239:
 1429              		.thumb
 1430              	.LBE227:
 1431              	.LBE226:
 1432              		.loc 1 522 0
 1433 008a 0693     		str	r3, [sp, #24]
 1434              	.LVL240:
 523:libs/STM32F4xx_StdPeriph_Driver/src/stm32f4xx_cryp_aes.c ****     keyaddr+=4;
 524:libs/STM32F4xx_StdPeriph_Driver/src/stm32f4xx_cryp_aes.c ****     AES_CRYP_KeyInitStructure.CRYP_Key0Right= __REV(*(uint32_t*)(keyaddr));
 1435              		.loc 1 524 0
 1436 008c 6368     		ldr	r3, [r4, #4]
 1437              	.LVL241:
 1438              	.LBB228:
 1439              	.LBB229:
 1440              		.loc 2 352 0
 1441              	@ 352 "libs/CMSIS/Include/core_cmInstr.h" 1
 1442 008e 1BBA     		rev r3, r3
 1443              	@ 0 "" 2
 1444              	.LVL242:
 1445              		.thumb
 1446              	.LBE229:
 1447              	.LBE228:
 1448              		.loc 1 524 0
 1449 0090 0793     		str	r3, [sp, #28]
 1450              	.LVL243:
 525:libs/STM32F4xx_StdPeriph_Driver/src/stm32f4xx_cryp_aes.c ****     keyaddr+=4;
 526:libs/STM32F4xx_StdPeriph_Driver/src/stm32f4xx_cryp_aes.c ****     AES_CRYP_KeyInitStructure.CRYP_Key1Left = __REV(*(uint32_t*)(keyaddr));
 1451              		.loc 1 526 0
 1452 0092 A368     		ldr	r3, [r4, #8]
 1453              	.LVL244:
 1454              	.LBB230:
 1455              	.LBB231:
 1456              		.loc 2 352 0
 1457              	@ 352 "libs/CMSIS/Include/core_cmInstr.h" 1
 1458 0094 1BBA     		rev r3, r3
 1459              	@ 0 "" 2
 1460              	.LVL245:
 1461              		.thumb
 1462              	.LBE231:
 1463              	.LBE230:
 1464              		.loc 1 526 0
 1465 0096 0893     		str	r3, [sp, #32]
 1466              	.LVL246:
 527:libs/STM32F4xx_StdPeriph_Driver/src/stm32f4xx_cryp_aes.c ****     keyaddr+=4;
 528:libs/STM32F4xx_StdPeriph_Driver/src/stm32f4xx_cryp_aes.c ****     AES_CRYP_KeyInitStructure.CRYP_Key1Right= __REV(*(uint32_t*)(keyaddr));
 1467              		.loc 1 528 0
 1468 0098 E368     		ldr	r3, [r4, #12]
 1469              	.LVL247:
 1470              	.LBB232:
 1471              	.LBB233:
 1472              		.loc 2 352 0
 1473              	@ 352 "libs/CMSIS/Include/core_cmInstr.h" 1
 1474 009a 1BBA     		rev r3, r3
 1475              	@ 0 "" 2
 1476              	.LVL248:
 1477              		.thumb
 1478              	.LBE233:
 1479              	.LBE232:
 1480              		.loc 1 528 0
 1481 009c 0993     		str	r3, [sp, #36]
 1482              	.LVL249:
 529:libs/STM32F4xx_StdPeriph_Driver/src/stm32f4xx_cryp_aes.c ****     keyaddr+=4;
 530:libs/STM32F4xx_StdPeriph_Driver/src/stm32f4xx_cryp_aes.c ****     AES_CRYP_KeyInitStructure.CRYP_Key2Left = __REV(*(uint32_t*)(keyaddr));
 1483              		.loc 1 530 0
 1484 009e 2369     		ldr	r3, [r4, #16]
 1485              	.LVL250:
 1486              	.LBB234:
 1487              	.LBB235:
 1488              		.loc 2 352 0
 1489              	@ 352 "libs/CMSIS/Include/core_cmInstr.h" 1
 1490 00a0 1BBA     		rev r3, r3
 1491              	@ 0 "" 2
 1492              	.LVL251:
 1493              		.thumb
 1494              	.LBE235:
 1495              	.LBE234:
 1496              		.loc 1 530 0
 1497 00a2 0A93     		str	r3, [sp, #40]
 1498              	.LVL252:
 531:libs/STM32F4xx_StdPeriph_Driver/src/stm32f4xx_cryp_aes.c ****     keyaddr+=4;
 532:libs/STM32F4xx_StdPeriph_Driver/src/stm32f4xx_cryp_aes.c ****     AES_CRYP_KeyInitStructure.CRYP_Key2Right= __REV(*(uint32_t*)(keyaddr));
 1499              		.loc 1 532 0
 1500 00a4 6369     		ldr	r3, [r4, #20]
 1501              	.LVL253:
 1502              	.LBB236:
 1503              	.LBB237:
 1504              		.loc 2 352 0
 1505              	@ 352 "libs/CMSIS/Include/core_cmInstr.h" 1
 1506 00a6 1BBA     		rev r3, r3
 1507              	@ 0 "" 2
 1508              	.LVL254:
 1509              		.thumb
 1510              	.LBE237:
 1511              	.LBE236:
 1512              		.loc 1 532 0
 1513 00a8 0B93     		str	r3, [sp, #44]
 1514              	.LVL255:
 533:libs/STM32F4xx_StdPeriph_Driver/src/stm32f4xx_cryp_aes.c ****     keyaddr+=4;
 534:libs/STM32F4xx_StdPeriph_Driver/src/stm32f4xx_cryp_aes.c ****     AES_CRYP_KeyInitStructure.CRYP_Key3Left = __REV(*(uint32_t*)(keyaddr));
 1515              		.loc 1 534 0
 1516 00aa A369     		ldr	r3, [r4, #24]
 1517              	.LVL256:
 1518              	.LBB238:
 1519              	.LBB239:
 1520              		.loc 2 352 0
 1521              	@ 352 "libs/CMSIS/Include/core_cmInstr.h" 1
 1522 00ac 1BBA     		rev r3, r3
 1523              	@ 0 "" 2
 1524              	.LVL257:
 1525              		.thumb
 1526              	.LBE239:
 1527              	.LBE238:
 1528              		.loc 1 534 0
 1529 00ae 0C93     		str	r3, [sp, #48]
 1530              	.LVL258:
 535:libs/STM32F4xx_StdPeriph_Driver/src/stm32f4xx_cryp_aes.c ****     keyaddr+=4;
 536:libs/STM32F4xx_StdPeriph_Driver/src/stm32f4xx_cryp_aes.c ****     AES_CRYP_KeyInitStructure.CRYP_Key3Right= __REV(*(uint32_t*)(keyaddr));
 1531              		.loc 1 536 0
 1532 00b0 E369     		ldr	r3, [r4, #28]
 1533              	.LVL259:
 1534              	.LBB240:
 1535              	.LBB241:
 1536              		.loc 2 352 0
 1537              	@ 352 "libs/CMSIS/Include/core_cmInstr.h" 1
 1538 00b2 1BBA     		rev r3, r3
 1539              	@ 0 "" 2
 1540              	.LVL260:
 1541              		.thumb
 1542              	.LBE241:
 1543              	.LBE240:
 1544              		.loc 1 536 0
 1545 00b4 0D93     		str	r3, [sp, #52]
 1546              	.LVL261:
 1547              	.L38:
 537:libs/STM32F4xx_StdPeriph_Driver/src/stm32f4xx_cryp_aes.c ****     break;
 538:libs/STM32F4xx_StdPeriph_Driver/src/stm32f4xx_cryp_aes.c ****     default:
 539:libs/STM32F4xx_StdPeriph_Driver/src/stm32f4xx_cryp_aes.c ****     break;
 540:libs/STM32F4xx_StdPeriph_Driver/src/stm32f4xx_cryp_aes.c ****   }
 541:libs/STM32F4xx_StdPeriph_Driver/src/stm32f4xx_cryp_aes.c ****   /* CRYP Initialization Vectors */
 542:libs/STM32F4xx_StdPeriph_Driver/src/stm32f4xx_cryp_aes.c ****   AES_CRYP_IVInitStructure.CRYP_IV0Left = __REV(*(uint32_t*)(ivaddr));
 1548              		.loc 1 542 0
 1549 00b6 3368     		ldr	r3, [r6]
 1550              	.LVL262:
 1551              	.LBB242:
 1552              	.LBB243:
 1553              		.loc 2 352 0
 1554              	@ 352 "libs/CMSIS/Include/core_cmInstr.h" 1
 1555 00b8 1BBA     		rev r3, r3
 1556              	@ 0 "" 2
 1557              	.LVL263:
 1558              		.thumb
 1559              	.LBE243:
 1560              	.LBE242:
 1561              		.loc 1 542 0
 1562 00ba 0293     		str	r3, [sp, #8]
 1563              	.LVL264:
 543:libs/STM32F4xx_StdPeriph_Driver/src/stm32f4xx_cryp_aes.c ****   ivaddr+=4;
 544:libs/STM32F4xx_StdPeriph_Driver/src/stm32f4xx_cryp_aes.c ****   AES_CRYP_IVInitStructure.CRYP_IV0Right= __REV(*(uint32_t*)(ivaddr));
 1564              		.loc 1 544 0
 1565 00bc 7368     		ldr	r3, [r6, #4]
 1566              	.LVL265:
 1567              	.LBB244:
 1568              	.LBB245:
 1569              		.loc 2 352 0
 1570              	@ 352 "libs/CMSIS/Include/core_cmInstr.h" 1
 1571 00be 1BBA     		rev r3, r3
 1572              	@ 0 "" 2
 1573              	.LVL266:
 1574              		.thumb
 1575              	.LBE245:
 1576              	.LBE244:
 1577              		.loc 1 544 0
 1578 00c0 0393     		str	r3, [sp, #12]
 1579              	.LVL267:
 545:libs/STM32F4xx_StdPeriph_Driver/src/stm32f4xx_cryp_aes.c ****   ivaddr+=4;
 546:libs/STM32F4xx_StdPeriph_Driver/src/stm32f4xx_cryp_aes.c ****   AES_CRYP_IVInitStructure.CRYP_IV1Left = __REV(*(uint32_t*)(ivaddr));
 1580              		.loc 1 546 0
 1581 00c2 B368     		ldr	r3, [r6, #8]
 1582              	.LVL268:
 1583              	.LBB246:
 1584              	.LBB247:
 1585              		.loc 2 352 0
 1586              	@ 352 "libs/CMSIS/Include/core_cmInstr.h" 1
 1587 00c4 1BBA     		rev r3, r3
 1588              	@ 0 "" 2
 1589              	.LVL269:
 1590              		.thumb
 1591              	.LBE247:
 1592              	.LBE246:
 1593              		.loc 1 546 0
 1594 00c6 0493     		str	r3, [sp, #16]
 1595              	.LVL270:
 547:libs/STM32F4xx_StdPeriph_Driver/src/stm32f4xx_cryp_aes.c ****   ivaddr+=4;
 548:libs/STM32F4xx_StdPeriph_Driver/src/stm32f4xx_cryp_aes.c ****   AES_CRYP_IVInitStructure.CRYP_IV1Right= __REV(*(uint32_t*)(ivaddr));
 1596              		.loc 1 548 0
 1597 00c8 F368     		ldr	r3, [r6, #12]
 1598              	.LVL271:
 1599              	.LBB248:
 1600              	.LBB249:
 1601              		.loc 2 352 0
 1602              	@ 352 "libs/CMSIS/Include/core_cmInstr.h" 1
 1603 00ca 1BBA     		rev r3, r3
 1604              	@ 0 "" 2
 1605              	.LVL272:
 1606              		.thumb
 1607              	.LBE249:
 1608              	.LBE248:
 1609              		.loc 1 548 0
 1610 00cc 0593     		str	r3, [sp, #20]
 549:libs/STM32F4xx_StdPeriph_Driver/src/stm32f4xx_cryp_aes.c **** 
 550:libs/STM32F4xx_StdPeriph_Driver/src/stm32f4xx_cryp_aes.c ****   /* Key Initialisation */
 551:libs/STM32F4xx_StdPeriph_Driver/src/stm32f4xx_cryp_aes.c ****   CRYP_KeyInit(&AES_CRYP_KeyInitStructure);
 1611              		.loc 1 551 0
 1612 00ce 06A8     		add	r0, sp, #24
 1613 00d0 FFF7FEFF 		bl	CRYP_KeyInit
 1614              	.LVL273:
 552:libs/STM32F4xx_StdPeriph_Driver/src/stm32f4xx_cryp_aes.c **** 
 553:libs/STM32F4xx_StdPeriph_Driver/src/stm32f4xx_cryp_aes.c ****   /*------------------ AES Decryption ------------------*/
 554:libs/STM32F4xx_StdPeriph_Driver/src/stm32f4xx_cryp_aes.c ****   if(Mode == MODE_DECRYPT) /* AES decryption */
 1615              		.loc 1 554 0
 1616 00d4 B8F1000F 		cmp	r8, #0
 1617 00d8 03D1     		bne	.L42
 555:libs/STM32F4xx_StdPeriph_Driver/src/stm32f4xx_cryp_aes.c ****   {
 556:libs/STM32F4xx_StdPeriph_Driver/src/stm32f4xx_cryp_aes.c ****     /* Crypto Init for decryption process */
 557:libs/STM32F4xx_StdPeriph_Driver/src/stm32f4xx_cryp_aes.c ****     AES_CRYP_InitStructure.CRYP_AlgoDir = CRYP_AlgoDir_Decrypt;
 1618              		.loc 1 557 0
 1619 00da 0423     		movs	r3, #4
 1620 00dc ADF83830 		strh	r3, [sp, #56]	@ movhi
 1621 00e0 02E0     		b	.L43
 1622              	.L42:
 558:libs/STM32F4xx_StdPeriph_Driver/src/stm32f4xx_cryp_aes.c ****   }
 559:libs/STM32F4xx_StdPeriph_Driver/src/stm32f4xx_cryp_aes.c ****   /*------------------ AES Encryption ------------------*/
 560:libs/STM32F4xx_StdPeriph_Driver/src/stm32f4xx_cryp_aes.c ****   else /* AES encryption */
 561:libs/STM32F4xx_StdPeriph_Driver/src/stm32f4xx_cryp_aes.c ****   {
 562:libs/STM32F4xx_StdPeriph_Driver/src/stm32f4xx_cryp_aes.c ****     /* Crypto Init for Encryption process */
 563:libs/STM32F4xx_StdPeriph_Driver/src/stm32f4xx_cryp_aes.c ****     AES_CRYP_InitStructure.CRYP_AlgoDir = CRYP_AlgoDir_Encrypt;
 1623              		.loc 1 563 0
 1624 00e2 0023     		movs	r3, #0
 1625 00e4 ADF83830 		strh	r3, [sp, #56]	@ movhi
 1626              	.L43:
 564:libs/STM32F4xx_StdPeriph_Driver/src/stm32f4xx_cryp_aes.c ****   }
 565:libs/STM32F4xx_StdPeriph_Driver/src/stm32f4xx_cryp_aes.c ****   AES_CRYP_InitStructure.CRYP_AlgoMode = CRYP_AlgoMode_AES_CTR;
 1627              		.loc 1 565 0
 1628 00e8 3023     		movs	r3, #48
 1629 00ea ADF83A30 		strh	r3, [sp, #58]	@ movhi
 566:libs/STM32F4xx_StdPeriph_Driver/src/stm32f4xx_cryp_aes.c ****   AES_CRYP_InitStructure.CRYP_DataType = CRYP_DataType_8b;
 1630              		.loc 1 566 0
 1631 00ee 8023     		movs	r3, #128
 1632 00f0 ADF83C30 		strh	r3, [sp, #60]	@ movhi
 567:libs/STM32F4xx_StdPeriph_Driver/src/stm32f4xx_cryp_aes.c ****   CRYP_Init(&AES_CRYP_InitStructure);
 1633              		.loc 1 567 0
 1634 00f4 0EA8     		add	r0, sp, #56
 1635 00f6 FFF7FEFF 		bl	CRYP_Init
 1636              	.LVL274:
 568:libs/STM32F4xx_StdPeriph_Driver/src/stm32f4xx_cryp_aes.c **** 
 569:libs/STM32F4xx_StdPeriph_Driver/src/stm32f4xx_cryp_aes.c ****   /* CRYP Initialization Vectors */
 570:libs/STM32F4xx_StdPeriph_Driver/src/stm32f4xx_cryp_aes.c ****   CRYP_IVInit(&AES_CRYP_IVInitStructure);
 1637              		.loc 1 570 0
 1638 00fa 02A8     		add	r0, sp, #8
 1639 00fc FFF7FEFF 		bl	CRYP_IVInit
 1640              	.LVL275:
 571:libs/STM32F4xx_StdPeriph_Driver/src/stm32f4xx_cryp_aes.c **** 
 572:libs/STM32F4xx_StdPeriph_Driver/src/stm32f4xx_cryp_aes.c ****   /* Flush IN/OUT FIFOs */
 573:libs/STM32F4xx_StdPeriph_Driver/src/stm32f4xx_cryp_aes.c ****   CRYP_FIFOFlush();
 1641              		.loc 1 573 0
 1642 0100 FFF7FEFF 		bl	CRYP_FIFOFlush
 1643              	.LVL276:
 574:libs/STM32F4xx_StdPeriph_Driver/src/stm32f4xx_cryp_aes.c **** 
 575:libs/STM32F4xx_StdPeriph_Driver/src/stm32f4xx_cryp_aes.c ****   /* Enable Crypto processor */
 576:libs/STM32F4xx_StdPeriph_Driver/src/stm32f4xx_cryp_aes.c ****   CRYP_Cmd(ENABLE);
 1644              		.loc 1 576 0
 1645 0104 0120     		movs	r0, #1
 1646 0106 FFF7FEFF 		bl	CRYP_Cmd
 1647              	.LVL277:
 577:libs/STM32F4xx_StdPeriph_Driver/src/stm32f4xx_cryp_aes.c **** 
 578:libs/STM32F4xx_StdPeriph_Driver/src/stm32f4xx_cryp_aes.c ****   for(i=0; ((i<Ilength) && (status != ERROR)); i+=16)
 1648              		.loc 1 578 0
 1649 010a 0026     		movs	r6, #0
 1650              	.LVL278:
 484:libs/STM32F4xx_StdPeriph_Driver/src/stm32f4xx_cryp_aes.c ****   uint32_t keyaddr    = (uint32_t)Key;
 1651              		.loc 1 484 0
 1652 010c 0127     		movs	r7, #1
 579:libs/STM32F4xx_StdPeriph_Driver/src/stm32f4xx_cryp_aes.c ****   {
 580:libs/STM32F4xx_StdPeriph_Driver/src/stm32f4xx_cryp_aes.c **** 
 581:libs/STM32F4xx_StdPeriph_Driver/src/stm32f4xx_cryp_aes.c ****     /* Write the Input block in the IN FIFO */
 582:libs/STM32F4xx_StdPeriph_Driver/src/stm32f4xx_cryp_aes.c ****     CRYP_DataIn(*(uint32_t*)(inputaddr));
 583:libs/STM32F4xx_StdPeriph_Driver/src/stm32f4xx_cryp_aes.c ****     inputaddr+=4;
 584:libs/STM32F4xx_StdPeriph_Driver/src/stm32f4xx_cryp_aes.c ****     CRYP_DataIn(*(uint32_t*)(inputaddr));
 585:libs/STM32F4xx_StdPeriph_Driver/src/stm32f4xx_cryp_aes.c ****     inputaddr+=4;
 586:libs/STM32F4xx_StdPeriph_Driver/src/stm32f4xx_cryp_aes.c ****     CRYP_DataIn(*(uint32_t*)(inputaddr));
 587:libs/STM32F4xx_StdPeriph_Driver/src/stm32f4xx_cryp_aes.c ****     inputaddr+=4;
 588:libs/STM32F4xx_StdPeriph_Driver/src/stm32f4xx_cryp_aes.c ****     CRYP_DataIn(*(uint32_t*)(inputaddr));
 589:libs/STM32F4xx_StdPeriph_Driver/src/stm32f4xx_cryp_aes.c ****     inputaddr+=4;
 590:libs/STM32F4xx_StdPeriph_Driver/src/stm32f4xx_cryp_aes.c ****     /* Wait until the complete message has been processed */
 591:libs/STM32F4xx_StdPeriph_Driver/src/stm32f4xx_cryp_aes.c ****     counter = 0;
 1653              		.loc 1 591 0
 1654 010e B046     		mov	r8, r6
 592:libs/STM32F4xx_StdPeriph_Driver/src/stm32f4xx_cryp_aes.c ****     do
 593:libs/STM32F4xx_StdPeriph_Driver/src/stm32f4xx_cryp_aes.c ****     {
 594:libs/STM32F4xx_StdPeriph_Driver/src/stm32f4xx_cryp_aes.c ****       busystatus = CRYP_GetFlagStatus(CRYP_FLAG_BUSY);
 1655              		.loc 1 594 0
 1656 0110 1024     		movs	r4, #16
 1657              	.LVL279:
 578:libs/STM32F4xx_StdPeriph_Driver/src/stm32f4xx_cryp_aes.c ****   {
 1658              		.loc 1 578 0
 1659 0112 31E0     		b	.L44
 1660              	.LVL280:
 1661              	.L48:
 582:libs/STM32F4xx_StdPeriph_Driver/src/stm32f4xx_cryp_aes.c ****     inputaddr+=4;
 1662              		.loc 1 582 0
 1663 0114 2868     		ldr	r0, [r5]
 1664 0116 FFF7FEFF 		bl	CRYP_DataIn
 1665              	.LVL281:
 584:libs/STM32F4xx_StdPeriph_Driver/src/stm32f4xx_cryp_aes.c ****     inputaddr+=4;
 1666              		.loc 1 584 0
 1667 011a 6868     		ldr	r0, [r5, #4]
 1668 011c FFF7FEFF 		bl	CRYP_DataIn
 1669              	.LVL282:
 586:libs/STM32F4xx_StdPeriph_Driver/src/stm32f4xx_cryp_aes.c ****     inputaddr+=4;
 1670              		.loc 1 586 0
 1671 0120 A868     		ldr	r0, [r5, #8]
 1672 0122 FFF7FEFF 		bl	CRYP_DataIn
 1673              	.LVL283:
 588:libs/STM32F4xx_StdPeriph_Driver/src/stm32f4xx_cryp_aes.c ****     inputaddr+=4;
 1674              		.loc 1 588 0
 1675 0126 E868     		ldr	r0, [r5, #12]
 1676 0128 FFF7FEFF 		bl	CRYP_DataIn
 1677              	.LVL284:
 589:libs/STM32F4xx_StdPeriph_Driver/src/stm32f4xx_cryp_aes.c ****     /* Wait until the complete message has been processed */
 1678              		.loc 1 589 0
 1679 012c 1035     		adds	r5, r5, #16
 1680              	.LVL285:
 591:libs/STM32F4xx_StdPeriph_Driver/src/stm32f4xx_cryp_aes.c ****     do
 1681              		.loc 1 591 0
 1682 012e CDF80480 		str	r8, [sp, #4]
 1683              	.L46:
 1684              		.loc 1 594 0 discriminator 1
 1685 0132 2046     		mov	r0, r4
 1686 0134 FFF7FEFF 		bl	CRYP_GetFlagStatus
 1687              	.LVL286:
 1688 0138 0246     		mov	r2, r0
 1689              	.LVL287:
 595:libs/STM32F4xx_StdPeriph_Driver/src/stm32f4xx_cryp_aes.c ****       counter++;
 1690              		.loc 1 595 0 discriminator 1
 1691 013a 019B     		ldr	r3, [sp, #4]
 1692 013c 0133     		adds	r3, r3, #1
 1693 013e 0193     		str	r3, [sp, #4]
 596:libs/STM32F4xx_StdPeriph_Driver/src/stm32f4xx_cryp_aes.c ****     }while ((counter != AESBUSY_TIMEOUT) && (busystatus != RESET));
 1694              		.loc 1 596 0 discriminator 1
 1695 0140 019B     		ldr	r3, [sp, #4]
 1696 0142 B3F5803F 		cmp	r3, #65536
 1697 0146 01D0     		beq	.L45
 1698 0148 0028     		cmp	r0, #0
 1699 014a F2D1     		bne	.L46
 1700              	.L45:
 597:libs/STM32F4xx_StdPeriph_Driver/src/stm32f4xx_cryp_aes.c **** 
 598:libs/STM32F4xx_StdPeriph_Driver/src/stm32f4xx_cryp_aes.c ****     if (busystatus != RESET)
 1701              		.loc 1 598 0
 1702 014c 92B9     		cbnz	r2, .L49
 599:libs/STM32F4xx_StdPeriph_Driver/src/stm32f4xx_cryp_aes.c ****    {
 600:libs/STM32F4xx_StdPeriph_Driver/src/stm32f4xx_cryp_aes.c ****        status = ERROR;
 601:libs/STM32F4xx_StdPeriph_Driver/src/stm32f4xx_cryp_aes.c ****     }
 602:libs/STM32F4xx_StdPeriph_Driver/src/stm32f4xx_cryp_aes.c ****     else
 603:libs/STM32F4xx_StdPeriph_Driver/src/stm32f4xx_cryp_aes.c ****     {
 604:libs/STM32F4xx_StdPeriph_Driver/src/stm32f4xx_cryp_aes.c **** 
 605:libs/STM32F4xx_StdPeriph_Driver/src/stm32f4xx_cryp_aes.c ****       /* Read the Output block from the Output FIFO */
 606:libs/STM32F4xx_StdPeriph_Driver/src/stm32f4xx_cryp_aes.c ****       *(uint32_t*)(outputaddr) = CRYP_DataOut();
 1703              		.loc 1 606 0
 1704 014e FFF7FEFF 		bl	CRYP_DataOut
 1705              	.LVL288:
 1706 0152 C9F80000 		str	r0, [r9]
 1707              	.LVL289:
 607:libs/STM32F4xx_StdPeriph_Driver/src/stm32f4xx_cryp_aes.c ****       outputaddr+=4;
 608:libs/STM32F4xx_StdPeriph_Driver/src/stm32f4xx_cryp_aes.c ****       *(uint32_t*)(outputaddr) = CRYP_DataOut();
 1708              		.loc 1 608 0
 1709 0156 FFF7FEFF 		bl	CRYP_DataOut
 1710              	.LVL290:
 1711 015a C9F80400 		str	r0, [r9, #4]
 1712              	.LVL291:
 609:libs/STM32F4xx_StdPeriph_Driver/src/stm32f4xx_cryp_aes.c ****       outputaddr+=4;
 610:libs/STM32F4xx_StdPeriph_Driver/src/stm32f4xx_cryp_aes.c ****       *(uint32_t*)(outputaddr) = CRYP_DataOut();
 1713              		.loc 1 610 0
 1714 015e FFF7FEFF 		bl	CRYP_DataOut
 1715              	.LVL292:
 1716 0162 C9F80800 		str	r0, [r9, #8]
 1717              	.LVL293:
 611:libs/STM32F4xx_StdPeriph_Driver/src/stm32f4xx_cryp_aes.c ****       outputaddr+=4;
 612:libs/STM32F4xx_StdPeriph_Driver/src/stm32f4xx_cryp_aes.c ****       *(uint32_t*)(outputaddr) = CRYP_DataOut();
 1718              		.loc 1 612 0
 1719 0166 FFF7FEFF 		bl	CRYP_DataOut
 1720              	.LVL294:
 1721 016a C9F80C00 		str	r0, [r9, #12]
 613:libs/STM32F4xx_StdPeriph_Driver/src/stm32f4xx_cryp_aes.c ****       outputaddr+=4;
 1722              		.loc 1 613 0
 1723 016e 09F11009 		add	r9, r9, #16
 1724              	.LVL295:
 1725 0172 00E0     		b	.L47
 1726              	.LVL296:
 1727              	.L49:
 600:libs/STM32F4xx_StdPeriph_Driver/src/stm32f4xx_cryp_aes.c ****     }
 1728              		.loc 1 600 0
 1729 0174 4746     		mov	r7, r8
 1730              	.LVL297:
 1731              	.L47:
 578:libs/STM32F4xx_StdPeriph_Driver/src/stm32f4xx_cryp_aes.c ****   {
 1732              		.loc 1 578 0
 1733 0176 1036     		adds	r6, r6, #16
 1734              	.LVL298:
 1735              	.L44:
 578:libs/STM32F4xx_StdPeriph_Driver/src/stm32f4xx_cryp_aes.c ****   {
 1736              		.loc 1 578 0 is_stmt 0 discriminator 1
 1737 0178 5645     		cmp	r6, r10
 1738 017a 2CBF     		ite	cs
 1739 017c 0023     		movcs	r3, #0
 1740 017e 07F00103 		andcc	r3, r7, #1
 1741 0182 002B     		cmp	r3, #0
 1742 0184 C6D1     		bne	.L48
 614:libs/STM32F4xx_StdPeriph_Driver/src/stm32f4xx_cryp_aes.c ****     }
 615:libs/STM32F4xx_StdPeriph_Driver/src/stm32f4xx_cryp_aes.c ****   }
 616:libs/STM32F4xx_StdPeriph_Driver/src/stm32f4xx_cryp_aes.c ****   /* Disable Crypto */
 617:libs/STM32F4xx_StdPeriph_Driver/src/stm32f4xx_cryp_aes.c ****   CRYP_Cmd(DISABLE);
 1743              		.loc 1 617 0 is_stmt 1
 1744 0186 0020     		movs	r0, #0
 1745 0188 FFF7FEFF 		bl	CRYP_Cmd
 1746              	.LVL299:
 618:libs/STM32F4xx_StdPeriph_Driver/src/stm32f4xx_cryp_aes.c **** 
 619:libs/STM32F4xx_StdPeriph_Driver/src/stm32f4xx_cryp_aes.c ****   return status;
 620:libs/STM32F4xx_StdPeriph_Driver/src/stm32f4xx_cryp_aes.c **** }
 1747              		.loc 1 620 0
 1748 018c 3846     		mov	r0, r7
 1749 018e 10B0     		add	sp, sp, #64
 1750              		@ sp needed
 1751 0190 BDE8F087 		pop	{r4, r5, r6, r7, r8, r9, r10, pc}
 1752              		.cfi_endproc
 1753              	.LFE112:
 1755              		.text
 1756              	.Letext0:
 1757              		.file 3 "/usr/include/newlib/machine/_default_types.h"
 1758              		.file 4 "/usr/include/newlib/stdint.h"
 1759              		.file 5 "libs/Device/STM32F4xx/Include/stm32f4xx.h"
 1760              		.file 6 "libs/STM32F4xx_StdPeriph_Driver/inc/stm32f4xx_cryp.h"
 1761              		.file 7 "libs/CMSIS/Include/core_cm4.h"