   1              		.syntax unified
   2              		.cpu cortex-m4
   3              		.eabi_attribute 27, 3
   4              		.fpu fpv4-sp-d16
   5              		.eabi_attribute 20, 1
   6              		.eabi_attribute 21, 1
   7              		.eabi_attribute 23, 3
   8              		.eabi_attribute 24, 1
   9              		.eabi_attribute 25, 1
  10              		.eabi_attribute 26, 1
  11              		.eabi_attribute 30, 1
  12              		.eabi_attribute 34, 1
  13              		.eabi_attribute 18, 4
  14              		.thumb
  15              		.file	"stm32f4xx_crc.c"
  16              		.text
  17              	.Ltext0:
  18              		.cfi_sections	.debug_frame
  19              		.section	.text.CRC_ResetDR,"ax",%progbits
  20              		.align	2
  21              		.global	CRC_ResetDR
  22              		.thumb
  23              		.thumb_func
  25              	CRC_ResetDR:
  26              	.LFB110:
  27              		.file 1 "libs/STM32F4xx_StdPeriph_Driver/src/stm32f4xx_crc.c"
   1:libs/STM32F4xx_StdPeriph_Driver/src/stm32f4xx_crc.c **** /**
   2:libs/STM32F4xx_StdPeriph_Driver/src/stm32f4xx_crc.c ****   ******************************************************************************
   3:libs/STM32F4xx_StdPeriph_Driver/src/stm32f4xx_crc.c ****   * @file    stm32f4xx_crc.c
   4:libs/STM32F4xx_StdPeriph_Driver/src/stm32f4xx_crc.c ****   * @author  MCD Application Team
   5:libs/STM32F4xx_StdPeriph_Driver/src/stm32f4xx_crc.c ****   * @version V1.0.0RC1
   6:libs/STM32F4xx_StdPeriph_Driver/src/stm32f4xx_crc.c ****   * @date    25-August-2011
   7:libs/STM32F4xx_StdPeriph_Driver/src/stm32f4xx_crc.c ****   * @brief   This file provides all the CRC firmware functions.
   8:libs/STM32F4xx_StdPeriph_Driver/src/stm32f4xx_crc.c ****   ******************************************************************************
   9:libs/STM32F4xx_StdPeriph_Driver/src/stm32f4xx_crc.c ****   * @attention
  10:libs/STM32F4xx_StdPeriph_Driver/src/stm32f4xx_crc.c ****   *
  11:libs/STM32F4xx_StdPeriph_Driver/src/stm32f4xx_crc.c ****   * THE PRESENT FIRMWARE WHICH IS FOR GUIDANCE ONLY AIMS AT PROVIDING CUSTOMERS
  12:libs/STM32F4xx_StdPeriph_Driver/src/stm32f4xx_crc.c ****   * WITH CODING INFORMATION REGARDING THEIR PRODUCTS IN ORDER FOR THEM TO SAVE
  13:libs/STM32F4xx_StdPeriph_Driver/src/stm32f4xx_crc.c ****   * TIME. AS A RESULT, STMICROELECTRONICS SHALL NOT BE HELD LIABLE FOR ANY
  14:libs/STM32F4xx_StdPeriph_Driver/src/stm32f4xx_crc.c ****   * DIRECT, INDIRECT OR CONSEQUENTIAL DAMAGES WITH RESPECT TO ANY CLAIMS ARISING
  15:libs/STM32F4xx_StdPeriph_Driver/src/stm32f4xx_crc.c ****   * FROM THE CONTENT OF SUCH FIRMWARE AND/OR THE USE MADE BY CUSTOMERS OF THE
  16:libs/STM32F4xx_StdPeriph_Driver/src/stm32f4xx_crc.c ****   * CODING INFORMATION CONTAINED HEREIN IN CONNECTION WITH THEIR PRODUCTS.
  17:libs/STM32F4xx_StdPeriph_Driver/src/stm32f4xx_crc.c ****   *
  18:libs/STM32F4xx_StdPeriph_Driver/src/stm32f4xx_crc.c ****   * <h2><center>&copy; COPYRIGHT 2011 STMicroelectronics</center></h2>
  19:libs/STM32F4xx_StdPeriph_Driver/src/stm32f4xx_crc.c ****   ******************************************************************************
  20:libs/STM32F4xx_StdPeriph_Driver/src/stm32f4xx_crc.c ****   */
  21:libs/STM32F4xx_StdPeriph_Driver/src/stm32f4xx_crc.c **** 
  22:libs/STM32F4xx_StdPeriph_Driver/src/stm32f4xx_crc.c **** /* Includes ------------------------------------------------------------------*/
  23:libs/STM32F4xx_StdPeriph_Driver/src/stm32f4xx_crc.c **** #include "stm32f4xx_crc.h"
  24:libs/STM32F4xx_StdPeriph_Driver/src/stm32f4xx_crc.c **** 
  25:libs/STM32F4xx_StdPeriph_Driver/src/stm32f4xx_crc.c **** /** @addtogroup STM32F4xx_StdPeriph_Driver
  26:libs/STM32F4xx_StdPeriph_Driver/src/stm32f4xx_crc.c ****   * @{
  27:libs/STM32F4xx_StdPeriph_Driver/src/stm32f4xx_crc.c ****   */
  28:libs/STM32F4xx_StdPeriph_Driver/src/stm32f4xx_crc.c **** 
  29:libs/STM32F4xx_StdPeriph_Driver/src/stm32f4xx_crc.c **** /** @defgroup CRC 
  30:libs/STM32F4xx_StdPeriph_Driver/src/stm32f4xx_crc.c ****   * @brief CRC driver modules
  31:libs/STM32F4xx_StdPeriph_Driver/src/stm32f4xx_crc.c ****   * @{
  32:libs/STM32F4xx_StdPeriph_Driver/src/stm32f4xx_crc.c ****   */
  33:libs/STM32F4xx_StdPeriph_Driver/src/stm32f4xx_crc.c **** 
  34:libs/STM32F4xx_StdPeriph_Driver/src/stm32f4xx_crc.c **** /* Private typedef -----------------------------------------------------------*/
  35:libs/STM32F4xx_StdPeriph_Driver/src/stm32f4xx_crc.c **** /* Private define ------------------------------------------------------------*/
  36:libs/STM32F4xx_StdPeriph_Driver/src/stm32f4xx_crc.c **** /* Private macro -------------------------------------------------------------*/
  37:libs/STM32F4xx_StdPeriph_Driver/src/stm32f4xx_crc.c **** /* Private variables ---------------------------------------------------------*/
  38:libs/STM32F4xx_StdPeriph_Driver/src/stm32f4xx_crc.c **** /* Private function prototypes -----------------------------------------------*/
  39:libs/STM32F4xx_StdPeriph_Driver/src/stm32f4xx_crc.c **** /* Private functions ---------------------------------------------------------*/
  40:libs/STM32F4xx_StdPeriph_Driver/src/stm32f4xx_crc.c **** 
  41:libs/STM32F4xx_StdPeriph_Driver/src/stm32f4xx_crc.c **** /** @defgroup CRC_Private_Functions
  42:libs/STM32F4xx_StdPeriph_Driver/src/stm32f4xx_crc.c ****   * @{
  43:libs/STM32F4xx_StdPeriph_Driver/src/stm32f4xx_crc.c ****   */
  44:libs/STM32F4xx_StdPeriph_Driver/src/stm32f4xx_crc.c **** 
  45:libs/STM32F4xx_StdPeriph_Driver/src/stm32f4xx_crc.c **** /**
  46:libs/STM32F4xx_StdPeriph_Driver/src/stm32f4xx_crc.c ****   * @brief  Resets the CRC Data register (DR).
  47:libs/STM32F4xx_StdPeriph_Driver/src/stm32f4xx_crc.c ****   * @param  None
  48:libs/STM32F4xx_StdPeriph_Driver/src/stm32f4xx_crc.c ****   * @retval None
  49:libs/STM32F4xx_StdPeriph_Driver/src/stm32f4xx_crc.c ****   */
  50:libs/STM32F4xx_StdPeriph_Driver/src/stm32f4xx_crc.c **** void CRC_ResetDR(void)
  51:libs/STM32F4xx_StdPeriph_Driver/src/stm32f4xx_crc.c **** {
  28              		.loc 1 51 0
  29              		.cfi_startproc
  30              		@ args = 0, pretend = 0, frame = 0
  31              		@ frame_needed = 0, uses_anonymous_args = 0
  32              		@ link register save eliminated.
  52:libs/STM32F4xx_StdPeriph_Driver/src/stm32f4xx_crc.c ****   /* Reset CRC generator */
  53:libs/STM32F4xx_StdPeriph_Driver/src/stm32f4xx_crc.c ****   CRC->CR = CRC_CR_RESET;
  33              		.loc 1 53 0
  34 0000 4FF44053 		mov	r3, #12288
  35 0004 C4F20203 		movt	r3, 16386
  36 0008 0122     		movs	r2, #1
  37 000a 9A60     		str	r2, [r3, #8]
  38 000c 7047     		bx	lr
  39              		.cfi_endproc
  40              	.LFE110:
  42 000e 00BF     		.section	.text.CRC_CalcCRC,"ax",%progbits
  43              		.align	2
  44              		.global	CRC_CalcCRC
  45              		.thumb
  46              		.thumb_func
  48              	CRC_CalcCRC:
  49              	.LFB111:
  54:libs/STM32F4xx_StdPeriph_Driver/src/stm32f4xx_crc.c **** }
  55:libs/STM32F4xx_StdPeriph_Driver/src/stm32f4xx_crc.c **** 
  56:libs/STM32F4xx_StdPeriph_Driver/src/stm32f4xx_crc.c **** /**
  57:libs/STM32F4xx_StdPeriph_Driver/src/stm32f4xx_crc.c ****   * @brief  Computes the 32-bit CRC of a given data word(32-bit).
  58:libs/STM32F4xx_StdPeriph_Driver/src/stm32f4xx_crc.c ****   * @param  Data: data word(32-bit) to compute its CRC
  59:libs/STM32F4xx_StdPeriph_Driver/src/stm32f4xx_crc.c ****   * @retval 32-bit CRC
  60:libs/STM32F4xx_StdPeriph_Driver/src/stm32f4xx_crc.c ****   */
  61:libs/STM32F4xx_StdPeriph_Driver/src/stm32f4xx_crc.c **** uint32_t CRC_CalcCRC(uint32_t Data)
  62:libs/STM32F4xx_StdPeriph_Driver/src/stm32f4xx_crc.c **** {
  50              		.loc 1 62 0
  51              		.cfi_startproc
  52              		@ args = 0, pretend = 0, frame = 0
  53              		@ frame_needed = 0, uses_anonymous_args = 0
  54              		@ link register save eliminated.
  55              	.LVL0:
  63:libs/STM32F4xx_StdPeriph_Driver/src/stm32f4xx_crc.c ****   CRC->DR = Data;
  56              		.loc 1 63 0
  57 0000 4FF44053 		mov	r3, #12288
  58 0004 C4F20203 		movt	r3, 16386
  59 0008 1860     		str	r0, [r3]
  64:libs/STM32F4xx_StdPeriph_Driver/src/stm32f4xx_crc.c ****   
  65:libs/STM32F4xx_StdPeriph_Driver/src/stm32f4xx_crc.c ****   return (CRC->DR);
  60              		.loc 1 65 0
  61 000a 1868     		ldr	r0, [r3]
  62              	.LVL1:
  66:libs/STM32F4xx_StdPeriph_Driver/src/stm32f4xx_crc.c **** }
  63              		.loc 1 66 0
  64 000c 7047     		bx	lr
  65              		.cfi_endproc
  66              	.LFE111:
  68 000e 00BF     		.section	.text.CRC_CalcBlockCRC,"ax",%progbits
  69              		.align	2
  70              		.global	CRC_CalcBlockCRC
  71              		.thumb
  72              		.thumb_func
  74              	CRC_CalcBlockCRC:
  75              	.LFB112:
  67:libs/STM32F4xx_StdPeriph_Driver/src/stm32f4xx_crc.c **** 
  68:libs/STM32F4xx_StdPeriph_Driver/src/stm32f4xx_crc.c **** /**
  69:libs/STM32F4xx_StdPeriph_Driver/src/stm32f4xx_crc.c ****   * @brief  Computes the 32-bit CRC of a given buffer of data word(32-bit).
  70:libs/STM32F4xx_StdPeriph_Driver/src/stm32f4xx_crc.c ****   * @param  pBuffer: pointer to the buffer containing the data to be computed
  71:libs/STM32F4xx_StdPeriph_Driver/src/stm32f4xx_crc.c ****   * @param  BufferLength: length of the buffer to be computed					
  72:libs/STM32F4xx_StdPeriph_Driver/src/stm32f4xx_crc.c ****   * @retval 32-bit CRC
  73:libs/STM32F4xx_StdPeriph_Driver/src/stm32f4xx_crc.c ****   */
  74:libs/STM32F4xx_StdPeriph_Driver/src/stm32f4xx_crc.c **** uint32_t CRC_CalcBlockCRC(uint32_t pBuffer[], uint32_t BufferLength)
  75:libs/STM32F4xx_StdPeriph_Driver/src/stm32f4xx_crc.c **** {
  76              		.loc 1 75 0
  77              		.cfi_startproc
  78              		@ args = 0, pretend = 0, frame = 0
  79              		@ frame_needed = 0, uses_anonymous_args = 0
  80              		@ link register save eliminated.
  81              	.LVL2:
  82 0000 10B4     		push	{r4}
  83              	.LCFI0:
  84              		.cfi_def_cfa_offset 4
  85              		.cfi_offset 4, -4
  86              	.LVL3:
  76:libs/STM32F4xx_StdPeriph_Driver/src/stm32f4xx_crc.c ****   uint32_t index = 0;
  77:libs/STM32F4xx_StdPeriph_Driver/src/stm32f4xx_crc.c ****   
  78:libs/STM32F4xx_StdPeriph_Driver/src/stm32f4xx_crc.c ****   for(index = 0; index < BufferLength; index++)
  87              		.loc 1 78 0
  88 0002 0023     		movs	r3, #0
  79:libs/STM32F4xx_StdPeriph_Driver/src/stm32f4xx_crc.c ****   {
  80:libs/STM32F4xx_StdPeriph_Driver/src/stm32f4xx_crc.c ****     CRC->DR = pBuffer[index];
  89              		.loc 1 80 0
  90 0004 4FF44054 		mov	r4, #12288
  91 0008 C4F20204 		movt	r4, 16386
  78:libs/STM32F4xx_StdPeriph_Driver/src/stm32f4xx_crc.c ****   {
  92              		.loc 1 78 0
  93 000c 03E0     		b	.L4
  94              	.LVL4:
  95              	.L5:
  96              		.loc 1 80 0 discriminator 2
  97 000e 50F82320 		ldr	r2, [r0, r3, lsl #2]
  98 0012 2260     		str	r2, [r4]
  78:libs/STM32F4xx_StdPeriph_Driver/src/stm32f4xx_crc.c ****   {
  99              		.loc 1 78 0 discriminator 2
 100 0014 0133     		adds	r3, r3, #1
 101              	.LVL5:
 102              	.L4:
  78:libs/STM32F4xx_StdPeriph_Driver/src/stm32f4xx_crc.c ****   {
 103              		.loc 1 78 0 is_stmt 0 discriminator 1
 104 0016 8B42     		cmp	r3, r1
 105 0018 F9D3     		bcc	.L5
  81:libs/STM32F4xx_StdPeriph_Driver/src/stm32f4xx_crc.c ****   }
  82:libs/STM32F4xx_StdPeriph_Driver/src/stm32f4xx_crc.c ****   return (CRC->DR);
 106              		.loc 1 82 0 is_stmt 1
 107 001a 4FF44053 		mov	r3, #12288
 108              	.LVL6:
 109 001e C4F20203 		movt	r3, 16386
 110 0022 1868     		ldr	r0, [r3]
 111              	.LVL7:
  83:libs/STM32F4xx_StdPeriph_Driver/src/stm32f4xx_crc.c **** }
 112              		.loc 1 83 0
 113 0024 5DF8044B 		ldr	r4, [sp], #4
 114 0028 7047     		bx	lr
 115              		.cfi_endproc
 116              	.LFE112:
 118 002a 00BF     		.section	.text.CRC_GetCRC,"ax",%progbits
 119              		.align	2
 120              		.global	CRC_GetCRC
 121              		.thumb
 122              		.thumb_func
 124              	CRC_GetCRC:
 125              	.LFB113:
  84:libs/STM32F4xx_StdPeriph_Driver/src/stm32f4xx_crc.c **** 
  85:libs/STM32F4xx_StdPeriph_Driver/src/stm32f4xx_crc.c **** /**
  86:libs/STM32F4xx_StdPeriph_Driver/src/stm32f4xx_crc.c ****   * @brief  Returns the current CRC value.
  87:libs/STM32F4xx_StdPeriph_Driver/src/stm32f4xx_crc.c ****   * @param  None
  88:libs/STM32F4xx_StdPeriph_Driver/src/stm32f4xx_crc.c ****   * @retval 32-bit CRC
  89:libs/STM32F4xx_StdPeriph_Driver/src/stm32f4xx_crc.c ****   */
  90:libs/STM32F4xx_StdPeriph_Driver/src/stm32f4xx_crc.c **** uint32_t CRC_GetCRC(void)
  91:libs/STM32F4xx_StdPeriph_Driver/src/stm32f4xx_crc.c **** {
 126              		.loc 1 91 0
 127              		.cfi_startproc
 128              		@ args = 0, pretend = 0, frame = 0
 129              		@ frame_needed = 0, uses_anonymous_args = 0
 130              		@ link register save eliminated.
  92:libs/STM32F4xx_StdPeriph_Driver/src/stm32f4xx_crc.c ****   return (CRC->DR);
 131              		.loc 1 92 0
 132 0000 4FF44053 		mov	r3, #12288
 133 0004 C4F20203 		movt	r3, 16386
 134 0008 1868     		ldr	r0, [r3]
  93:libs/STM32F4xx_StdPeriph_Driver/src/stm32f4xx_crc.c **** }
 135              		.loc 1 93 0
 136 000a 7047     		bx	lr
 137              		.cfi_endproc
 138              	.LFE113:
 140              		.section	.text.CRC_SetIDRegister,"ax",%progbits
 141              		.align	2
 142              		.global	CRC_SetIDRegister
 143              		.thumb
 144              		.thumb_func
 146              	CRC_SetIDRegister:
 147              	.LFB114:
  94:libs/STM32F4xx_StdPeriph_Driver/src/stm32f4xx_crc.c **** 
  95:libs/STM32F4xx_StdPeriph_Driver/src/stm32f4xx_crc.c **** /**
  96:libs/STM32F4xx_StdPeriph_Driver/src/stm32f4xx_crc.c ****   * @brief  Stores a 8-bit data in the Independent Data(ID) register.
  97:libs/STM32F4xx_StdPeriph_Driver/src/stm32f4xx_crc.c ****   * @param  IDValue: 8-bit value to be stored in the ID register 					
  98:libs/STM32F4xx_StdPeriph_Driver/src/stm32f4xx_crc.c ****   * @retval None
  99:libs/STM32F4xx_StdPeriph_Driver/src/stm32f4xx_crc.c ****   */
 100:libs/STM32F4xx_StdPeriph_Driver/src/stm32f4xx_crc.c **** void CRC_SetIDRegister(uint8_t IDValue)
 101:libs/STM32F4xx_StdPeriph_Driver/src/stm32f4xx_crc.c **** {
 148              		.loc 1 101 0
 149              		.cfi_startproc
 150              		@ args = 0, pretend = 0, frame = 0
 151              		@ frame_needed = 0, uses_anonymous_args = 0
 152              		@ link register save eliminated.
 153              	.LVL8:
 102:libs/STM32F4xx_StdPeriph_Driver/src/stm32f4xx_crc.c ****   CRC->IDR = IDValue;
 154              		.loc 1 102 0
 155 0000 4FF44053 		mov	r3, #12288
 156 0004 C4F20203 		movt	r3, 16386
 157 0008 1871     		strb	r0, [r3, #4]
 158 000a 7047     		bx	lr
 159              		.cfi_endproc
 160              	.LFE114:
 162              		.section	.text.CRC_GetIDRegister,"ax",%progbits
 163              		.align	2
 164              		.global	CRC_GetIDRegister
 165              		.thumb
 166              		.thumb_func
 168              	CRC_GetIDRegister:
 169              	.LFB115:
 103:libs/STM32F4xx_StdPeriph_Driver/src/stm32f4xx_crc.c **** }
 104:libs/STM32F4xx_StdPeriph_Driver/src/stm32f4xx_crc.c **** 
 105:libs/STM32F4xx_StdPeriph_Driver/src/stm32f4xx_crc.c **** /**
 106:libs/STM32F4xx_StdPeriph_Driver/src/stm32f4xx_crc.c ****   * @brief  Returns the 8-bit data stored in the Independent Data(ID) register
 107:libs/STM32F4xx_StdPeriph_Driver/src/stm32f4xx_crc.c ****   * @param  None
 108:libs/STM32F4xx_StdPeriph_Driver/src/stm32f4xx_crc.c ****   * @retval 8-bit value of the ID register 
 109:libs/STM32F4xx_StdPeriph_Driver/src/stm32f4xx_crc.c ****   */
 110:libs/STM32F4xx_StdPeriph_Driver/src/stm32f4xx_crc.c **** uint8_t CRC_GetIDRegister(void)
 111:libs/STM32F4xx_StdPeriph_Driver/src/stm32f4xx_crc.c **** {
 170              		.loc 1 111 0
 171              		.cfi_startproc
 172              		@ args = 0, pretend = 0, frame = 0
 173              		@ frame_needed = 0, uses_anonymous_args = 0
 174              		@ link register save eliminated.
 112:libs/STM32F4xx_StdPeriph_Driver/src/stm32f4xx_crc.c ****   return (CRC->IDR);
 175              		.loc 1 112 0
 176 0000 4FF44053 		mov	r3, #12288
 177 0004 C4F20203 		movt	r3, 16386
 178 0008 1879     		ldrb	r0, [r3, #4]	@ zero_extendqisi2
 113:libs/STM32F4xx_StdPeriph_Driver/src/stm32f4xx_crc.c **** }
 179              		.loc 1 113 0
 180 000a 7047     		bx	lr
 181              		.cfi_endproc
 182              	.LFE115:
 184              		.text
 185              	.Letext0:
 186              		.file 2 "/usr/include/newlib/machine/_default_types.h"
 187              		.file 3 "/usr/include/newlib/stdint.h"
 188              		.file 4 "libs/Device/STM32F4xx/Include/stm32f4xx.h"
 189              		.file 5 "libs/CMSIS/Include/core_cm4.h"