   1              		.syntax unified
   2              		.cpu cortex-m4
   3              		.eabi_attribute 27, 3
   4              		.fpu fpv4-sp-d16
   5              		.eabi_attribute 20, 1
   6              		.eabi_attribute 21, 1
   7              		.eabi_attribute 23, 3
   8              		.eabi_attribute 24, 1
   9              		.eabi_attribute 25, 1
  10              		.eabi_attribute 26, 1
  11              		.eabi_attribute 30, 6
  12              		.eabi_attribute 34, 1
  13              		.eabi_attribute 18, 4
  14              		.thumb
  15              		.file	"stm32f4xx_tim.c"
  16              		.text
  17              	.Ltext0:
  18              		.cfi_sections	.debug_frame
  19              		.section	.text.TIM_DeInit,"ax",%progbits
  20              		.align	2
  21              		.global	TIM_DeInit
  22              		.thumb
  23              		.thumb_func
  25              	TIM_DeInit:
  26              	.LFB110:
  27              		.file 1 "libs/STM32F4xx_StdPeriph_Driver/src/stm32f4xx_tim.c"
   1:libs/STM32F4xx_StdPeriph_Driver/src/stm32f4xx_tim.c **** /**
   2:libs/STM32F4xx_StdPeriph_Driver/src/stm32f4xx_tim.c ****   ******************************************************************************
   3:libs/STM32F4xx_StdPeriph_Driver/src/stm32f4xx_tim.c ****   * @file    stm32f4xx_tim.c
   4:libs/STM32F4xx_StdPeriph_Driver/src/stm32f4xx_tim.c ****   * @author  MCD Application Team
   5:libs/STM32F4xx_StdPeriph_Driver/src/stm32f4xx_tim.c ****   * @version V1.0.0RC1
   6:libs/STM32F4xx_StdPeriph_Driver/src/stm32f4xx_tim.c ****   * @date    25-August-2011
   7:libs/STM32F4xx_StdPeriph_Driver/src/stm32f4xx_tim.c ****   * @brief   This file provides firmware functions to manage the following 
   8:libs/STM32F4xx_StdPeriph_Driver/src/stm32f4xx_tim.c ****   *          functionalities of the TIM peripheral:
   9:libs/STM32F4xx_StdPeriph_Driver/src/stm32f4xx_tim.c ****   *            - TimeBase management
  10:libs/STM32F4xx_StdPeriph_Driver/src/stm32f4xx_tim.c ****   *            - Output Compare management
  11:libs/STM32F4xx_StdPeriph_Driver/src/stm32f4xx_tim.c ****   *            - Input Capture management
  12:libs/STM32F4xx_StdPeriph_Driver/src/stm32f4xx_tim.c ****   *            - Advanced-control timers (TIM1 and TIM8) specific features  
  13:libs/STM32F4xx_StdPeriph_Driver/src/stm32f4xx_tim.c ****   *            - Interrupts, DMA and flags management
  14:libs/STM32F4xx_StdPeriph_Driver/src/stm32f4xx_tim.c ****   *            - Clocks management
  15:libs/STM32F4xx_StdPeriph_Driver/src/stm32f4xx_tim.c ****   *            - Synchronization management
  16:libs/STM32F4xx_StdPeriph_Driver/src/stm32f4xx_tim.c ****   *            - Specific interface management
  17:libs/STM32F4xx_StdPeriph_Driver/src/stm32f4xx_tim.c ****   *            - Specific remapping management      
  18:libs/STM32F4xx_StdPeriph_Driver/src/stm32f4xx_tim.c ****   *              
  19:libs/STM32F4xx_StdPeriph_Driver/src/stm32f4xx_tim.c ****   *  @verbatim
  20:libs/STM32F4xx_StdPeriph_Driver/src/stm32f4xx_tim.c ****   *  
  21:libs/STM32F4xx_StdPeriph_Driver/src/stm32f4xx_tim.c ****   *          ===================================================================
  22:libs/STM32F4xx_StdPeriph_Driver/src/stm32f4xx_tim.c ****   *                                 How to use this driver
  23:libs/STM32F4xx_StdPeriph_Driver/src/stm32f4xx_tim.c ****   *          ===================================================================
  24:libs/STM32F4xx_StdPeriph_Driver/src/stm32f4xx_tim.c ****   *          This driver provides functions to configure and program the TIM 
  25:libs/STM32F4xx_StdPeriph_Driver/src/stm32f4xx_tim.c ****   *          of all STM32F4xx devices.
  26:libs/STM32F4xx_StdPeriph_Driver/src/stm32f4xx_tim.c ****   *          These functions are split in 9 groups: 
  27:libs/STM32F4xx_StdPeriph_Driver/src/stm32f4xx_tim.c ****   *   
  28:libs/STM32F4xx_StdPeriph_Driver/src/stm32f4xx_tim.c ****   *          1. TIM TimeBase management: this group includes all needed functions 
  29:libs/STM32F4xx_StdPeriph_Driver/src/stm32f4xx_tim.c ****   *             to configure the TM Timebase unit:
  30:libs/STM32F4xx_StdPeriph_Driver/src/stm32f4xx_tim.c ****   *                   - Set/Get Prescaler
  31:libs/STM32F4xx_StdPeriph_Driver/src/stm32f4xx_tim.c ****   *                   - Set/Get Autoreload  
  32:libs/STM32F4xx_StdPeriph_Driver/src/stm32f4xx_tim.c ****   *                   - Counter modes configuration
  33:libs/STM32F4xx_StdPeriph_Driver/src/stm32f4xx_tim.c ****   *                   - Set Clock division  
  34:libs/STM32F4xx_StdPeriph_Driver/src/stm32f4xx_tim.c ****   *                   - Select the One Pulse mode
  35:libs/STM32F4xx_StdPeriph_Driver/src/stm32f4xx_tim.c ****   *                   - Update Request Configuration
  36:libs/STM32F4xx_StdPeriph_Driver/src/stm32f4xx_tim.c ****   *                   - Update Disable Configuration
  37:libs/STM32F4xx_StdPeriph_Driver/src/stm32f4xx_tim.c ****   *                   - Auto-Preload Configuration 
  38:libs/STM32F4xx_StdPeriph_Driver/src/stm32f4xx_tim.c ****   *                   - Enable/Disable the counter     
  39:libs/STM32F4xx_StdPeriph_Driver/src/stm32f4xx_tim.c ****   *                 
  40:libs/STM32F4xx_StdPeriph_Driver/src/stm32f4xx_tim.c ****   *          2. TIM Output Compare management: this group includes all needed 
  41:libs/STM32F4xx_StdPeriph_Driver/src/stm32f4xx_tim.c ****   *             functions to configure the Capture/Compare unit used in Output 
  42:libs/STM32F4xx_StdPeriph_Driver/src/stm32f4xx_tim.c ****   *             compare mode: 
  43:libs/STM32F4xx_StdPeriph_Driver/src/stm32f4xx_tim.c ****   *                   - Configure each channel, independently, in Output Compare mode
  44:libs/STM32F4xx_StdPeriph_Driver/src/stm32f4xx_tim.c ****   *                   - Select the output compare modes
  45:libs/STM32F4xx_StdPeriph_Driver/src/stm32f4xx_tim.c ****   *                   - Select the Polarities of each channel
  46:libs/STM32F4xx_StdPeriph_Driver/src/stm32f4xx_tim.c ****   *                   - Set/Get the Capture/Compare register values
  47:libs/STM32F4xx_StdPeriph_Driver/src/stm32f4xx_tim.c ****   *                   - Select the Output Compare Fast mode 
  48:libs/STM32F4xx_StdPeriph_Driver/src/stm32f4xx_tim.c ****   *                   - Select the Output Compare Forced mode  
  49:libs/STM32F4xx_StdPeriph_Driver/src/stm32f4xx_tim.c ****   *                   - Output Compare-Preload Configuration 
  50:libs/STM32F4xx_StdPeriph_Driver/src/stm32f4xx_tim.c ****   *                   - Clear Output Compare Reference
  51:libs/STM32F4xx_StdPeriph_Driver/src/stm32f4xx_tim.c ****   *                   - Select the OCREF Clear signal
  52:libs/STM32F4xx_StdPeriph_Driver/src/stm32f4xx_tim.c ****   *                   - Enable/Disable the Capture/Compare Channels    
  53:libs/STM32F4xx_StdPeriph_Driver/src/stm32f4xx_tim.c ****   *                   
  54:libs/STM32F4xx_StdPeriph_Driver/src/stm32f4xx_tim.c ****   *          3. TIM Input Capture management: this group includes all needed 
  55:libs/STM32F4xx_StdPeriph_Driver/src/stm32f4xx_tim.c ****   *             functions to configure the Capture/Compare unit used in 
  56:libs/STM32F4xx_StdPeriph_Driver/src/stm32f4xx_tim.c ****   *             Input Capture mode:
  57:libs/STM32F4xx_StdPeriph_Driver/src/stm32f4xx_tim.c ****   *                   - Configure each channel in input capture mode
  58:libs/STM32F4xx_StdPeriph_Driver/src/stm32f4xx_tim.c ****   *                   - Configure Channel1/2 in PWM Input mode
  59:libs/STM32F4xx_StdPeriph_Driver/src/stm32f4xx_tim.c ****   *                   - Set the Input Capture Prescaler
  60:libs/STM32F4xx_StdPeriph_Driver/src/stm32f4xx_tim.c ****   *                   - Get the Capture/Compare values      
  61:libs/STM32F4xx_StdPeriph_Driver/src/stm32f4xx_tim.c ****   *                   
  62:libs/STM32F4xx_StdPeriph_Driver/src/stm32f4xx_tim.c ****   *          4. Advanced-control timers (TIM1 and TIM8) specific features
  63:libs/STM32F4xx_StdPeriph_Driver/src/stm32f4xx_tim.c ****   *                   - Configures the Break input, dead time, Lock level, the OSSI,
  64:libs/STM32F4xx_StdPeriph_Driver/src/stm32f4xx_tim.c ****   *                      the OSSR State and the AOE(automatic output enable)
  65:libs/STM32F4xx_StdPeriph_Driver/src/stm32f4xx_tim.c ****   *                   - Enable/Disable the TIM peripheral Main Outputs
  66:libs/STM32F4xx_StdPeriph_Driver/src/stm32f4xx_tim.c ****   *                   - Select the Commutation event
  67:libs/STM32F4xx_StdPeriph_Driver/src/stm32f4xx_tim.c ****   *                   - Set/Reset the Capture Compare Preload Control bit
  68:libs/STM32F4xx_StdPeriph_Driver/src/stm32f4xx_tim.c ****   *                              
  69:libs/STM32F4xx_StdPeriph_Driver/src/stm32f4xx_tim.c ****   *          5. TIM interrupts, DMA and flags management
  70:libs/STM32F4xx_StdPeriph_Driver/src/stm32f4xx_tim.c ****   *                   - Enable/Disable interrupt sources
  71:libs/STM32F4xx_StdPeriph_Driver/src/stm32f4xx_tim.c ****   *                   - Get flags status
  72:libs/STM32F4xx_StdPeriph_Driver/src/stm32f4xx_tim.c ****   *                   - Clear flags/ Pending bits
  73:libs/STM32F4xx_StdPeriph_Driver/src/stm32f4xx_tim.c ****   *                   - Enable/Disable DMA requests 
  74:libs/STM32F4xx_StdPeriph_Driver/src/stm32f4xx_tim.c ****   *                   - Configure DMA burst mode
  75:libs/STM32F4xx_StdPeriph_Driver/src/stm32f4xx_tim.c ****   *                   - Select CaptureCompare DMA request  
  76:libs/STM32F4xx_StdPeriph_Driver/src/stm32f4xx_tim.c ****   *              
  77:libs/STM32F4xx_StdPeriph_Driver/src/stm32f4xx_tim.c ****   *          6. TIM clocks management: this group includes all needed functions 
  78:libs/STM32F4xx_StdPeriph_Driver/src/stm32f4xx_tim.c ****   *             to configure the clock controller unit:
  79:libs/STM32F4xx_StdPeriph_Driver/src/stm32f4xx_tim.c ****   *                   - Select internal/External clock
  80:libs/STM32F4xx_StdPeriph_Driver/src/stm32f4xx_tim.c ****   *                   - Select the external clock mode: ETR(Mode1/Mode2), TIx or ITRx
  81:libs/STM32F4xx_StdPeriph_Driver/src/stm32f4xx_tim.c ****   *         
  82:libs/STM32F4xx_StdPeriph_Driver/src/stm32f4xx_tim.c ****   *          7. TIM synchronization management: this group includes all needed 
  83:libs/STM32F4xx_StdPeriph_Driver/src/stm32f4xx_tim.c ****   *             functions to configure the Synchronization unit:
  84:libs/STM32F4xx_StdPeriph_Driver/src/stm32f4xx_tim.c ****   *                   - Select Input Trigger  
  85:libs/STM32F4xx_StdPeriph_Driver/src/stm32f4xx_tim.c ****   *                   - Select Output Trigger  
  86:libs/STM32F4xx_StdPeriph_Driver/src/stm32f4xx_tim.c ****   *                   - Select Master Slave Mode 
  87:libs/STM32F4xx_StdPeriph_Driver/src/stm32f4xx_tim.c ****   *                   - ETR Configuration when used as external trigger   
  88:libs/STM32F4xx_StdPeriph_Driver/src/stm32f4xx_tim.c ****   *     
  89:libs/STM32F4xx_StdPeriph_Driver/src/stm32f4xx_tim.c ****   *          8. TIM specific interface management, this group includes all 
  90:libs/STM32F4xx_StdPeriph_Driver/src/stm32f4xx_tim.c ****   *             needed functions to use the specific TIM interface:
  91:libs/STM32F4xx_StdPeriph_Driver/src/stm32f4xx_tim.c ****   *                   - Encoder Interface Configuration
  92:libs/STM32F4xx_StdPeriph_Driver/src/stm32f4xx_tim.c ****   *                   - Select Hall Sensor   
  93:libs/STM32F4xx_StdPeriph_Driver/src/stm32f4xx_tim.c ****   *         
  94:libs/STM32F4xx_StdPeriph_Driver/src/stm32f4xx_tim.c ****   *          9. TIM specific remapping management includes the Remapping 
  95:libs/STM32F4xx_StdPeriph_Driver/src/stm32f4xx_tim.c ****   *             configuration of specific timers               
  96:libs/STM32F4xx_StdPeriph_Driver/src/stm32f4xx_tim.c ****   *   
  97:libs/STM32F4xx_StdPeriph_Driver/src/stm32f4xx_tim.c ****   *  @endverbatim
  98:libs/STM32F4xx_StdPeriph_Driver/src/stm32f4xx_tim.c ****   *    
  99:libs/STM32F4xx_StdPeriph_Driver/src/stm32f4xx_tim.c ****   ******************************************************************************
 100:libs/STM32F4xx_StdPeriph_Driver/src/stm32f4xx_tim.c ****   * @attention
 101:libs/STM32F4xx_StdPeriph_Driver/src/stm32f4xx_tim.c ****   *
 102:libs/STM32F4xx_StdPeriph_Driver/src/stm32f4xx_tim.c ****   * THE PRESENT FIRMWARE WHICH IS FOR GUIDANCE ONLY AIMS AT PROVIDING CUSTOMERS
 103:libs/STM32F4xx_StdPeriph_Driver/src/stm32f4xx_tim.c ****   * WITH CODING INFORMATION REGARDING THEIR PRODUCTS IN ORDER FOR THEM TO SAVE
 104:libs/STM32F4xx_StdPeriph_Driver/src/stm32f4xx_tim.c ****   * TIME. AS A RESULT, STMICROELECTRONICS SHALL NOT BE HELD LIABLE FOR ANY
 105:libs/STM32F4xx_StdPeriph_Driver/src/stm32f4xx_tim.c ****   * DIRECT, INDIRECT OR CONSEQUENTIAL DAMAGES WITH RESPECT TO ANY CLAIMS ARISING
 106:libs/STM32F4xx_StdPeriph_Driver/src/stm32f4xx_tim.c ****   * FROM THE CONTENT OF SUCH FIRMWARE AND/OR THE USE MADE BY CUSTOMERS OF THE
 107:libs/STM32F4xx_StdPeriph_Driver/src/stm32f4xx_tim.c ****   * CODING INFORMATION CONTAINED HEREIN IN CONNECTION WITH THEIR PRODUCTS.
 108:libs/STM32F4xx_StdPeriph_Driver/src/stm32f4xx_tim.c ****   *
 109:libs/STM32F4xx_StdPeriph_Driver/src/stm32f4xx_tim.c ****   * <h2><center>&copy; COPYRIGHT 2011 STMicroelectronics</center></h2>
 110:libs/STM32F4xx_StdPeriph_Driver/src/stm32f4xx_tim.c ****   ******************************************************************************
 111:libs/STM32F4xx_StdPeriph_Driver/src/stm32f4xx_tim.c ****   */
 112:libs/STM32F4xx_StdPeriph_Driver/src/stm32f4xx_tim.c **** 
 113:libs/STM32F4xx_StdPeriph_Driver/src/stm32f4xx_tim.c **** /* Includes ------------------------------------------------------------------*/
 114:libs/STM32F4xx_StdPeriph_Driver/src/stm32f4xx_tim.c **** #include "stm32f4xx_tim.h"
 115:libs/STM32F4xx_StdPeriph_Driver/src/stm32f4xx_tim.c **** #include "stm32f4xx_rcc.h"
 116:libs/STM32F4xx_StdPeriph_Driver/src/stm32f4xx_tim.c **** 
 117:libs/STM32F4xx_StdPeriph_Driver/src/stm32f4xx_tim.c **** /** @addtogroup STM32F4xx_StdPeriph_Driver
 118:libs/STM32F4xx_StdPeriph_Driver/src/stm32f4xx_tim.c ****   * @{
 119:libs/STM32F4xx_StdPeriph_Driver/src/stm32f4xx_tim.c ****   */
 120:libs/STM32F4xx_StdPeriph_Driver/src/stm32f4xx_tim.c **** 
 121:libs/STM32F4xx_StdPeriph_Driver/src/stm32f4xx_tim.c **** /** @defgroup TIM 
 122:libs/STM32F4xx_StdPeriph_Driver/src/stm32f4xx_tim.c ****   * @brief TIM driver modules
 123:libs/STM32F4xx_StdPeriph_Driver/src/stm32f4xx_tim.c ****   * @{
 124:libs/STM32F4xx_StdPeriph_Driver/src/stm32f4xx_tim.c ****   */
 125:libs/STM32F4xx_StdPeriph_Driver/src/stm32f4xx_tim.c **** 
 126:libs/STM32F4xx_StdPeriph_Driver/src/stm32f4xx_tim.c **** /* Private typedef -----------------------------------------------------------*/
 127:libs/STM32F4xx_StdPeriph_Driver/src/stm32f4xx_tim.c **** /* Private define ------------------------------------------------------------*/
 128:libs/STM32F4xx_StdPeriph_Driver/src/stm32f4xx_tim.c **** 
 129:libs/STM32F4xx_StdPeriph_Driver/src/stm32f4xx_tim.c **** /* ---------------------- TIM registers bit mask ------------------------ */
 130:libs/STM32F4xx_StdPeriph_Driver/src/stm32f4xx_tim.c **** #define SMCR_ETR_MASK      ((uint16_t)0x00FF) 
 131:libs/STM32F4xx_StdPeriph_Driver/src/stm32f4xx_tim.c **** #define CCMR_OFFSET        ((uint16_t)0x0018)
 132:libs/STM32F4xx_StdPeriph_Driver/src/stm32f4xx_tim.c **** #define CCER_CCE_SET       ((uint16_t)0x0001)  
 133:libs/STM32F4xx_StdPeriph_Driver/src/stm32f4xx_tim.c **** #define	CCER_CCNE_SET      ((uint16_t)0x0004) 
 134:libs/STM32F4xx_StdPeriph_Driver/src/stm32f4xx_tim.c **** #define CCMR_OC13M_MASK    ((uint16_t)0xFF8F)
 135:libs/STM32F4xx_StdPeriph_Driver/src/stm32f4xx_tim.c **** #define CCMR_OC24M_MASK    ((uint16_t)0x8FFF) 
 136:libs/STM32F4xx_StdPeriph_Driver/src/stm32f4xx_tim.c **** 
 137:libs/STM32F4xx_StdPeriph_Driver/src/stm32f4xx_tim.c **** /* Private macro -------------------------------------------------------------*/
 138:libs/STM32F4xx_StdPeriph_Driver/src/stm32f4xx_tim.c **** /* Private variables ---------------------------------------------------------*/
 139:libs/STM32F4xx_StdPeriph_Driver/src/stm32f4xx_tim.c **** /* Private function prototypes -----------------------------------------------*/
 140:libs/STM32F4xx_StdPeriph_Driver/src/stm32f4xx_tim.c **** static void TI1_Config(TIM_TypeDef* TIMx, uint16_t TIM_ICPolarity, uint16_t TIM_ICSelection,
 141:libs/STM32F4xx_StdPeriph_Driver/src/stm32f4xx_tim.c ****                        uint16_t TIM_ICFilter);
 142:libs/STM32F4xx_StdPeriph_Driver/src/stm32f4xx_tim.c **** static void TI2_Config(TIM_TypeDef* TIMx, uint16_t TIM_ICPolarity, uint16_t TIM_ICSelection,
 143:libs/STM32F4xx_StdPeriph_Driver/src/stm32f4xx_tim.c ****                        uint16_t TIM_ICFilter);
 144:libs/STM32F4xx_StdPeriph_Driver/src/stm32f4xx_tim.c **** static void TI3_Config(TIM_TypeDef* TIMx, uint16_t TIM_ICPolarity, uint16_t TIM_ICSelection,
 145:libs/STM32F4xx_StdPeriph_Driver/src/stm32f4xx_tim.c ****                        uint16_t TIM_ICFilter);
 146:libs/STM32F4xx_StdPeriph_Driver/src/stm32f4xx_tim.c **** static void TI4_Config(TIM_TypeDef* TIMx, uint16_t TIM_ICPolarity, uint16_t TIM_ICSelection,
 147:libs/STM32F4xx_StdPeriph_Driver/src/stm32f4xx_tim.c ****                        uint16_t TIM_ICFilter);
 148:libs/STM32F4xx_StdPeriph_Driver/src/stm32f4xx_tim.c **** 
 149:libs/STM32F4xx_StdPeriph_Driver/src/stm32f4xx_tim.c **** /* Private functions ---------------------------------------------------------*/
 150:libs/STM32F4xx_StdPeriph_Driver/src/stm32f4xx_tim.c **** 
 151:libs/STM32F4xx_StdPeriph_Driver/src/stm32f4xx_tim.c **** /** @defgroup TIM_Private_Functions
 152:libs/STM32F4xx_StdPeriph_Driver/src/stm32f4xx_tim.c ****   * @{
 153:libs/STM32F4xx_StdPeriph_Driver/src/stm32f4xx_tim.c ****   */
 154:libs/STM32F4xx_StdPeriph_Driver/src/stm32f4xx_tim.c **** 
 155:libs/STM32F4xx_StdPeriph_Driver/src/stm32f4xx_tim.c **** /** @defgroup TIM_Group1 TimeBase management functions
 156:libs/STM32F4xx_StdPeriph_Driver/src/stm32f4xx_tim.c ****  *  @brief   TimeBase management functions 
 157:libs/STM32F4xx_StdPeriph_Driver/src/stm32f4xx_tim.c ****  *
 158:libs/STM32F4xx_StdPeriph_Driver/src/stm32f4xx_tim.c **** @verbatim   
 159:libs/STM32F4xx_StdPeriph_Driver/src/stm32f4xx_tim.c ****  ===============================================================================
 160:libs/STM32F4xx_StdPeriph_Driver/src/stm32f4xx_tim.c ****                        TimeBase management functions
 161:libs/STM32F4xx_StdPeriph_Driver/src/stm32f4xx_tim.c ****  ===============================================================================  
 162:libs/STM32F4xx_StdPeriph_Driver/src/stm32f4xx_tim.c ****   
 163:libs/STM32F4xx_StdPeriph_Driver/src/stm32f4xx_tim.c ****        ===================================================================      
 164:libs/STM32F4xx_StdPeriph_Driver/src/stm32f4xx_tim.c ****               TIM Driver: how to use it in Timing(Time base) Mode
 165:libs/STM32F4xx_StdPeriph_Driver/src/stm32f4xx_tim.c ****        =================================================================== 
 166:libs/STM32F4xx_StdPeriph_Driver/src/stm32f4xx_tim.c ****        To use the Timer in Timing(Time base) mode, the following steps are mandatory:
 167:libs/STM32F4xx_StdPeriph_Driver/src/stm32f4xx_tim.c ****        
 168:libs/STM32F4xx_StdPeriph_Driver/src/stm32f4xx_tim.c ****        1. Enable TIM clock using RCC_APBxPeriphClockCmd(RCC_APBxPeriph_TIMx, ENABLE) function
 169:libs/STM32F4xx_StdPeriph_Driver/src/stm32f4xx_tim.c ****                     
 170:libs/STM32F4xx_StdPeriph_Driver/src/stm32f4xx_tim.c ****        2. Fill the TIM_TimeBaseInitStruct with the desired parameters.
 171:libs/STM32F4xx_StdPeriph_Driver/src/stm32f4xx_tim.c ****        
 172:libs/STM32F4xx_StdPeriph_Driver/src/stm32f4xx_tim.c ****        3. Call TIM_TimeBaseInit(TIMx, &TIM_TimeBaseInitStruct) to configure the Time Base unit
 173:libs/STM32F4xx_StdPeriph_Driver/src/stm32f4xx_tim.c ****           with the corresponding configuration
 174:libs/STM32F4xx_StdPeriph_Driver/src/stm32f4xx_tim.c ****           
 175:libs/STM32F4xx_StdPeriph_Driver/src/stm32f4xx_tim.c ****        4. Enable the NVIC if you need to generate the update interrupt. 
 176:libs/STM32F4xx_StdPeriph_Driver/src/stm32f4xx_tim.c ****           
 177:libs/STM32F4xx_StdPeriph_Driver/src/stm32f4xx_tim.c ****        5. Enable the corresponding interrupt using the function TIM_ITConfig(TIMx, TIM_IT_Update) 
 178:libs/STM32F4xx_StdPeriph_Driver/src/stm32f4xx_tim.c ****        
 179:libs/STM32F4xx_StdPeriph_Driver/src/stm32f4xx_tim.c ****        6. Call the TIM_Cmd(ENABLE) function to enable the TIM counter.
 180:libs/STM32F4xx_StdPeriph_Driver/src/stm32f4xx_tim.c ****              
 181:libs/STM32F4xx_StdPeriph_Driver/src/stm32f4xx_tim.c ****        Note1: All other functions can be used separately to modify, if needed,
 182:libs/STM32F4xx_StdPeriph_Driver/src/stm32f4xx_tim.c ****           a specific feature of the Timer. 
 183:libs/STM32F4xx_StdPeriph_Driver/src/stm32f4xx_tim.c **** 
 184:libs/STM32F4xx_StdPeriph_Driver/src/stm32f4xx_tim.c **** @endverbatim
 185:libs/STM32F4xx_StdPeriph_Driver/src/stm32f4xx_tim.c ****   * @{
 186:libs/STM32F4xx_StdPeriph_Driver/src/stm32f4xx_tim.c ****   */
 187:libs/STM32F4xx_StdPeriph_Driver/src/stm32f4xx_tim.c ****   
 188:libs/STM32F4xx_StdPeriph_Driver/src/stm32f4xx_tim.c **** /**
 189:libs/STM32F4xx_StdPeriph_Driver/src/stm32f4xx_tim.c ****   * @brief  Deinitializes the TIMx peripheral registers to their default reset values.
 190:libs/STM32F4xx_StdPeriph_Driver/src/stm32f4xx_tim.c ****   * @param  TIMx: where x can be 1 to 14 to select the TIM peripheral.
 191:libs/STM32F4xx_StdPeriph_Driver/src/stm32f4xx_tim.c ****   * @retval None
 192:libs/STM32F4xx_StdPeriph_Driver/src/stm32f4xx_tim.c **** 
 193:libs/STM32F4xx_StdPeriph_Driver/src/stm32f4xx_tim.c ****   */
 194:libs/STM32F4xx_StdPeriph_Driver/src/stm32f4xx_tim.c **** void TIM_DeInit(TIM_TypeDef* TIMx)
 195:libs/STM32F4xx_StdPeriph_Driver/src/stm32f4xx_tim.c **** {
  28              		.loc 1 195 0
  29              		.cfi_startproc
  30              		@ args = 0, pretend = 0, frame = 8
  31              		@ frame_needed = 1, uses_anonymous_args = 0
  32 0000 80B5     		push	{r7, lr}
  33              	.LCFI0:
  34              		.cfi_def_cfa_offset 8
  35              		.cfi_offset 7, -8
  36              		.cfi_offset 14, -4
  37 0002 82B0     		sub	sp, sp, #8
  38              	.LCFI1:
  39              		.cfi_def_cfa_offset 16
  40 0004 00AF     		add	r7, sp, #0
  41              	.LCFI2:
  42              		.cfi_def_cfa_register 7
  43 0006 7860     		str	r0, [r7, #4]
 196:libs/STM32F4xx_StdPeriph_Driver/src/stm32f4xx_tim.c ****   /* Check the parameters */
 197:libs/STM32F4xx_StdPeriph_Driver/src/stm32f4xx_tim.c ****   assert_param(IS_TIM_ALL_PERIPH(TIMx)); 
 198:libs/STM32F4xx_StdPeriph_Driver/src/stm32f4xx_tim.c ****  
 199:libs/STM32F4xx_StdPeriph_Driver/src/stm32f4xx_tim.c ****   if (TIMx == TIM1)
  44              		.loc 1 199 0
  45 0008 7A68     		ldr	r2, [r7, #4]
  46 000a 0023     		movs	r3, #0
  47 000c C4F20103 		movt	r3, 16385
  48 0010 9A42     		cmp	r2, r3
  49 0012 08D1     		bne	.L2
 200:libs/STM32F4xx_StdPeriph_Driver/src/stm32f4xx_tim.c ****   {
 201:libs/STM32F4xx_StdPeriph_Driver/src/stm32f4xx_tim.c ****     RCC_APB2PeriphResetCmd(RCC_APB2Periph_TIM1, ENABLE);
  50              		.loc 1 201 0
  51 0014 0120     		movs	r0, #1
  52 0016 0121     		movs	r1, #1
  53 0018 FFF7FEFF 		bl	RCC_APB2PeriphResetCmd
 202:libs/STM32F4xx_StdPeriph_Driver/src/stm32f4xx_tim.c ****     RCC_APB2PeriphResetCmd(RCC_APB2Periph_TIM1, DISABLE);  
  54              		.loc 1 202 0
  55 001c 0120     		movs	r0, #1
  56 001e 0021     		movs	r1, #0
  57 0020 FFF7FEFF 		bl	RCC_APB2PeriphResetCmd
  58 0024 D3E0     		b	.L1
  59              	.L2:
 203:libs/STM32F4xx_StdPeriph_Driver/src/stm32f4xx_tim.c ****   } 
 204:libs/STM32F4xx_StdPeriph_Driver/src/stm32f4xx_tim.c ****   else if (TIMx == TIM2) 
  60              		.loc 1 204 0
  61 0026 7B68     		ldr	r3, [r7, #4]
  62 0028 B3F1804F 		cmp	r3, #1073741824
  63 002c 08D1     		bne	.L4
 205:libs/STM32F4xx_StdPeriph_Driver/src/stm32f4xx_tim.c ****   {     
 206:libs/STM32F4xx_StdPeriph_Driver/src/stm32f4xx_tim.c ****     RCC_APB1PeriphResetCmd(RCC_APB1Periph_TIM2, ENABLE);
  64              		.loc 1 206 0
  65 002e 0120     		movs	r0, #1
  66 0030 0121     		movs	r1, #1
  67 0032 FFF7FEFF 		bl	RCC_APB1PeriphResetCmd
 207:libs/STM32F4xx_StdPeriph_Driver/src/stm32f4xx_tim.c ****     RCC_APB1PeriphResetCmd(RCC_APB1Periph_TIM2, DISABLE);
  68              		.loc 1 207 0
  69 0036 0120     		movs	r0, #1
  70 0038 0021     		movs	r1, #0
  71 003a FFF7FEFF 		bl	RCC_APB1PeriphResetCmd
  72 003e C6E0     		b	.L1
  73              	.L4:
 208:libs/STM32F4xx_StdPeriph_Driver/src/stm32f4xx_tim.c ****   }  
 209:libs/STM32F4xx_StdPeriph_Driver/src/stm32f4xx_tim.c ****   else if (TIMx == TIM3)
  74              		.loc 1 209 0
  75 0040 7A68     		ldr	r2, [r7, #4]
  76 0042 4FF48063 		mov	r3, #1024
  77 0046 C4F20003 		movt	r3, 16384
  78 004a 9A42     		cmp	r2, r3
  79 004c 08D1     		bne	.L5
 210:libs/STM32F4xx_StdPeriph_Driver/src/stm32f4xx_tim.c ****   { 
 211:libs/STM32F4xx_StdPeriph_Driver/src/stm32f4xx_tim.c ****     RCC_APB1PeriphResetCmd(RCC_APB1Periph_TIM3, ENABLE);
  80              		.loc 1 211 0
  81 004e 0220     		movs	r0, #2
  82 0050 0121     		movs	r1, #1
  83 0052 FFF7FEFF 		bl	RCC_APB1PeriphResetCmd
 212:libs/STM32F4xx_StdPeriph_Driver/src/stm32f4xx_tim.c ****     RCC_APB1PeriphResetCmd(RCC_APB1Periph_TIM3, DISABLE);
  84              		.loc 1 212 0
  85 0056 0220     		movs	r0, #2
  86 0058 0021     		movs	r1, #0
  87 005a FFF7FEFF 		bl	RCC_APB1PeriphResetCmd
  88 005e B6E0     		b	.L1
  89              	.L5:
 213:libs/STM32F4xx_StdPeriph_Driver/src/stm32f4xx_tim.c ****   }  
 214:libs/STM32F4xx_StdPeriph_Driver/src/stm32f4xx_tim.c ****   else if (TIMx == TIM4)
  90              		.loc 1 214 0
  91 0060 7A68     		ldr	r2, [r7, #4]
  92 0062 4FF40063 		mov	r3, #2048
  93 0066 C4F20003 		movt	r3, 16384
  94 006a 9A42     		cmp	r2, r3
  95 006c 08D1     		bne	.L6
 215:libs/STM32F4xx_StdPeriph_Driver/src/stm32f4xx_tim.c ****   { 
 216:libs/STM32F4xx_StdPeriph_Driver/src/stm32f4xx_tim.c ****     RCC_APB1PeriphResetCmd(RCC_APB1Periph_TIM4, ENABLE);
  96              		.loc 1 216 0
  97 006e 0420     		movs	r0, #4
  98 0070 0121     		movs	r1, #1
  99 0072 FFF7FEFF 		bl	RCC_APB1PeriphResetCmd
 217:libs/STM32F4xx_StdPeriph_Driver/src/stm32f4xx_tim.c ****     RCC_APB1PeriphResetCmd(RCC_APB1Periph_TIM4, DISABLE);
 100              		.loc 1 217 0
 101 0076 0420     		movs	r0, #4
 102 0078 0021     		movs	r1, #0
 103 007a FFF7FEFF 		bl	RCC_APB1PeriphResetCmd
 104 007e A6E0     		b	.L1
 105              	.L6:
 218:libs/STM32F4xx_StdPeriph_Driver/src/stm32f4xx_tim.c ****   }  
 219:libs/STM32F4xx_StdPeriph_Driver/src/stm32f4xx_tim.c ****   else if (TIMx == TIM5)
 106              		.loc 1 219 0
 107 0080 7A68     		ldr	r2, [r7, #4]
 108 0082 4FF44063 		mov	r3, #3072
 109 0086 C4F20003 		movt	r3, 16384
 110 008a 9A42     		cmp	r2, r3
 111 008c 08D1     		bne	.L7
 220:libs/STM32F4xx_StdPeriph_Driver/src/stm32f4xx_tim.c ****   {      
 221:libs/STM32F4xx_StdPeriph_Driver/src/stm32f4xx_tim.c ****     RCC_APB1PeriphResetCmd(RCC_APB1Periph_TIM5, ENABLE);
 112              		.loc 1 221 0
 113 008e 0820     		movs	r0, #8
 114 0090 0121     		movs	r1, #1
 115 0092 FFF7FEFF 		bl	RCC_APB1PeriphResetCmd
 222:libs/STM32F4xx_StdPeriph_Driver/src/stm32f4xx_tim.c ****     RCC_APB1PeriphResetCmd(RCC_APB1Periph_TIM5, DISABLE);
 116              		.loc 1 222 0
 117 0096 0820     		movs	r0, #8
 118 0098 0021     		movs	r1, #0
 119 009a FFF7FEFF 		bl	RCC_APB1PeriphResetCmd
 120 009e 96E0     		b	.L1
 121              	.L7:
 223:libs/STM32F4xx_StdPeriph_Driver/src/stm32f4xx_tim.c ****   }  
 224:libs/STM32F4xx_StdPeriph_Driver/src/stm32f4xx_tim.c ****   else if (TIMx == TIM6)  
 122              		.loc 1 224 0
 123 00a0 7A68     		ldr	r2, [r7, #4]
 124 00a2 4FF48053 		mov	r3, #4096
 125 00a6 C4F20003 		movt	r3, 16384
 126 00aa 9A42     		cmp	r2, r3
 127 00ac 08D1     		bne	.L8
 225:libs/STM32F4xx_StdPeriph_Driver/src/stm32f4xx_tim.c ****   {    
 226:libs/STM32F4xx_StdPeriph_Driver/src/stm32f4xx_tim.c ****     RCC_APB1PeriphResetCmd(RCC_APB1Periph_TIM6, ENABLE);
 128              		.loc 1 226 0
 129 00ae 1020     		movs	r0, #16
 130 00b0 0121     		movs	r1, #1
 131 00b2 FFF7FEFF 		bl	RCC_APB1PeriphResetCmd
 227:libs/STM32F4xx_StdPeriph_Driver/src/stm32f4xx_tim.c ****     RCC_APB1PeriphResetCmd(RCC_APB1Periph_TIM6, DISABLE);
 132              		.loc 1 227 0
 133 00b6 1020     		movs	r0, #16
 134 00b8 0021     		movs	r1, #0
 135 00ba FFF7FEFF 		bl	RCC_APB1PeriphResetCmd
 136 00be 86E0     		b	.L1
 137              	.L8:
 228:libs/STM32F4xx_StdPeriph_Driver/src/stm32f4xx_tim.c ****   }  
 229:libs/STM32F4xx_StdPeriph_Driver/src/stm32f4xx_tim.c ****   else if (TIMx == TIM7)
 138              		.loc 1 229 0
 139 00c0 7A68     		ldr	r2, [r7, #4]
 140 00c2 4FF4A053 		mov	r3, #5120
 141 00c6 C4F20003 		movt	r3, 16384
 142 00ca 9A42     		cmp	r2, r3
 143 00cc 08D1     		bne	.L9
 230:libs/STM32F4xx_StdPeriph_Driver/src/stm32f4xx_tim.c ****   {      
 231:libs/STM32F4xx_StdPeriph_Driver/src/stm32f4xx_tim.c ****     RCC_APB1PeriphResetCmd(RCC_APB1Periph_TIM7, ENABLE);
 144              		.loc 1 231 0
 145 00ce 2020     		movs	r0, #32
 146 00d0 0121     		movs	r1, #1
 147 00d2 FFF7FEFF 		bl	RCC_APB1PeriphResetCmd
 232:libs/STM32F4xx_StdPeriph_Driver/src/stm32f4xx_tim.c ****     RCC_APB1PeriphResetCmd(RCC_APB1Periph_TIM7, DISABLE);
 148              		.loc 1 232 0
 149 00d6 2020     		movs	r0, #32
 150 00d8 0021     		movs	r1, #0
 151 00da FFF7FEFF 		bl	RCC_APB1PeriphResetCmd
 152 00de 76E0     		b	.L1
 153              	.L9:
 233:libs/STM32F4xx_StdPeriph_Driver/src/stm32f4xx_tim.c ****   }  
 234:libs/STM32F4xx_StdPeriph_Driver/src/stm32f4xx_tim.c ****   else if (TIMx == TIM8)
 154              		.loc 1 234 0
 155 00e0 7A68     		ldr	r2, [r7, #4]
 156 00e2 4FF48063 		mov	r3, #1024
 157 00e6 C4F20103 		movt	r3, 16385
 158 00ea 9A42     		cmp	r2, r3
 159 00ec 08D1     		bne	.L10
 235:libs/STM32F4xx_StdPeriph_Driver/src/stm32f4xx_tim.c ****   {      
 236:libs/STM32F4xx_StdPeriph_Driver/src/stm32f4xx_tim.c ****     RCC_APB2PeriphResetCmd(RCC_APB2Periph_TIM8, ENABLE);
 160              		.loc 1 236 0
 161 00ee 0220     		movs	r0, #2
 162 00f0 0121     		movs	r1, #1
 163 00f2 FFF7FEFF 		bl	RCC_APB2PeriphResetCmd
 237:libs/STM32F4xx_StdPeriph_Driver/src/stm32f4xx_tim.c ****     RCC_APB2PeriphResetCmd(RCC_APB2Periph_TIM8, DISABLE);  
 164              		.loc 1 237 0
 165 00f6 0220     		movs	r0, #2
 166 00f8 0021     		movs	r1, #0
 167 00fa FFF7FEFF 		bl	RCC_APB2PeriphResetCmd
 168 00fe 66E0     		b	.L1
 169              	.L10:
 238:libs/STM32F4xx_StdPeriph_Driver/src/stm32f4xx_tim.c ****   }  
 239:libs/STM32F4xx_StdPeriph_Driver/src/stm32f4xx_tim.c ****   else if (TIMx == TIM9)
 170              		.loc 1 239 0
 171 0100 7A68     		ldr	r2, [r7, #4]
 172 0102 4FF48043 		mov	r3, #16384
 173 0106 C4F20103 		movt	r3, 16385
 174 010a 9A42     		cmp	r2, r3
 175 010c 0AD1     		bne	.L11
 240:libs/STM32F4xx_StdPeriph_Driver/src/stm32f4xx_tim.c ****   {      
 241:libs/STM32F4xx_StdPeriph_Driver/src/stm32f4xx_tim.c ****     RCC_APB2PeriphResetCmd(RCC_APB2Periph_TIM9, ENABLE);
 176              		.loc 1 241 0
 177 010e 4FF48030 		mov	r0, #65536
 178 0112 0121     		movs	r1, #1
 179 0114 FFF7FEFF 		bl	RCC_APB2PeriphResetCmd
 242:libs/STM32F4xx_StdPeriph_Driver/src/stm32f4xx_tim.c ****     RCC_APB2PeriphResetCmd(RCC_APB2Periph_TIM9, DISABLE);  
 180              		.loc 1 242 0
 181 0118 4FF48030 		mov	r0, #65536
 182 011c 0021     		movs	r1, #0
 183 011e FFF7FEFF 		bl	RCC_APB2PeriphResetCmd
 184 0122 54E0     		b	.L1
 185              	.L11:
 243:libs/STM32F4xx_StdPeriph_Driver/src/stm32f4xx_tim.c ****    }  
 244:libs/STM32F4xx_StdPeriph_Driver/src/stm32f4xx_tim.c ****   else if (TIMx == TIM10)
 186              		.loc 1 244 0
 187 0124 7A68     		ldr	r2, [r7, #4]
 188 0126 4FF48843 		mov	r3, #17408
 189 012a C4F20103 		movt	r3, 16385
 190 012e 9A42     		cmp	r2, r3
 191 0130 0AD1     		bne	.L12
 245:libs/STM32F4xx_StdPeriph_Driver/src/stm32f4xx_tim.c ****   {      
 246:libs/STM32F4xx_StdPeriph_Driver/src/stm32f4xx_tim.c ****     RCC_APB2PeriphResetCmd(RCC_APB2Periph_TIM10, ENABLE);
 192              		.loc 1 246 0
 193 0132 4FF40030 		mov	r0, #131072
 194 0136 0121     		movs	r1, #1
 195 0138 FFF7FEFF 		bl	RCC_APB2PeriphResetCmd
 247:libs/STM32F4xx_StdPeriph_Driver/src/stm32f4xx_tim.c ****     RCC_APB2PeriphResetCmd(RCC_APB2Periph_TIM10, DISABLE);  
 196              		.loc 1 247 0
 197 013c 4FF40030 		mov	r0, #131072
 198 0140 0021     		movs	r1, #0
 199 0142 FFF7FEFF 		bl	RCC_APB2PeriphResetCmd
 200 0146 42E0     		b	.L1
 201              	.L12:
 248:libs/STM32F4xx_StdPeriph_Driver/src/stm32f4xx_tim.c ****   }  
 249:libs/STM32F4xx_StdPeriph_Driver/src/stm32f4xx_tim.c ****   else if (TIMx == TIM11) 
 202              		.loc 1 249 0
 203 0148 7A68     		ldr	r2, [r7, #4]
 204 014a 4FF49043 		mov	r3, #18432
 205 014e C4F20103 		movt	r3, 16385
 206 0152 9A42     		cmp	r2, r3
 207 0154 0AD1     		bne	.L13
 250:libs/STM32F4xx_StdPeriph_Driver/src/stm32f4xx_tim.c ****   {     
 251:libs/STM32F4xx_StdPeriph_Driver/src/stm32f4xx_tim.c ****     RCC_APB2PeriphResetCmd(RCC_APB2Periph_TIM11, ENABLE);
 208              		.loc 1 251 0
 209 0156 4FF48020 		mov	r0, #262144
 210 015a 0121     		movs	r1, #1
 211 015c FFF7FEFF 		bl	RCC_APB2PeriphResetCmd
 252:libs/STM32F4xx_StdPeriph_Driver/src/stm32f4xx_tim.c ****     RCC_APB2PeriphResetCmd(RCC_APB2Periph_TIM11, DISABLE);  
 212              		.loc 1 252 0
 213 0160 4FF48020 		mov	r0, #262144
 214 0164 0021     		movs	r1, #0
 215 0166 FFF7FEFF 		bl	RCC_APB2PeriphResetCmd
 216 016a 30E0     		b	.L1
 217              	.L13:
 253:libs/STM32F4xx_StdPeriph_Driver/src/stm32f4xx_tim.c ****   }  
 254:libs/STM32F4xx_StdPeriph_Driver/src/stm32f4xx_tim.c ****   else if (TIMx == TIM12)
 218              		.loc 1 254 0
 219 016c 7A68     		ldr	r2, [r7, #4]
 220 016e 4FF4C053 		mov	r3, #6144
 221 0172 C4F20003 		movt	r3, 16384
 222 0176 9A42     		cmp	r2, r3
 223 0178 08D1     		bne	.L14
 255:libs/STM32F4xx_StdPeriph_Driver/src/stm32f4xx_tim.c ****   {      
 256:libs/STM32F4xx_StdPeriph_Driver/src/stm32f4xx_tim.c ****     RCC_APB1PeriphResetCmd(RCC_APB1Periph_TIM12, ENABLE);
 224              		.loc 1 256 0
 225 017a 4020     		movs	r0, #64
 226 017c 0121     		movs	r1, #1
 227 017e FFF7FEFF 		bl	RCC_APB1PeriphResetCmd
 257:libs/STM32F4xx_StdPeriph_Driver/src/stm32f4xx_tim.c ****     RCC_APB1PeriphResetCmd(RCC_APB1Periph_TIM12, DISABLE);  
 228              		.loc 1 257 0
 229 0182 4020     		movs	r0, #64
 230 0184 0021     		movs	r1, #0
 231 0186 FFF7FEFF 		bl	RCC_APB1PeriphResetCmd
 232 018a 20E0     		b	.L1
 233              	.L14:
 258:libs/STM32F4xx_StdPeriph_Driver/src/stm32f4xx_tim.c ****   }  
 259:libs/STM32F4xx_StdPeriph_Driver/src/stm32f4xx_tim.c ****   else if (TIMx == TIM13) 
 234              		.loc 1 259 0
 235 018c 7A68     		ldr	r2, [r7, #4]
 236 018e 4FF4E053 		mov	r3, #7168
 237 0192 C4F20003 		movt	r3, 16384
 238 0196 9A42     		cmp	r2, r3
 239 0198 08D1     		bne	.L15
 260:libs/STM32F4xx_StdPeriph_Driver/src/stm32f4xx_tim.c ****   {       
 261:libs/STM32F4xx_StdPeriph_Driver/src/stm32f4xx_tim.c ****     RCC_APB1PeriphResetCmd(RCC_APB1Periph_TIM13, ENABLE);
 240              		.loc 1 261 0
 241 019a 8020     		movs	r0, #128
 242 019c 0121     		movs	r1, #1
 243 019e FFF7FEFF 		bl	RCC_APB1PeriphResetCmd
 262:libs/STM32F4xx_StdPeriph_Driver/src/stm32f4xx_tim.c ****     RCC_APB1PeriphResetCmd(RCC_APB1Periph_TIM13, DISABLE);  
 244              		.loc 1 262 0
 245 01a2 8020     		movs	r0, #128
 246 01a4 0021     		movs	r1, #0
 247 01a6 FFF7FEFF 		bl	RCC_APB1PeriphResetCmd
 248 01aa 10E0     		b	.L1
 249              	.L15:
 263:libs/STM32F4xx_StdPeriph_Driver/src/stm32f4xx_tim.c ****   }  
 264:libs/STM32F4xx_StdPeriph_Driver/src/stm32f4xx_tim.c ****   else
 265:libs/STM32F4xx_StdPeriph_Driver/src/stm32f4xx_tim.c ****   { 
 266:libs/STM32F4xx_StdPeriph_Driver/src/stm32f4xx_tim.c ****     if (TIMx == TIM14) 
 250              		.loc 1 266 0
 251 01ac 7A68     		ldr	r2, [r7, #4]
 252 01ae 4FF40053 		mov	r3, #8192
 253 01b2 C4F20003 		movt	r3, 16384
 254 01b6 9A42     		cmp	r2, r3
 255 01b8 09D1     		bne	.L1
 267:libs/STM32F4xx_StdPeriph_Driver/src/stm32f4xx_tim.c ****     {     
 268:libs/STM32F4xx_StdPeriph_Driver/src/stm32f4xx_tim.c ****       RCC_APB1PeriphResetCmd(RCC_APB1Periph_TIM14, ENABLE);
 256              		.loc 1 268 0
 257 01ba 4FF48070 		mov	r0, #256
 258 01be 0121     		movs	r1, #1
 259 01c0 FFF7FEFF 		bl	RCC_APB1PeriphResetCmd
 269:libs/STM32F4xx_StdPeriph_Driver/src/stm32f4xx_tim.c ****       RCC_APB1PeriphResetCmd(RCC_APB1Periph_TIM14, DISABLE); 
 260              		.loc 1 269 0
 261 01c4 4FF48070 		mov	r0, #256
 262 01c8 0021     		movs	r1, #0
 263 01ca FFF7FEFF 		bl	RCC_APB1PeriphResetCmd
 264              	.L1:
 270:libs/STM32F4xx_StdPeriph_Driver/src/stm32f4xx_tim.c ****     }   
 271:libs/STM32F4xx_StdPeriph_Driver/src/stm32f4xx_tim.c ****   }
 272:libs/STM32F4xx_StdPeriph_Driver/src/stm32f4xx_tim.c **** }
 265              		.loc 1 272 0
 266 01ce 0837     		adds	r7, r7, #8
 267 01d0 BD46     		mov	sp, r7
 268              		@ sp needed
 269 01d2 80BD     		pop	{r7, pc}
 270              		.cfi_endproc
 271              	.LFE110:
 273              		.section	.text.TIM_TimeBaseInit,"ax",%progbits
 274              		.align	2
 275              		.global	TIM_TimeBaseInit
 276              		.thumb
 277              		.thumb_func
 279              	TIM_TimeBaseInit:
 280              	.LFB111:
 273:libs/STM32F4xx_StdPeriph_Driver/src/stm32f4xx_tim.c **** 
 274:libs/STM32F4xx_StdPeriph_Driver/src/stm32f4xx_tim.c **** /**
 275:libs/STM32F4xx_StdPeriph_Driver/src/stm32f4xx_tim.c ****   * @brief  Initializes the TIMx Time Base Unit peripheral according to 
 276:libs/STM32F4xx_StdPeriph_Driver/src/stm32f4xx_tim.c ****   *         the specified parameters in the TIM_TimeBaseInitStruct.
 277:libs/STM32F4xx_StdPeriph_Driver/src/stm32f4xx_tim.c ****   * @param  TIMx: where x can be  1 to 14 to select the TIM peripheral.
 278:libs/STM32F4xx_StdPeriph_Driver/src/stm32f4xx_tim.c ****   * @param  TIM_TimeBaseInitStruct: pointer to a TIM_TimeBaseInitTypeDef structure
 279:libs/STM32F4xx_StdPeriph_Driver/src/stm32f4xx_tim.c ****   *         that contains the configuration information for the specified TIM peripheral.
 280:libs/STM32F4xx_StdPeriph_Driver/src/stm32f4xx_tim.c ****   * @retval None
 281:libs/STM32F4xx_StdPeriph_Driver/src/stm32f4xx_tim.c ****   */
 282:libs/STM32F4xx_StdPeriph_Driver/src/stm32f4xx_tim.c **** void TIM_TimeBaseInit(TIM_TypeDef* TIMx, TIM_TimeBaseInitTypeDef* TIM_TimeBaseInitStruct)
 283:libs/STM32F4xx_StdPeriph_Driver/src/stm32f4xx_tim.c **** {
 281              		.loc 1 283 0
 282              		.cfi_startproc
 283              		@ args = 0, pretend = 0, frame = 16
 284              		@ frame_needed = 1, uses_anonymous_args = 0
 285              		@ link register save eliminated.
 286 0000 80B4     		push	{r7}
 287              	.LCFI3:
 288              		.cfi_def_cfa_offset 4
 289              		.cfi_offset 7, -4
 290 0002 85B0     		sub	sp, sp, #20
 291              	.LCFI4:
 292              		.cfi_def_cfa_offset 24
 293 0004 00AF     		add	r7, sp, #0
 294              	.LCFI5:
 295              		.cfi_def_cfa_register 7
 296 0006 7860     		str	r0, [r7, #4]
 297 0008 3960     		str	r1, [r7]
 284:libs/STM32F4xx_StdPeriph_Driver/src/stm32f4xx_tim.c ****   uint16_t tmpcr1 = 0;
 298              		.loc 1 284 0
 299 000a 0023     		movs	r3, #0
 300 000c FB81     		strh	r3, [r7, #14]	@ movhi
 285:libs/STM32F4xx_StdPeriph_Driver/src/stm32f4xx_tim.c **** 
 286:libs/STM32F4xx_StdPeriph_Driver/src/stm32f4xx_tim.c ****   /* Check the parameters */
 287:libs/STM32F4xx_StdPeriph_Driver/src/stm32f4xx_tim.c ****   assert_param(IS_TIM_ALL_PERIPH(TIMx)); 
 288:libs/STM32F4xx_StdPeriph_Driver/src/stm32f4xx_tim.c ****   assert_param(IS_TIM_COUNTER_MODE(TIM_TimeBaseInitStruct->TIM_CounterMode));
 289:libs/STM32F4xx_StdPeriph_Driver/src/stm32f4xx_tim.c ****   assert_param(IS_TIM_CKD_DIV(TIM_TimeBaseInitStruct->TIM_ClockDivision));
 290:libs/STM32F4xx_StdPeriph_Driver/src/stm32f4xx_tim.c **** 
 291:libs/STM32F4xx_StdPeriph_Driver/src/stm32f4xx_tim.c ****   tmpcr1 = TIMx->CR1;  
 301              		.loc 1 291 0
 302 000e 7B68     		ldr	r3, [r7, #4]
 303 0010 1B88     		ldrh	r3, [r3]	@ movhi
 304 0012 FB81     		strh	r3, [r7, #14]	@ movhi
 292:libs/STM32F4xx_StdPeriph_Driver/src/stm32f4xx_tim.c **** 
 293:libs/STM32F4xx_StdPeriph_Driver/src/stm32f4xx_tim.c ****   if((TIMx == TIM1) || (TIMx == TIM8)||
 305              		.loc 1 293 0
 306 0014 7A68     		ldr	r2, [r7, #4]
 307 0016 0023     		movs	r3, #0
 308 0018 C4F20103 		movt	r3, 16385
 309 001c 9A42     		cmp	r2, r3
 310 001e 1FD0     		beq	.L17
 311              		.loc 1 293 0 is_stmt 0 discriminator 1
 312 0020 7A68     		ldr	r2, [r7, #4]
 313 0022 4FF48063 		mov	r3, #1024
 314 0026 C4F20103 		movt	r3, 16385
 315 002a 9A42     		cmp	r2, r3
 316 002c 18D0     		beq	.L17
 317 002e 7B68     		ldr	r3, [r7, #4]
 318 0030 B3F1804F 		cmp	r3, #1073741824
 319 0034 14D0     		beq	.L17
 294:libs/STM32F4xx_StdPeriph_Driver/src/stm32f4xx_tim.c ****      (TIMx == TIM2) || (TIMx == TIM3)||
 320              		.loc 1 294 0 is_stmt 1
 321 0036 7A68     		ldr	r2, [r7, #4]
 322 0038 4FF48063 		mov	r3, #1024
 323 003c C4F20003 		movt	r3, 16384
 324 0040 9A42     		cmp	r2, r3
 325 0042 0DD0     		beq	.L17
 326              		.loc 1 294 0 is_stmt 0 discriminator 1
 327 0044 7A68     		ldr	r2, [r7, #4]
 328 0046 4FF40063 		mov	r3, #2048
 329 004a C4F20003 		movt	r3, 16384
 330 004e 9A42     		cmp	r2, r3
 331 0050 06D0     		beq	.L17
 295:libs/STM32F4xx_StdPeriph_Driver/src/stm32f4xx_tim.c ****      (TIMx == TIM4) || (TIMx == TIM5)) 
 332              		.loc 1 295 0 is_stmt 1
 333 0052 7A68     		ldr	r2, [r7, #4]
 334 0054 4FF44063 		mov	r3, #3072
 335 0058 C4F20003 		movt	r3, 16384
 336 005c 9A42     		cmp	r2, r3
 337 005e 08D1     		bne	.L18
 338              	.L17:
 296:libs/STM32F4xx_StdPeriph_Driver/src/stm32f4xx_tim.c ****   {
 297:libs/STM32F4xx_StdPeriph_Driver/src/stm32f4xx_tim.c ****     /* Select the Counter Mode */
 298:libs/STM32F4xx_StdPeriph_Driver/src/stm32f4xx_tim.c ****     tmpcr1 &= (uint16_t)(~(TIM_CR1_DIR | TIM_CR1_CMS));
 339              		.loc 1 298 0
 340 0060 FB89     		ldrh	r3, [r7, #14]	@ movhi
 341 0062 23F07003 		bic	r3, r3, #112
 342 0066 FB81     		strh	r3, [r7, #14]	@ movhi
 299:libs/STM32F4xx_StdPeriph_Driver/src/stm32f4xx_tim.c ****     tmpcr1 |= (uint32_t)TIM_TimeBaseInitStruct->TIM_CounterMode;
 343              		.loc 1 299 0
 344 0068 3B68     		ldr	r3, [r7]
 345 006a 5A88     		ldrh	r2, [r3, #2]
 346 006c FB89     		ldrh	r3, [r7, #14]	@ movhi
 347 006e 1343     		orrs	r3, r3, r2
 348 0070 FB81     		strh	r3, [r7, #14]	@ movhi
 349              	.L18:
 300:libs/STM32F4xx_StdPeriph_Driver/src/stm32f4xx_tim.c ****   }
 301:libs/STM32F4xx_StdPeriph_Driver/src/stm32f4xx_tim.c ****  
 302:libs/STM32F4xx_StdPeriph_Driver/src/stm32f4xx_tim.c ****   if((TIMx != TIM6) && (TIMx != TIM7))
 350              		.loc 1 302 0
 351 0072 7A68     		ldr	r2, [r7, #4]
 352 0074 4FF48053 		mov	r3, #4096
 353 0078 C4F20003 		movt	r3, 16384
 354 007c 9A42     		cmp	r2, r3
 355 007e 0FD0     		beq	.L19
 356              		.loc 1 302 0 is_stmt 0 discriminator 1
 357 0080 7A68     		ldr	r2, [r7, #4]
 358 0082 4FF4A053 		mov	r3, #5120
 359 0086 C4F20003 		movt	r3, 16384
 360 008a 9A42     		cmp	r2, r3
 361 008c 08D0     		beq	.L19
 303:libs/STM32F4xx_StdPeriph_Driver/src/stm32f4xx_tim.c ****   {
 304:libs/STM32F4xx_StdPeriph_Driver/src/stm32f4xx_tim.c ****     /* Set the clock division */
 305:libs/STM32F4xx_StdPeriph_Driver/src/stm32f4xx_tim.c ****     tmpcr1 &=  (uint16_t)(~TIM_CR1_CKD);
 362              		.loc 1 305 0 is_stmt 1
 363 008e FB89     		ldrh	r3, [r7, #14]	@ movhi
 364 0090 23F44073 		bic	r3, r3, #768
 365 0094 FB81     		strh	r3, [r7, #14]	@ movhi
 306:libs/STM32F4xx_StdPeriph_Driver/src/stm32f4xx_tim.c ****     tmpcr1 |= (uint32_t)TIM_TimeBaseInitStruct->TIM_ClockDivision;
 366              		.loc 1 306 0
 367 0096 3B68     		ldr	r3, [r7]
 368 0098 1A89     		ldrh	r2, [r3, #8]
 369 009a FB89     		ldrh	r3, [r7, #14]	@ movhi
 370 009c 1343     		orrs	r3, r3, r2
 371 009e FB81     		strh	r3, [r7, #14]	@ movhi
 372              	.L19:
 307:libs/STM32F4xx_StdPeriph_Driver/src/stm32f4xx_tim.c ****   }
 308:libs/STM32F4xx_StdPeriph_Driver/src/stm32f4xx_tim.c **** 
 309:libs/STM32F4xx_StdPeriph_Driver/src/stm32f4xx_tim.c ****   TIMx->CR1 = tmpcr1;
 373              		.loc 1 309 0
 374 00a0 7B68     		ldr	r3, [r7, #4]
 375 00a2 FA89     		ldrh	r2, [r7, #14]	@ movhi
 376 00a4 1A80     		strh	r2, [r3]	@ movhi
 310:libs/STM32F4xx_StdPeriph_Driver/src/stm32f4xx_tim.c **** 
 311:libs/STM32F4xx_StdPeriph_Driver/src/stm32f4xx_tim.c ****   /* Set the Autoreload value */
 312:libs/STM32F4xx_StdPeriph_Driver/src/stm32f4xx_tim.c ****   TIMx->ARR = TIM_TimeBaseInitStruct->TIM_Period ;
 377              		.loc 1 312 0
 378 00a6 3B68     		ldr	r3, [r7]
 379 00a8 5A68     		ldr	r2, [r3, #4]
 380 00aa 7B68     		ldr	r3, [r7, #4]
 381 00ac DA62     		str	r2, [r3, #44]
 313:libs/STM32F4xx_StdPeriph_Driver/src/stm32f4xx_tim.c ****  
 314:libs/STM32F4xx_StdPeriph_Driver/src/stm32f4xx_tim.c ****   /* Set the Prescaler value */
 315:libs/STM32F4xx_StdPeriph_Driver/src/stm32f4xx_tim.c ****   TIMx->PSC = TIM_TimeBaseInitStruct->TIM_Prescaler;
 382              		.loc 1 315 0
 383 00ae 3B68     		ldr	r3, [r7]
 384 00b0 1A88     		ldrh	r2, [r3]
 385 00b2 7B68     		ldr	r3, [r7, #4]
 386 00b4 1A85     		strh	r2, [r3, #40]	@ movhi
 316:libs/STM32F4xx_StdPeriph_Driver/src/stm32f4xx_tim.c ****     
 317:libs/STM32F4xx_StdPeriph_Driver/src/stm32f4xx_tim.c ****   if ((TIMx == TIM1) || (TIMx == TIM8))  
 387              		.loc 1 317 0
 388 00b6 7A68     		ldr	r2, [r7, #4]
 389 00b8 0023     		movs	r3, #0
 390 00ba C4F20103 		movt	r3, 16385
 391 00be 9A42     		cmp	r2, r3
 392 00c0 06D0     		beq	.L20
 393              		.loc 1 317 0 is_stmt 0 discriminator 1
 394 00c2 7A68     		ldr	r2, [r7, #4]
 395 00c4 4FF48063 		mov	r3, #1024
 396 00c8 C4F20103 		movt	r3, 16385
 397 00cc 9A42     		cmp	r2, r3
 398 00ce 04D1     		bne	.L21
 399              	.L20:
 318:libs/STM32F4xx_StdPeriph_Driver/src/stm32f4xx_tim.c ****   {
 319:libs/STM32F4xx_StdPeriph_Driver/src/stm32f4xx_tim.c ****     /* Set the Repetition Counter value */
 320:libs/STM32F4xx_StdPeriph_Driver/src/stm32f4xx_tim.c ****     TIMx->RCR = TIM_TimeBaseInitStruct->TIM_RepetitionCounter;
 400              		.loc 1 320 0 is_stmt 1
 401 00d0 3B68     		ldr	r3, [r7]
 402 00d2 9B7A     		ldrb	r3, [r3, #10]	@ zero_extendqisi2
 403 00d4 1A46     		mov	r2, r3
 404 00d6 7B68     		ldr	r3, [r7, #4]
 405 00d8 1A86     		strh	r2, [r3, #48]	@ movhi
 406              	.L21:
 321:libs/STM32F4xx_StdPeriph_Driver/src/stm32f4xx_tim.c ****   }
 322:libs/STM32F4xx_StdPeriph_Driver/src/stm32f4xx_tim.c **** 
 323:libs/STM32F4xx_StdPeriph_Driver/src/stm32f4xx_tim.c ****   /* Generate an update event to reload the Prescaler 
 324:libs/STM32F4xx_StdPeriph_Driver/src/stm32f4xx_tim.c ****      and the repetition counter(only for TIM1 and TIM8) value immediatly */
 325:libs/STM32F4xx_StdPeriph_Driver/src/stm32f4xx_tim.c ****   TIMx->EGR = TIM_PSCReloadMode_Immediate;          
 407              		.loc 1 325 0
 408 00da 7B68     		ldr	r3, [r7, #4]
 409 00dc 0122     		movs	r2, #1
 410 00de 9A82     		strh	r2, [r3, #20]	@ movhi
 326:libs/STM32F4xx_StdPeriph_Driver/src/stm32f4xx_tim.c **** }
 411              		.loc 1 326 0
 412 00e0 1437     		adds	r7, r7, #20
 413 00e2 BD46     		mov	sp, r7
 414              		@ sp needed
 415 00e4 5DF8047B 		ldr	r7, [sp], #4
 416 00e8 7047     		bx	lr
 417              		.cfi_endproc
 418              	.LFE111:
 420              		.section	.text.TIM_TimeBaseStructInit,"ax",%progbits
 421              		.align	2
 422              		.global	TIM_TimeBaseStructInit
 423              		.thumb
 424              		.thumb_func
 426              	TIM_TimeBaseStructInit:
 427              	.LFB112:
 327:libs/STM32F4xx_StdPeriph_Driver/src/stm32f4xx_tim.c **** 
 328:libs/STM32F4xx_StdPeriph_Driver/src/stm32f4xx_tim.c **** /**
 329:libs/STM32F4xx_StdPeriph_Driver/src/stm32f4xx_tim.c ****   * @brief  Fills each TIM_TimeBaseInitStruct member with its default value.
 330:libs/STM32F4xx_StdPeriph_Driver/src/stm32f4xx_tim.c ****   * @param  TIM_TimeBaseInitStruct : pointer to a TIM_TimeBaseInitTypeDef
 331:libs/STM32F4xx_StdPeriph_Driver/src/stm32f4xx_tim.c ****   *         structure which will be initialized.
 332:libs/STM32F4xx_StdPeriph_Driver/src/stm32f4xx_tim.c ****   * @retval None
 333:libs/STM32F4xx_StdPeriph_Driver/src/stm32f4xx_tim.c ****   */
 334:libs/STM32F4xx_StdPeriph_Driver/src/stm32f4xx_tim.c **** void TIM_TimeBaseStructInit(TIM_TimeBaseInitTypeDef* TIM_TimeBaseInitStruct)
 335:libs/STM32F4xx_StdPeriph_Driver/src/stm32f4xx_tim.c **** {
 428              		.loc 1 335 0
 429              		.cfi_startproc
 430              		@ args = 0, pretend = 0, frame = 8
 431              		@ frame_needed = 1, uses_anonymous_args = 0
 432              		@ link register save eliminated.
 433 0000 80B4     		push	{r7}
 434              	.LCFI6:
 435              		.cfi_def_cfa_offset 4
 436              		.cfi_offset 7, -4
 437 0002 83B0     		sub	sp, sp, #12
 438              	.LCFI7:
 439              		.cfi_def_cfa_offset 16
 440 0004 00AF     		add	r7, sp, #0
 441              	.LCFI8:
 442              		.cfi_def_cfa_register 7
 443 0006 7860     		str	r0, [r7, #4]
 336:libs/STM32F4xx_StdPeriph_Driver/src/stm32f4xx_tim.c ****   /* Set the default configuration */
 337:libs/STM32F4xx_StdPeriph_Driver/src/stm32f4xx_tim.c ****   TIM_TimeBaseInitStruct->TIM_Period = 0xFFFFFFFF;
 444              		.loc 1 337 0
 445 0008 7B68     		ldr	r3, [r7, #4]
 446 000a 4FF0FF32 		mov	r2, #-1
 447 000e 5A60     		str	r2, [r3, #4]
 338:libs/STM32F4xx_StdPeriph_Driver/src/stm32f4xx_tim.c ****   TIM_TimeBaseInitStruct->TIM_Prescaler = 0x0000;
 448              		.loc 1 338 0
 449 0010 7B68     		ldr	r3, [r7, #4]
 450 0012 0022     		movs	r2, #0
 451 0014 1A80     		strh	r2, [r3]	@ movhi
 339:libs/STM32F4xx_StdPeriph_Driver/src/stm32f4xx_tim.c ****   TIM_TimeBaseInitStruct->TIM_ClockDivision = TIM_CKD_DIV1;
 452              		.loc 1 339 0
 453 0016 7B68     		ldr	r3, [r7, #4]
 454 0018 0022     		movs	r2, #0
 455 001a 1A81     		strh	r2, [r3, #8]	@ movhi
 340:libs/STM32F4xx_StdPeriph_Driver/src/stm32f4xx_tim.c ****   TIM_TimeBaseInitStruct->TIM_CounterMode = TIM_CounterMode_Up;
 456              		.loc 1 340 0
 457 001c 7B68     		ldr	r3, [r7, #4]
 458 001e 0022     		movs	r2, #0
 459 0020 5A80     		strh	r2, [r3, #2]	@ movhi
 341:libs/STM32F4xx_StdPeriph_Driver/src/stm32f4xx_tim.c ****   TIM_TimeBaseInitStruct->TIM_RepetitionCounter = 0x0000;
 460              		.loc 1 341 0
 461 0022 7B68     		ldr	r3, [r7, #4]
 462 0024 0022     		movs	r2, #0
 463 0026 9A72     		strb	r2, [r3, #10]
 342:libs/STM32F4xx_StdPeriph_Driver/src/stm32f4xx_tim.c **** }
 464              		.loc 1 342 0
 465 0028 0C37     		adds	r7, r7, #12
 466 002a BD46     		mov	sp, r7
 467              		@ sp needed
 468 002c 5DF8047B 		ldr	r7, [sp], #4
 469 0030 7047     		bx	lr
 470              		.cfi_endproc
 471              	.LFE112:
 473 0032 00BF     		.section	.text.TIM_PrescalerConfig,"ax",%progbits
 474              		.align	2
 475              		.global	TIM_PrescalerConfig
 476              		.thumb
 477              		.thumb_func
 479              	TIM_PrescalerConfig:
 480              	.LFB113:
 343:libs/STM32F4xx_StdPeriph_Driver/src/stm32f4xx_tim.c **** 
 344:libs/STM32F4xx_StdPeriph_Driver/src/stm32f4xx_tim.c **** /**
 345:libs/STM32F4xx_StdPeriph_Driver/src/stm32f4xx_tim.c ****   * @brief  Configures the TIMx Prescaler.
 346:libs/STM32F4xx_StdPeriph_Driver/src/stm32f4xx_tim.c ****   * @param  TIMx: where x can be  1 to 14 to select the TIM peripheral.
 347:libs/STM32F4xx_StdPeriph_Driver/src/stm32f4xx_tim.c ****   * @param  Prescaler: specifies the Prescaler Register value
 348:libs/STM32F4xx_StdPeriph_Driver/src/stm32f4xx_tim.c ****   * @param  TIM_PSCReloadMode: specifies the TIM Prescaler Reload mode
 349:libs/STM32F4xx_StdPeriph_Driver/src/stm32f4xx_tim.c ****   *          This parameter can be one of the following values:
 350:libs/STM32F4xx_StdPeriph_Driver/src/stm32f4xx_tim.c ****   *            @arg TIM_PSCReloadMode_Update: The Prescaler is loaded at the update event.
 351:libs/STM32F4xx_StdPeriph_Driver/src/stm32f4xx_tim.c ****   *            @arg TIM_PSCReloadMode_Immediate: The Prescaler is loaded immediatly.
 352:libs/STM32F4xx_StdPeriph_Driver/src/stm32f4xx_tim.c ****   * @retval None
 353:libs/STM32F4xx_StdPeriph_Driver/src/stm32f4xx_tim.c ****   */
 354:libs/STM32F4xx_StdPeriph_Driver/src/stm32f4xx_tim.c **** void TIM_PrescalerConfig(TIM_TypeDef* TIMx, uint16_t Prescaler, uint16_t TIM_PSCReloadMode)
 355:libs/STM32F4xx_StdPeriph_Driver/src/stm32f4xx_tim.c **** {
 481              		.loc 1 355 0
 482              		.cfi_startproc
 483              		@ args = 0, pretend = 0, frame = 8
 484              		@ frame_needed = 1, uses_anonymous_args = 0
 485              		@ link register save eliminated.
 486 0000 80B4     		push	{r7}
 487              	.LCFI9:
 488              		.cfi_def_cfa_offset 4
 489              		.cfi_offset 7, -4
 490 0002 83B0     		sub	sp, sp, #12
 491              	.LCFI10:
 492              		.cfi_def_cfa_offset 16
 493 0004 00AF     		add	r7, sp, #0
 494              	.LCFI11:
 495              		.cfi_def_cfa_register 7
 496 0006 7860     		str	r0, [r7, #4]
 497 0008 1346     		mov	r3, r2
 498 000a 0A46     		mov	r2, r1	@ movhi
 499 000c 7A80     		strh	r2, [r7, #2]	@ movhi
 500 000e 3B80     		strh	r3, [r7]	@ movhi
 356:libs/STM32F4xx_StdPeriph_Driver/src/stm32f4xx_tim.c ****   /* Check the parameters */
 357:libs/STM32F4xx_StdPeriph_Driver/src/stm32f4xx_tim.c ****   assert_param(IS_TIM_ALL_PERIPH(TIMx));
 358:libs/STM32F4xx_StdPeriph_Driver/src/stm32f4xx_tim.c ****   assert_param(IS_TIM_PRESCALER_RELOAD(TIM_PSCReloadMode));
 359:libs/STM32F4xx_StdPeriph_Driver/src/stm32f4xx_tim.c ****   /* Set the Prescaler value */
 360:libs/STM32F4xx_StdPeriph_Driver/src/stm32f4xx_tim.c ****   TIMx->PSC = Prescaler;
 501              		.loc 1 360 0
 502 0010 7B68     		ldr	r3, [r7, #4]
 503 0012 7A88     		ldrh	r2, [r7, #2]	@ movhi
 504 0014 1A85     		strh	r2, [r3, #40]	@ movhi
 361:libs/STM32F4xx_StdPeriph_Driver/src/stm32f4xx_tim.c ****   /* Set or reset the UG Bit */
 362:libs/STM32F4xx_StdPeriph_Driver/src/stm32f4xx_tim.c ****   TIMx->EGR = TIM_PSCReloadMode;
 505              		.loc 1 362 0
 506 0016 7B68     		ldr	r3, [r7, #4]
 507 0018 3A88     		ldrh	r2, [r7]	@ movhi
 508 001a 9A82     		strh	r2, [r3, #20]	@ movhi
 363:libs/STM32F4xx_StdPeriph_Driver/src/stm32f4xx_tim.c **** }
 509              		.loc 1 363 0
 510 001c 0C37     		adds	r7, r7, #12
 511 001e BD46     		mov	sp, r7
 512              		@ sp needed
 513 0020 5DF8047B 		ldr	r7, [sp], #4
 514 0024 7047     		bx	lr
 515              		.cfi_endproc
 516              	.LFE113:
 518 0026 00BF     		.section	.text.TIM_CounterModeConfig,"ax",%progbits
 519              		.align	2
 520              		.global	TIM_CounterModeConfig
 521              		.thumb
 522              		.thumb_func
 524              	TIM_CounterModeConfig:
 525              	.LFB114:
 364:libs/STM32F4xx_StdPeriph_Driver/src/stm32f4xx_tim.c **** 
 365:libs/STM32F4xx_StdPeriph_Driver/src/stm32f4xx_tim.c **** /**
 366:libs/STM32F4xx_StdPeriph_Driver/src/stm32f4xx_tim.c ****   * @brief  Specifies the TIMx Counter Mode to be used.
 367:libs/STM32F4xx_StdPeriph_Driver/src/stm32f4xx_tim.c ****   * @param  TIMx: where x can be  1, 2, 3, 4, 5 or 8 to select the TIM peripheral.
 368:libs/STM32F4xx_StdPeriph_Driver/src/stm32f4xx_tim.c ****   * @param  TIM_CounterMode: specifies the Counter Mode to be used
 369:libs/STM32F4xx_StdPeriph_Driver/src/stm32f4xx_tim.c ****   *          This parameter can be one of the following values:
 370:libs/STM32F4xx_StdPeriph_Driver/src/stm32f4xx_tim.c ****   *            @arg TIM_CounterMode_Up: TIM Up Counting Mode
 371:libs/STM32F4xx_StdPeriph_Driver/src/stm32f4xx_tim.c ****   *            @arg TIM_CounterMode_Down: TIM Down Counting Mode
 372:libs/STM32F4xx_StdPeriph_Driver/src/stm32f4xx_tim.c ****   *            @arg TIM_CounterMode_CenterAligned1: TIM Center Aligned Mode1
 373:libs/STM32F4xx_StdPeriph_Driver/src/stm32f4xx_tim.c ****   *            @arg TIM_CounterMode_CenterAligned2: TIM Center Aligned Mode2
 374:libs/STM32F4xx_StdPeriph_Driver/src/stm32f4xx_tim.c ****   *            @arg TIM_CounterMode_CenterAligned3: TIM Center Aligned Mode3
 375:libs/STM32F4xx_StdPeriph_Driver/src/stm32f4xx_tim.c ****   * @retval None
 376:libs/STM32F4xx_StdPeriph_Driver/src/stm32f4xx_tim.c ****   */
 377:libs/STM32F4xx_StdPeriph_Driver/src/stm32f4xx_tim.c **** void TIM_CounterModeConfig(TIM_TypeDef* TIMx, uint16_t TIM_CounterMode)
 378:libs/STM32F4xx_StdPeriph_Driver/src/stm32f4xx_tim.c **** {
 526              		.loc 1 378 0
 527              		.cfi_startproc
 528              		@ args = 0, pretend = 0, frame = 16
 529              		@ frame_needed = 1, uses_anonymous_args = 0
 530              		@ link register save eliminated.
 531 0000 80B4     		push	{r7}
 532              	.LCFI12:
 533              		.cfi_def_cfa_offset 4
 534              		.cfi_offset 7, -4
 535 0002 85B0     		sub	sp, sp, #20
 536              	.LCFI13:
 537              		.cfi_def_cfa_offset 24
 538 0004 00AF     		add	r7, sp, #0
 539              	.LCFI14:
 540              		.cfi_def_cfa_register 7
 541 0006 7860     		str	r0, [r7, #4]
 542 0008 0B46     		mov	r3, r1
 543 000a 7B80     		strh	r3, [r7, #2]	@ movhi
 379:libs/STM32F4xx_StdPeriph_Driver/src/stm32f4xx_tim.c ****   uint16_t tmpcr1 = 0;
 544              		.loc 1 379 0
 545 000c 0023     		movs	r3, #0
 546 000e FB81     		strh	r3, [r7, #14]	@ movhi
 380:libs/STM32F4xx_StdPeriph_Driver/src/stm32f4xx_tim.c **** 
 381:libs/STM32F4xx_StdPeriph_Driver/src/stm32f4xx_tim.c ****   /* Check the parameters */
 382:libs/STM32F4xx_StdPeriph_Driver/src/stm32f4xx_tim.c ****   assert_param(IS_TIM_LIST3_PERIPH(TIMx));
 383:libs/STM32F4xx_StdPeriph_Driver/src/stm32f4xx_tim.c ****   assert_param(IS_TIM_COUNTER_MODE(TIM_CounterMode));
 384:libs/STM32F4xx_StdPeriph_Driver/src/stm32f4xx_tim.c **** 
 385:libs/STM32F4xx_StdPeriph_Driver/src/stm32f4xx_tim.c ****   tmpcr1 = TIMx->CR1;
 547              		.loc 1 385 0
 548 0010 7B68     		ldr	r3, [r7, #4]
 549 0012 1B88     		ldrh	r3, [r3]	@ movhi
 550 0014 FB81     		strh	r3, [r7, #14]	@ movhi
 386:libs/STM32F4xx_StdPeriph_Driver/src/stm32f4xx_tim.c **** 
 387:libs/STM32F4xx_StdPeriph_Driver/src/stm32f4xx_tim.c ****   /* Reset the CMS and DIR Bits */
 388:libs/STM32F4xx_StdPeriph_Driver/src/stm32f4xx_tim.c ****   tmpcr1 &= (uint16_t)~(TIM_CR1_DIR | TIM_CR1_CMS);
 551              		.loc 1 388 0
 552 0016 FB89     		ldrh	r3, [r7, #14]	@ movhi
 553 0018 23F07003 		bic	r3, r3, #112
 554 001c FB81     		strh	r3, [r7, #14]	@ movhi
 389:libs/STM32F4xx_StdPeriph_Driver/src/stm32f4xx_tim.c **** 
 390:libs/STM32F4xx_StdPeriph_Driver/src/stm32f4xx_tim.c ****   /* Set the Counter Mode */
 391:libs/STM32F4xx_StdPeriph_Driver/src/stm32f4xx_tim.c ****   tmpcr1 |= TIM_CounterMode;
 555              		.loc 1 391 0
 556 001e FA89     		ldrh	r2, [r7, #14]	@ movhi
 557 0020 7B88     		ldrh	r3, [r7, #2]	@ movhi
 558 0022 1343     		orrs	r3, r3, r2
 559 0024 FB81     		strh	r3, [r7, #14]	@ movhi
 392:libs/STM32F4xx_StdPeriph_Driver/src/stm32f4xx_tim.c **** 
 393:libs/STM32F4xx_StdPeriph_Driver/src/stm32f4xx_tim.c ****   /* Write to TIMx CR1 register */
 394:libs/STM32F4xx_StdPeriph_Driver/src/stm32f4xx_tim.c ****   TIMx->CR1 = tmpcr1;
 560              		.loc 1 394 0
 561 0026 7B68     		ldr	r3, [r7, #4]
 562 0028 FA89     		ldrh	r2, [r7, #14]	@ movhi
 563 002a 1A80     		strh	r2, [r3]	@ movhi
 395:libs/STM32F4xx_StdPeriph_Driver/src/stm32f4xx_tim.c **** }
 564              		.loc 1 395 0
 565 002c 1437     		adds	r7, r7, #20
 566 002e BD46     		mov	sp, r7
 567              		@ sp needed
 568 0030 5DF8047B 		ldr	r7, [sp], #4
 569 0034 7047     		bx	lr
 570              		.cfi_endproc
 571              	.LFE114:
 573 0036 00BF     		.section	.text.TIM_SetCounter,"ax",%progbits
 574              		.align	2
 575              		.global	TIM_SetCounter
 576              		.thumb
 577              		.thumb_func
 579              	TIM_SetCounter:
 580              	.LFB115:
 396:libs/STM32F4xx_StdPeriph_Driver/src/stm32f4xx_tim.c **** 
 397:libs/STM32F4xx_StdPeriph_Driver/src/stm32f4xx_tim.c **** /**
 398:libs/STM32F4xx_StdPeriph_Driver/src/stm32f4xx_tim.c ****   * @brief  Sets the TIMx Counter Register value
 399:libs/STM32F4xx_StdPeriph_Driver/src/stm32f4xx_tim.c ****   * @param  TIMx: where x can be 1 to 14 to select the TIM peripheral.
 400:libs/STM32F4xx_StdPeriph_Driver/src/stm32f4xx_tim.c ****   * @param  Counter: specifies the Counter register new value.
 401:libs/STM32F4xx_StdPeriph_Driver/src/stm32f4xx_tim.c ****   * @retval None
 402:libs/STM32F4xx_StdPeriph_Driver/src/stm32f4xx_tim.c ****   */
 403:libs/STM32F4xx_StdPeriph_Driver/src/stm32f4xx_tim.c **** void TIM_SetCounter(TIM_TypeDef* TIMx, uint32_t Counter)
 404:libs/STM32F4xx_StdPeriph_Driver/src/stm32f4xx_tim.c **** {
 581              		.loc 1 404 0
 582              		.cfi_startproc
 583              		@ args = 0, pretend = 0, frame = 8
 584              		@ frame_needed = 1, uses_anonymous_args = 0
 585              		@ link register save eliminated.
 586 0000 80B4     		push	{r7}
 587              	.LCFI15:
 588              		.cfi_def_cfa_offset 4
 589              		.cfi_offset 7, -4
 590 0002 83B0     		sub	sp, sp, #12
 591              	.LCFI16:
 592              		.cfi_def_cfa_offset 16
 593 0004 00AF     		add	r7, sp, #0
 594              	.LCFI17:
 595              		.cfi_def_cfa_register 7
 596 0006 7860     		str	r0, [r7, #4]
 597 0008 3960     		str	r1, [r7]
 405:libs/STM32F4xx_StdPeriph_Driver/src/stm32f4xx_tim.c ****   /* Check the parameters */
 406:libs/STM32F4xx_StdPeriph_Driver/src/stm32f4xx_tim.c ****    assert_param(IS_TIM_ALL_PERIPH(TIMx));
 407:libs/STM32F4xx_StdPeriph_Driver/src/stm32f4xx_tim.c **** 
 408:libs/STM32F4xx_StdPeriph_Driver/src/stm32f4xx_tim.c ****   /* Set the Counter Register value */
 409:libs/STM32F4xx_StdPeriph_Driver/src/stm32f4xx_tim.c ****   TIMx->CNT = Counter;
 598              		.loc 1 409 0
 599 000a 7B68     		ldr	r3, [r7, #4]
 600 000c 3A68     		ldr	r2, [r7]
 601 000e 5A62     		str	r2, [r3, #36]
 410:libs/STM32F4xx_StdPeriph_Driver/src/stm32f4xx_tim.c **** }
 602              		.loc 1 410 0
 603 0010 0C37     		adds	r7, r7, #12
 604 0012 BD46     		mov	sp, r7
 605              		@ sp needed
 606 0014 5DF8047B 		ldr	r7, [sp], #4
 607 0018 7047     		bx	lr
 608              		.cfi_endproc
 609              	.LFE115:
 611 001a 00BF     		.section	.text.TIM_SetAutoreload,"ax",%progbits
 612              		.align	2
 613              		.global	TIM_SetAutoreload
 614              		.thumb
 615              		.thumb_func
 617              	TIM_SetAutoreload:
 618              	.LFB116:
 411:libs/STM32F4xx_StdPeriph_Driver/src/stm32f4xx_tim.c **** 
 412:libs/STM32F4xx_StdPeriph_Driver/src/stm32f4xx_tim.c **** /**
 413:libs/STM32F4xx_StdPeriph_Driver/src/stm32f4xx_tim.c ****   * @brief  Sets the TIMx Autoreload Register value
 414:libs/STM32F4xx_StdPeriph_Driver/src/stm32f4xx_tim.c ****   * @param  TIMx: where x can be 1 to 14 to select the TIM peripheral.
 415:libs/STM32F4xx_StdPeriph_Driver/src/stm32f4xx_tim.c ****   * @param  Autoreload: specifies the Autoreload register new value.
 416:libs/STM32F4xx_StdPeriph_Driver/src/stm32f4xx_tim.c ****   * @retval None
 417:libs/STM32F4xx_StdPeriph_Driver/src/stm32f4xx_tim.c ****   */
 418:libs/STM32F4xx_StdPeriph_Driver/src/stm32f4xx_tim.c **** void TIM_SetAutoreload(TIM_TypeDef* TIMx, uint32_t Autoreload)
 419:libs/STM32F4xx_StdPeriph_Driver/src/stm32f4xx_tim.c **** {
 619              		.loc 1 419 0
 620              		.cfi_startproc
 621              		@ args = 0, pretend = 0, frame = 8
 622              		@ frame_needed = 1, uses_anonymous_args = 0
 623              		@ link register save eliminated.
 624 0000 80B4     		push	{r7}
 625              	.LCFI18:
 626              		.cfi_def_cfa_offset 4
 627              		.cfi_offset 7, -4
 628 0002 83B0     		sub	sp, sp, #12
 629              	.LCFI19:
 630              		.cfi_def_cfa_offset 16
 631 0004 00AF     		add	r7, sp, #0
 632              	.LCFI20:
 633              		.cfi_def_cfa_register 7
 634 0006 7860     		str	r0, [r7, #4]
 635 0008 3960     		str	r1, [r7]
 420:libs/STM32F4xx_StdPeriph_Driver/src/stm32f4xx_tim.c ****   /* Check the parameters */
 421:libs/STM32F4xx_StdPeriph_Driver/src/stm32f4xx_tim.c ****   assert_param(IS_TIM_ALL_PERIPH(TIMx));
 422:libs/STM32F4xx_StdPeriph_Driver/src/stm32f4xx_tim.c ****   
 423:libs/STM32F4xx_StdPeriph_Driver/src/stm32f4xx_tim.c ****   /* Set the Autoreload Register value */
 424:libs/STM32F4xx_StdPeriph_Driver/src/stm32f4xx_tim.c ****   TIMx->ARR = Autoreload;
 636              		.loc 1 424 0
 637 000a 7B68     		ldr	r3, [r7, #4]
 638 000c 3A68     		ldr	r2, [r7]
 639 000e DA62     		str	r2, [r3, #44]
 425:libs/STM32F4xx_StdPeriph_Driver/src/stm32f4xx_tim.c **** }
 640              		.loc 1 425 0
 641 0010 0C37     		adds	r7, r7, #12
 642 0012 BD46     		mov	sp, r7
 643              		@ sp needed
 644 0014 5DF8047B 		ldr	r7, [sp], #4
 645 0018 7047     		bx	lr
 646              		.cfi_endproc
 647              	.LFE116:
 649 001a 00BF     		.section	.text.TIM_GetCounter,"ax",%progbits
 650              		.align	2
 651              		.global	TIM_GetCounter
 652              		.thumb
 653              		.thumb_func
 655              	TIM_GetCounter:
 656              	.LFB117:
 426:libs/STM32F4xx_StdPeriph_Driver/src/stm32f4xx_tim.c **** 
 427:libs/STM32F4xx_StdPeriph_Driver/src/stm32f4xx_tim.c **** /**
 428:libs/STM32F4xx_StdPeriph_Driver/src/stm32f4xx_tim.c ****   * @brief  Gets the TIMx Counter value.
 429:libs/STM32F4xx_StdPeriph_Driver/src/stm32f4xx_tim.c ****   * @param  TIMx: where x can be 1 to 14 to select the TIM peripheral.
 430:libs/STM32F4xx_StdPeriph_Driver/src/stm32f4xx_tim.c ****   * @retval Counter Register value
 431:libs/STM32F4xx_StdPeriph_Driver/src/stm32f4xx_tim.c ****   */
 432:libs/STM32F4xx_StdPeriph_Driver/src/stm32f4xx_tim.c **** uint32_t TIM_GetCounter(TIM_TypeDef* TIMx)
 433:libs/STM32F4xx_StdPeriph_Driver/src/stm32f4xx_tim.c **** {
 657              		.loc 1 433 0
 658              		.cfi_startproc
 659              		@ args = 0, pretend = 0, frame = 8
 660              		@ frame_needed = 1, uses_anonymous_args = 0
 661              		@ link register save eliminated.
 662 0000 80B4     		push	{r7}
 663              	.LCFI21:
 664              		.cfi_def_cfa_offset 4
 665              		.cfi_offset 7, -4
 666 0002 83B0     		sub	sp, sp, #12
 667              	.LCFI22:
 668              		.cfi_def_cfa_offset 16
 669 0004 00AF     		add	r7, sp, #0
 670              	.LCFI23:
 671              		.cfi_def_cfa_register 7
 672 0006 7860     		str	r0, [r7, #4]
 434:libs/STM32F4xx_StdPeriph_Driver/src/stm32f4xx_tim.c ****   /* Check the parameters */
 435:libs/STM32F4xx_StdPeriph_Driver/src/stm32f4xx_tim.c ****   assert_param(IS_TIM_ALL_PERIPH(TIMx));
 436:libs/STM32F4xx_StdPeriph_Driver/src/stm32f4xx_tim.c **** 
 437:libs/STM32F4xx_StdPeriph_Driver/src/stm32f4xx_tim.c ****   /* Get the Counter Register value */
 438:libs/STM32F4xx_StdPeriph_Driver/src/stm32f4xx_tim.c ****   return TIMx->CNT;
 673              		.loc 1 438 0
 674 0008 7B68     		ldr	r3, [r7, #4]
 675 000a 5B6A     		ldr	r3, [r3, #36]
 439:libs/STM32F4xx_StdPeriph_Driver/src/stm32f4xx_tim.c **** }
 676              		.loc 1 439 0
 677 000c 1846     		mov	r0, r3
 678 000e 0C37     		adds	r7, r7, #12
 679 0010 BD46     		mov	sp, r7
 680              		@ sp needed
 681 0012 5DF8047B 		ldr	r7, [sp], #4
 682 0016 7047     		bx	lr
 683              		.cfi_endproc
 684              	.LFE117:
 686              		.section	.text.TIM_GetPrescaler,"ax",%progbits
 687              		.align	2
 688              		.global	TIM_GetPrescaler
 689              		.thumb
 690              		.thumb_func
 692              	TIM_GetPrescaler:
 693              	.LFB118:
 440:libs/STM32F4xx_StdPeriph_Driver/src/stm32f4xx_tim.c **** 
 441:libs/STM32F4xx_StdPeriph_Driver/src/stm32f4xx_tim.c **** /**
 442:libs/STM32F4xx_StdPeriph_Driver/src/stm32f4xx_tim.c ****   * @brief  Gets the TIMx Prescaler value.
 443:libs/STM32F4xx_StdPeriph_Driver/src/stm32f4xx_tim.c ****   * @param  TIMx: where x can be 1 to 14 to select the TIM peripheral.
 444:libs/STM32F4xx_StdPeriph_Driver/src/stm32f4xx_tim.c ****   * @retval Prescaler Register value.
 445:libs/STM32F4xx_StdPeriph_Driver/src/stm32f4xx_tim.c ****   */
 446:libs/STM32F4xx_StdPeriph_Driver/src/stm32f4xx_tim.c **** uint16_t TIM_GetPrescaler(TIM_TypeDef* TIMx)
 447:libs/STM32F4xx_StdPeriph_Driver/src/stm32f4xx_tim.c **** {
 694              		.loc 1 447 0
 695              		.cfi_startproc
 696              		@ args = 0, pretend = 0, frame = 8
 697              		@ frame_needed = 1, uses_anonymous_args = 0
 698              		@ link register save eliminated.
 699 0000 80B4     		push	{r7}
 700              	.LCFI24:
 701              		.cfi_def_cfa_offset 4
 702              		.cfi_offset 7, -4
 703 0002 83B0     		sub	sp, sp, #12
 704              	.LCFI25:
 705              		.cfi_def_cfa_offset 16
 706 0004 00AF     		add	r7, sp, #0
 707              	.LCFI26:
 708              		.cfi_def_cfa_register 7
 709 0006 7860     		str	r0, [r7, #4]
 448:libs/STM32F4xx_StdPeriph_Driver/src/stm32f4xx_tim.c ****   /* Check the parameters */
 449:libs/STM32F4xx_StdPeriph_Driver/src/stm32f4xx_tim.c ****   assert_param(IS_TIM_ALL_PERIPH(TIMx));
 450:libs/STM32F4xx_StdPeriph_Driver/src/stm32f4xx_tim.c **** 
 451:libs/STM32F4xx_StdPeriph_Driver/src/stm32f4xx_tim.c ****   /* Get the Prescaler Register value */
 452:libs/STM32F4xx_StdPeriph_Driver/src/stm32f4xx_tim.c ****   return TIMx->PSC;
 710              		.loc 1 452 0
 711 0008 7B68     		ldr	r3, [r7, #4]
 712 000a 1B8D     		ldrh	r3, [r3, #40]	@ movhi
 713 000c 9BB2     		uxth	r3, r3
 453:libs/STM32F4xx_StdPeriph_Driver/src/stm32f4xx_tim.c **** }
 714              		.loc 1 453 0
 715 000e 1846     		mov	r0, r3
 716 0010 0C37     		adds	r7, r7, #12
 717 0012 BD46     		mov	sp, r7
 718              		@ sp needed
 719 0014 5DF8047B 		ldr	r7, [sp], #4
 720 0018 7047     		bx	lr
 721              		.cfi_endproc
 722              	.LFE118:
 724 001a 00BF     		.section	.text.TIM_UpdateDisableConfig,"ax",%progbits
 725              		.align	2
 726              		.global	TIM_UpdateDisableConfig
 727              		.thumb
 728              		.thumb_func
 730              	TIM_UpdateDisableConfig:
 731              	.LFB119:
 454:libs/STM32F4xx_StdPeriph_Driver/src/stm32f4xx_tim.c **** 
 455:libs/STM32F4xx_StdPeriph_Driver/src/stm32f4xx_tim.c **** /**
 456:libs/STM32F4xx_StdPeriph_Driver/src/stm32f4xx_tim.c ****   * @brief  Enables or Disables the TIMx Update event.
 457:libs/STM32F4xx_StdPeriph_Driver/src/stm32f4xx_tim.c ****   * @param  TIMx: where x can be 1 to 14 to select the TIM peripheral.
 458:libs/STM32F4xx_StdPeriph_Driver/src/stm32f4xx_tim.c ****   * @param  NewState: new state of the TIMx UDIS bit
 459:libs/STM32F4xx_StdPeriph_Driver/src/stm32f4xx_tim.c ****   *          This parameter can be: ENABLE or DISABLE.
 460:libs/STM32F4xx_StdPeriph_Driver/src/stm32f4xx_tim.c ****   * @retval None
 461:libs/STM32F4xx_StdPeriph_Driver/src/stm32f4xx_tim.c ****   */
 462:libs/STM32F4xx_StdPeriph_Driver/src/stm32f4xx_tim.c **** void TIM_UpdateDisableConfig(TIM_TypeDef* TIMx, FunctionalState NewState)
 463:libs/STM32F4xx_StdPeriph_Driver/src/stm32f4xx_tim.c **** {
 732              		.loc 1 463 0
 733              		.cfi_startproc
 734              		@ args = 0, pretend = 0, frame = 8
 735              		@ frame_needed = 1, uses_anonymous_args = 0
 736              		@ link register save eliminated.
 737 0000 80B4     		push	{r7}
 738              	.LCFI27:
 739              		.cfi_def_cfa_offset 4
 740              		.cfi_offset 7, -4
 741 0002 83B0     		sub	sp, sp, #12
 742              	.LCFI28:
 743              		.cfi_def_cfa_offset 16
 744 0004 00AF     		add	r7, sp, #0
 745              	.LCFI29:
 746              		.cfi_def_cfa_register 7
 747 0006 7860     		str	r0, [r7, #4]
 748 0008 0B46     		mov	r3, r1
 749 000a FB70     		strb	r3, [r7, #3]
 464:libs/STM32F4xx_StdPeriph_Driver/src/stm32f4xx_tim.c ****   /* Check the parameters */
 465:libs/STM32F4xx_StdPeriph_Driver/src/stm32f4xx_tim.c ****   assert_param(IS_TIM_ALL_PERIPH(TIMx));
 466:libs/STM32F4xx_StdPeriph_Driver/src/stm32f4xx_tim.c ****   assert_param(IS_FUNCTIONAL_STATE(NewState));
 467:libs/STM32F4xx_StdPeriph_Driver/src/stm32f4xx_tim.c **** 
 468:libs/STM32F4xx_StdPeriph_Driver/src/stm32f4xx_tim.c ****   if (NewState != DISABLE)
 750              		.loc 1 468 0
 751 000c FB78     		ldrb	r3, [r7, #3]	@ zero_extendqisi2
 752 000e 002B     		cmp	r3, #0
 753 0010 08D0     		beq	.L32
 469:libs/STM32F4xx_StdPeriph_Driver/src/stm32f4xx_tim.c ****   {
 470:libs/STM32F4xx_StdPeriph_Driver/src/stm32f4xx_tim.c ****     /* Set the Update Disable Bit */
 471:libs/STM32F4xx_StdPeriph_Driver/src/stm32f4xx_tim.c ****     TIMx->CR1 |= TIM_CR1_UDIS;
 754              		.loc 1 471 0
 755 0012 7B68     		ldr	r3, [r7, #4]
 756 0014 1B88     		ldrh	r3, [r3]	@ movhi
 757 0016 9BB2     		uxth	r3, r3
 758 0018 43F00203 		orr	r3, r3, #2
 759 001c 9AB2     		uxth	r2, r3
 760 001e 7B68     		ldr	r3, [r7, #4]
 761 0020 1A80     		strh	r2, [r3]	@ movhi
 762 0022 07E0     		b	.L31
 763              	.L32:
 472:libs/STM32F4xx_StdPeriph_Driver/src/stm32f4xx_tim.c ****   }
 473:libs/STM32F4xx_StdPeriph_Driver/src/stm32f4xx_tim.c ****   else
 474:libs/STM32F4xx_StdPeriph_Driver/src/stm32f4xx_tim.c ****   {
 475:libs/STM32F4xx_StdPeriph_Driver/src/stm32f4xx_tim.c ****     /* Reset the Update Disable Bit */
 476:libs/STM32F4xx_StdPeriph_Driver/src/stm32f4xx_tim.c ****     TIMx->CR1 &= (uint16_t)~TIM_CR1_UDIS;
 764              		.loc 1 476 0
 765 0024 7B68     		ldr	r3, [r7, #4]
 766 0026 1B88     		ldrh	r3, [r3]	@ movhi
 767 0028 9BB2     		uxth	r3, r3
 768 002a 23F00203 		bic	r3, r3, #2
 769 002e 9AB2     		uxth	r2, r3
 770 0030 7B68     		ldr	r3, [r7, #4]
 771 0032 1A80     		strh	r2, [r3]	@ movhi
 772              	.L31:
 477:libs/STM32F4xx_StdPeriph_Driver/src/stm32f4xx_tim.c ****   }
 478:libs/STM32F4xx_StdPeriph_Driver/src/stm32f4xx_tim.c **** }
 773              		.loc 1 478 0
 774 0034 0C37     		adds	r7, r7, #12
 775 0036 BD46     		mov	sp, r7
 776              		@ sp needed
 777 0038 5DF8047B 		ldr	r7, [sp], #4
 778 003c 7047     		bx	lr
 779              		.cfi_endproc
 780              	.LFE119:
 782 003e 00BF     		.section	.text.TIM_UpdateRequestConfig,"ax",%progbits
 783              		.align	2
 784              		.global	TIM_UpdateRequestConfig
 785              		.thumb
 786              		.thumb_func
 788              	TIM_UpdateRequestConfig:
 789              	.LFB120:
 479:libs/STM32F4xx_StdPeriph_Driver/src/stm32f4xx_tim.c **** 
 480:libs/STM32F4xx_StdPeriph_Driver/src/stm32f4xx_tim.c **** /**
 481:libs/STM32F4xx_StdPeriph_Driver/src/stm32f4xx_tim.c ****   * @brief  Configures the TIMx Update Request Interrupt source.
 482:libs/STM32F4xx_StdPeriph_Driver/src/stm32f4xx_tim.c ****   * @param  TIMx: where x can be 1 to 14 to select the TIM peripheral.
 483:libs/STM32F4xx_StdPeriph_Driver/src/stm32f4xx_tim.c ****   * @param  TIM_UpdateSource: specifies the Update source.
 484:libs/STM32F4xx_StdPeriph_Driver/src/stm32f4xx_tim.c ****   *          This parameter can be one of the following values:
 485:libs/STM32F4xx_StdPeriph_Driver/src/stm32f4xx_tim.c ****   *            @arg TIM_UpdateSource_Regular: Source of update is the counter
 486:libs/STM32F4xx_StdPeriph_Driver/src/stm32f4xx_tim.c ****   *                 overflow/underflow or the setting of UG bit, or an update
 487:libs/STM32F4xx_StdPeriph_Driver/src/stm32f4xx_tim.c ****   *                 generation through the slave mode controller.
 488:libs/STM32F4xx_StdPeriph_Driver/src/stm32f4xx_tim.c ****   *            @arg TIM_UpdateSource_Global: Source of update is counter overflow/underflow.
 489:libs/STM32F4xx_StdPeriph_Driver/src/stm32f4xx_tim.c ****   * @retval None
 490:libs/STM32F4xx_StdPeriph_Driver/src/stm32f4xx_tim.c ****   */
 491:libs/STM32F4xx_StdPeriph_Driver/src/stm32f4xx_tim.c **** void TIM_UpdateRequestConfig(TIM_TypeDef* TIMx, uint16_t TIM_UpdateSource)
 492:libs/STM32F4xx_StdPeriph_Driver/src/stm32f4xx_tim.c **** {
 790              		.loc 1 492 0
 791              		.cfi_startproc
 792              		@ args = 0, pretend = 0, frame = 8
 793              		@ frame_needed = 1, uses_anonymous_args = 0
 794              		@ link register save eliminated.
 795 0000 80B4     		push	{r7}
 796              	.LCFI30:
 797              		.cfi_def_cfa_offset 4
 798              		.cfi_offset 7, -4
 799 0002 83B0     		sub	sp, sp, #12
 800              	.LCFI31:
 801              		.cfi_def_cfa_offset 16
 802 0004 00AF     		add	r7, sp, #0
 803              	.LCFI32:
 804              		.cfi_def_cfa_register 7
 805 0006 7860     		str	r0, [r7, #4]
 806 0008 0B46     		mov	r3, r1
 807 000a 7B80     		strh	r3, [r7, #2]	@ movhi
 493:libs/STM32F4xx_StdPeriph_Driver/src/stm32f4xx_tim.c ****   /* Check the parameters */
 494:libs/STM32F4xx_StdPeriph_Driver/src/stm32f4xx_tim.c ****   assert_param(IS_TIM_ALL_PERIPH(TIMx));
 495:libs/STM32F4xx_StdPeriph_Driver/src/stm32f4xx_tim.c ****   assert_param(IS_TIM_UPDATE_SOURCE(TIM_UpdateSource));
 496:libs/STM32F4xx_StdPeriph_Driver/src/stm32f4xx_tim.c **** 
 497:libs/STM32F4xx_StdPeriph_Driver/src/stm32f4xx_tim.c ****   if (TIM_UpdateSource != TIM_UpdateSource_Global)
 808              		.loc 1 497 0
 809 000c 7B88     		ldrh	r3, [r7, #2]
 810 000e 002B     		cmp	r3, #0
 811 0010 08D0     		beq	.L35
 498:libs/STM32F4xx_StdPeriph_Driver/src/stm32f4xx_tim.c ****   {
 499:libs/STM32F4xx_StdPeriph_Driver/src/stm32f4xx_tim.c ****     /* Set the URS Bit */
 500:libs/STM32F4xx_StdPeriph_Driver/src/stm32f4xx_tim.c ****     TIMx->CR1 |= TIM_CR1_URS;
 812              		.loc 1 500 0
 813 0012 7B68     		ldr	r3, [r7, #4]
 814 0014 1B88     		ldrh	r3, [r3]	@ movhi
 815 0016 9BB2     		uxth	r3, r3
 816 0018 43F00403 		orr	r3, r3, #4
 817 001c 9AB2     		uxth	r2, r3
 818 001e 7B68     		ldr	r3, [r7, #4]
 819 0020 1A80     		strh	r2, [r3]	@ movhi
 820 0022 07E0     		b	.L34
 821              	.L35:
 501:libs/STM32F4xx_StdPeriph_Driver/src/stm32f4xx_tim.c ****   }
 502:libs/STM32F4xx_StdPeriph_Driver/src/stm32f4xx_tim.c ****   else
 503:libs/STM32F4xx_StdPeriph_Driver/src/stm32f4xx_tim.c ****   {
 504:libs/STM32F4xx_StdPeriph_Driver/src/stm32f4xx_tim.c ****     /* Reset the URS Bit */
 505:libs/STM32F4xx_StdPeriph_Driver/src/stm32f4xx_tim.c ****     TIMx->CR1 &= (uint16_t)~TIM_CR1_URS;
 822              		.loc 1 505 0
 823 0024 7B68     		ldr	r3, [r7, #4]
 824 0026 1B88     		ldrh	r3, [r3]	@ movhi
 825 0028 9BB2     		uxth	r3, r3
 826 002a 23F00403 		bic	r3, r3, #4
 827 002e 9AB2     		uxth	r2, r3
 828 0030 7B68     		ldr	r3, [r7, #4]
 829 0032 1A80     		strh	r2, [r3]	@ movhi
 830              	.L34:
 506:libs/STM32F4xx_StdPeriph_Driver/src/stm32f4xx_tim.c ****   }
 507:libs/STM32F4xx_StdPeriph_Driver/src/stm32f4xx_tim.c **** }
 831              		.loc 1 507 0
 832 0034 0C37     		adds	r7, r7, #12
 833 0036 BD46     		mov	sp, r7
 834              		@ sp needed
 835 0038 5DF8047B 		ldr	r7, [sp], #4
 836 003c 7047     		bx	lr
 837              		.cfi_endproc
 838              	.LFE120:
 840 003e 00BF     		.section	.text.TIM_ARRPreloadConfig,"ax",%progbits
 841              		.align	2
 842              		.global	TIM_ARRPreloadConfig
 843              		.thumb
 844              		.thumb_func
 846              	TIM_ARRPreloadConfig:
 847              	.LFB121:
 508:libs/STM32F4xx_StdPeriph_Driver/src/stm32f4xx_tim.c **** 
 509:libs/STM32F4xx_StdPeriph_Driver/src/stm32f4xx_tim.c **** /**
 510:libs/STM32F4xx_StdPeriph_Driver/src/stm32f4xx_tim.c ****   * @brief  Enables or disables TIMx peripheral Preload register on ARR.
 511:libs/STM32F4xx_StdPeriph_Driver/src/stm32f4xx_tim.c ****   * @param  TIMx: where x can be 1 to 14 to select the TIM peripheral.
 512:libs/STM32F4xx_StdPeriph_Driver/src/stm32f4xx_tim.c ****   * @param  NewState: new state of the TIMx peripheral Preload register
 513:libs/STM32F4xx_StdPeriph_Driver/src/stm32f4xx_tim.c ****   *          This parameter can be: ENABLE or DISABLE.
 514:libs/STM32F4xx_StdPeriph_Driver/src/stm32f4xx_tim.c ****   * @retval None
 515:libs/STM32F4xx_StdPeriph_Driver/src/stm32f4xx_tim.c ****   */
 516:libs/STM32F4xx_StdPeriph_Driver/src/stm32f4xx_tim.c **** void TIM_ARRPreloadConfig(TIM_TypeDef* TIMx, FunctionalState NewState)
 517:libs/STM32F4xx_StdPeriph_Driver/src/stm32f4xx_tim.c **** {
 848              		.loc 1 517 0
 849              		.cfi_startproc
 850              		@ args = 0, pretend = 0, frame = 8
 851              		@ frame_needed = 1, uses_anonymous_args = 0
 852              		@ link register save eliminated.
 853 0000 80B4     		push	{r7}
 854              	.LCFI33:
 855              		.cfi_def_cfa_offset 4
 856              		.cfi_offset 7, -4
 857 0002 83B0     		sub	sp, sp, #12
 858              	.LCFI34:
 859              		.cfi_def_cfa_offset 16
 860 0004 00AF     		add	r7, sp, #0
 861              	.LCFI35:
 862              		.cfi_def_cfa_register 7
 863 0006 7860     		str	r0, [r7, #4]
 864 0008 0B46     		mov	r3, r1
 865 000a FB70     		strb	r3, [r7, #3]
 518:libs/STM32F4xx_StdPeriph_Driver/src/stm32f4xx_tim.c ****   /* Check the parameters */
 519:libs/STM32F4xx_StdPeriph_Driver/src/stm32f4xx_tim.c ****   assert_param(IS_TIM_ALL_PERIPH(TIMx));
 520:libs/STM32F4xx_StdPeriph_Driver/src/stm32f4xx_tim.c ****   assert_param(IS_FUNCTIONAL_STATE(NewState));
 521:libs/STM32F4xx_StdPeriph_Driver/src/stm32f4xx_tim.c **** 
 522:libs/STM32F4xx_StdPeriph_Driver/src/stm32f4xx_tim.c ****   if (NewState != DISABLE)
 866              		.loc 1 522 0
 867 000c FB78     		ldrb	r3, [r7, #3]	@ zero_extendqisi2
 868 000e 002B     		cmp	r3, #0
 869 0010 08D0     		beq	.L38
 523:libs/STM32F4xx_StdPeriph_Driver/src/stm32f4xx_tim.c ****   {
 524:libs/STM32F4xx_StdPeriph_Driver/src/stm32f4xx_tim.c ****     /* Set the ARR Preload Bit */
 525:libs/STM32F4xx_StdPeriph_Driver/src/stm32f4xx_tim.c ****     TIMx->CR1 |= TIM_CR1_ARPE;
 870              		.loc 1 525 0
 871 0012 7B68     		ldr	r3, [r7, #4]
 872 0014 1B88     		ldrh	r3, [r3]	@ movhi
 873 0016 9BB2     		uxth	r3, r3
 874 0018 43F08003 		orr	r3, r3, #128
 875 001c 9AB2     		uxth	r2, r3
 876 001e 7B68     		ldr	r3, [r7, #4]
 877 0020 1A80     		strh	r2, [r3]	@ movhi
 878 0022 07E0     		b	.L37
 879              	.L38:
 526:libs/STM32F4xx_StdPeriph_Driver/src/stm32f4xx_tim.c ****   }
 527:libs/STM32F4xx_StdPeriph_Driver/src/stm32f4xx_tim.c ****   else
 528:libs/STM32F4xx_StdPeriph_Driver/src/stm32f4xx_tim.c ****   {
 529:libs/STM32F4xx_StdPeriph_Driver/src/stm32f4xx_tim.c ****     /* Reset the ARR Preload Bit */
 530:libs/STM32F4xx_StdPeriph_Driver/src/stm32f4xx_tim.c ****     TIMx->CR1 &= (uint16_t)~TIM_CR1_ARPE;
 880              		.loc 1 530 0
 881 0024 7B68     		ldr	r3, [r7, #4]
 882 0026 1B88     		ldrh	r3, [r3]	@ movhi
 883 0028 9BB2     		uxth	r3, r3
 884 002a 23F08003 		bic	r3, r3, #128
 885 002e 9AB2     		uxth	r2, r3
 886 0030 7B68     		ldr	r3, [r7, #4]
 887 0032 1A80     		strh	r2, [r3]	@ movhi
 888              	.L37:
 531:libs/STM32F4xx_StdPeriph_Driver/src/stm32f4xx_tim.c ****   }
 532:libs/STM32F4xx_StdPeriph_Driver/src/stm32f4xx_tim.c **** }
 889              		.loc 1 532 0
 890 0034 0C37     		adds	r7, r7, #12
 891 0036 BD46     		mov	sp, r7
 892              		@ sp needed
 893 0038 5DF8047B 		ldr	r7, [sp], #4
 894 003c 7047     		bx	lr
 895              		.cfi_endproc
 896              	.LFE121:
 898 003e 00BF     		.section	.text.TIM_SelectOnePulseMode,"ax",%progbits
 899              		.align	2
 900              		.global	TIM_SelectOnePulseMode
 901              		.thumb
 902              		.thumb_func
 904              	TIM_SelectOnePulseMode:
 905              	.LFB122:
 533:libs/STM32F4xx_StdPeriph_Driver/src/stm32f4xx_tim.c **** 
 534:libs/STM32F4xx_StdPeriph_Driver/src/stm32f4xx_tim.c **** /**
 535:libs/STM32F4xx_StdPeriph_Driver/src/stm32f4xx_tim.c ****   * @brief  Selects the TIMx's One Pulse Mode.
 536:libs/STM32F4xx_StdPeriph_Driver/src/stm32f4xx_tim.c ****   * @param  TIMx: where x can be 1 to 14 to select the TIM peripheral.
 537:libs/STM32F4xx_StdPeriph_Driver/src/stm32f4xx_tim.c ****   * @param  TIM_OPMode: specifies the OPM Mode to be used.
 538:libs/STM32F4xx_StdPeriph_Driver/src/stm32f4xx_tim.c ****   *          This parameter can be one of the following values:
 539:libs/STM32F4xx_StdPeriph_Driver/src/stm32f4xx_tim.c ****   *            @arg TIM_OPMode_Single
 540:libs/STM32F4xx_StdPeriph_Driver/src/stm32f4xx_tim.c ****   *            @arg TIM_OPMode_Repetitive
 541:libs/STM32F4xx_StdPeriph_Driver/src/stm32f4xx_tim.c ****   * @retval None
 542:libs/STM32F4xx_StdPeriph_Driver/src/stm32f4xx_tim.c ****   */
 543:libs/STM32F4xx_StdPeriph_Driver/src/stm32f4xx_tim.c **** void TIM_SelectOnePulseMode(TIM_TypeDef* TIMx, uint16_t TIM_OPMode)
 544:libs/STM32F4xx_StdPeriph_Driver/src/stm32f4xx_tim.c **** {
 906              		.loc 1 544 0
 907              		.cfi_startproc
 908              		@ args = 0, pretend = 0, frame = 8
 909              		@ frame_needed = 1, uses_anonymous_args = 0
 910              		@ link register save eliminated.
 911 0000 80B4     		push	{r7}
 912              	.LCFI36:
 913              		.cfi_def_cfa_offset 4
 914              		.cfi_offset 7, -4
 915 0002 83B0     		sub	sp, sp, #12
 916              	.LCFI37:
 917              		.cfi_def_cfa_offset 16
 918 0004 00AF     		add	r7, sp, #0
 919              	.LCFI38:
 920              		.cfi_def_cfa_register 7
 921 0006 7860     		str	r0, [r7, #4]
 922 0008 0B46     		mov	r3, r1
 923 000a 7B80     		strh	r3, [r7, #2]	@ movhi
 545:libs/STM32F4xx_StdPeriph_Driver/src/stm32f4xx_tim.c ****   /* Check the parameters */
 546:libs/STM32F4xx_StdPeriph_Driver/src/stm32f4xx_tim.c ****   assert_param(IS_TIM_ALL_PERIPH(TIMx));
 547:libs/STM32F4xx_StdPeriph_Driver/src/stm32f4xx_tim.c ****   assert_param(IS_TIM_OPM_MODE(TIM_OPMode));
 548:libs/STM32F4xx_StdPeriph_Driver/src/stm32f4xx_tim.c **** 
 549:libs/STM32F4xx_StdPeriph_Driver/src/stm32f4xx_tim.c ****   /* Reset the OPM Bit */
 550:libs/STM32F4xx_StdPeriph_Driver/src/stm32f4xx_tim.c ****   TIMx->CR1 &= (uint16_t)~TIM_CR1_OPM;
 924              		.loc 1 550 0
 925 000c 7B68     		ldr	r3, [r7, #4]
 926 000e 1B88     		ldrh	r3, [r3]	@ movhi
 927 0010 9BB2     		uxth	r3, r3
 928 0012 23F00803 		bic	r3, r3, #8
 929 0016 9AB2     		uxth	r2, r3
 930 0018 7B68     		ldr	r3, [r7, #4]
 931 001a 1A80     		strh	r2, [r3]	@ movhi
 551:libs/STM32F4xx_StdPeriph_Driver/src/stm32f4xx_tim.c **** 
 552:libs/STM32F4xx_StdPeriph_Driver/src/stm32f4xx_tim.c ****   /* Configure the OPM Mode */
 553:libs/STM32F4xx_StdPeriph_Driver/src/stm32f4xx_tim.c ****   TIMx->CR1 |= TIM_OPMode;
 932              		.loc 1 553 0
 933 001c 7B68     		ldr	r3, [r7, #4]
 934 001e 1B88     		ldrh	r3, [r3]	@ movhi
 935 0020 9AB2     		uxth	r2, r3
 936 0022 7B88     		ldrh	r3, [r7, #2]	@ movhi
 937 0024 1343     		orrs	r3, r3, r2
 938 0026 9AB2     		uxth	r2, r3
 939 0028 7B68     		ldr	r3, [r7, #4]
 940 002a 1A80     		strh	r2, [r3]	@ movhi
 554:libs/STM32F4xx_StdPeriph_Driver/src/stm32f4xx_tim.c **** }
 941              		.loc 1 554 0
 942 002c 0C37     		adds	r7, r7, #12
 943 002e BD46     		mov	sp, r7
 944              		@ sp needed
 945 0030 5DF8047B 		ldr	r7, [sp], #4
 946 0034 7047     		bx	lr
 947              		.cfi_endproc
 948              	.LFE122:
 950 0036 00BF     		.section	.text.TIM_SetClockDivision,"ax",%progbits
 951              		.align	2
 952              		.global	TIM_SetClockDivision
 953              		.thumb
 954              		.thumb_func
 956              	TIM_SetClockDivision:
 957              	.LFB123:
 555:libs/STM32F4xx_StdPeriph_Driver/src/stm32f4xx_tim.c **** 
 556:libs/STM32F4xx_StdPeriph_Driver/src/stm32f4xx_tim.c **** /**
 557:libs/STM32F4xx_StdPeriph_Driver/src/stm32f4xx_tim.c ****   * @brief  Sets the TIMx Clock Division value.
 558:libs/STM32F4xx_StdPeriph_Driver/src/stm32f4xx_tim.c ****   * @param  TIMx: where x can be 1 to 14 except 6 and 7, to select the TIM peripheral.
 559:libs/STM32F4xx_StdPeriph_Driver/src/stm32f4xx_tim.c ****   * @param  TIM_CKD: specifies the clock division value.
 560:libs/STM32F4xx_StdPeriph_Driver/src/stm32f4xx_tim.c ****   *          This parameter can be one of the following value:
 561:libs/STM32F4xx_StdPeriph_Driver/src/stm32f4xx_tim.c ****   *            @arg TIM_CKD_DIV1: TDTS = Tck_tim
 562:libs/STM32F4xx_StdPeriph_Driver/src/stm32f4xx_tim.c ****   *            @arg TIM_CKD_DIV2: TDTS = 2*Tck_tim
 563:libs/STM32F4xx_StdPeriph_Driver/src/stm32f4xx_tim.c ****   *            @arg TIM_CKD_DIV4: TDTS = 4*Tck_tim
 564:libs/STM32F4xx_StdPeriph_Driver/src/stm32f4xx_tim.c ****   * @retval None
 565:libs/STM32F4xx_StdPeriph_Driver/src/stm32f4xx_tim.c ****   */
 566:libs/STM32F4xx_StdPeriph_Driver/src/stm32f4xx_tim.c **** void TIM_SetClockDivision(TIM_TypeDef* TIMx, uint16_t TIM_CKD)
 567:libs/STM32F4xx_StdPeriph_Driver/src/stm32f4xx_tim.c **** {
 958              		.loc 1 567 0
 959              		.cfi_startproc
 960              		@ args = 0, pretend = 0, frame = 8
 961              		@ frame_needed = 1, uses_anonymous_args = 0
 962              		@ link register save eliminated.
 963 0000 80B4     		push	{r7}
 964              	.LCFI39:
 965              		.cfi_def_cfa_offset 4
 966              		.cfi_offset 7, -4
 967 0002 83B0     		sub	sp, sp, #12
 968              	.LCFI40:
 969              		.cfi_def_cfa_offset 16
 970 0004 00AF     		add	r7, sp, #0
 971              	.LCFI41:
 972              		.cfi_def_cfa_register 7
 973 0006 7860     		str	r0, [r7, #4]
 974 0008 0B46     		mov	r3, r1
 975 000a 7B80     		strh	r3, [r7, #2]	@ movhi
 568:libs/STM32F4xx_StdPeriph_Driver/src/stm32f4xx_tim.c ****   /* Check the parameters */
 569:libs/STM32F4xx_StdPeriph_Driver/src/stm32f4xx_tim.c ****   assert_param(IS_TIM_LIST1_PERIPH(TIMx));
 570:libs/STM32F4xx_StdPeriph_Driver/src/stm32f4xx_tim.c ****   assert_param(IS_TIM_CKD_DIV(TIM_CKD));
 571:libs/STM32F4xx_StdPeriph_Driver/src/stm32f4xx_tim.c **** 
 572:libs/STM32F4xx_StdPeriph_Driver/src/stm32f4xx_tim.c ****   /* Reset the CKD Bits */
 573:libs/STM32F4xx_StdPeriph_Driver/src/stm32f4xx_tim.c ****   TIMx->CR1 &= (uint16_t)(~TIM_CR1_CKD);
 976              		.loc 1 573 0
 977 000c 7B68     		ldr	r3, [r7, #4]
 978 000e 1B88     		ldrh	r3, [r3]	@ movhi
 979 0010 9BB2     		uxth	r3, r3
 980 0012 23F44073 		bic	r3, r3, #768
 981 0016 9AB2     		uxth	r2, r3
 982 0018 7B68     		ldr	r3, [r7, #4]
 983 001a 1A80     		strh	r2, [r3]	@ movhi
 574:libs/STM32F4xx_StdPeriph_Driver/src/stm32f4xx_tim.c **** 
 575:libs/STM32F4xx_StdPeriph_Driver/src/stm32f4xx_tim.c ****   /* Set the CKD value */
 576:libs/STM32F4xx_StdPeriph_Driver/src/stm32f4xx_tim.c ****   TIMx->CR1 |= TIM_CKD;
 984              		.loc 1 576 0
 985 001c 7B68     		ldr	r3, [r7, #4]
 986 001e 1B88     		ldrh	r3, [r3]	@ movhi
 987 0020 9AB2     		uxth	r2, r3
 988 0022 7B88     		ldrh	r3, [r7, #2]	@ movhi
 989 0024 1343     		orrs	r3, r3, r2
 990 0026 9AB2     		uxth	r2, r3
 991 0028 7B68     		ldr	r3, [r7, #4]
 992 002a 1A80     		strh	r2, [r3]	@ movhi
 577:libs/STM32F4xx_StdPeriph_Driver/src/stm32f4xx_tim.c **** }
 993              		.loc 1 577 0
 994 002c 0C37     		adds	r7, r7, #12
 995 002e BD46     		mov	sp, r7
 996              		@ sp needed
 997 0030 5DF8047B 		ldr	r7, [sp], #4
 998 0034 7047     		bx	lr
 999              		.cfi_endproc
 1000              	.LFE123:
 1002 0036 00BF     		.section	.text.TIM_Cmd,"ax",%progbits
 1003              		.align	2
 1004              		.global	TIM_Cmd
 1005              		.thumb
 1006              		.thumb_func
 1008              	TIM_Cmd:
 1009              	.LFB124:
 578:libs/STM32F4xx_StdPeriph_Driver/src/stm32f4xx_tim.c **** 
 579:libs/STM32F4xx_StdPeriph_Driver/src/stm32f4xx_tim.c **** /**
 580:libs/STM32F4xx_StdPeriph_Driver/src/stm32f4xx_tim.c ****   * @brief  Enables or disables the specified TIM peripheral.
 581:libs/STM32F4xx_StdPeriph_Driver/src/stm32f4xx_tim.c ****   * @param  TIMx: where x can be 1 to 14 to select the TIMx peripheral.
 582:libs/STM32F4xx_StdPeriph_Driver/src/stm32f4xx_tim.c ****   * @param  NewState: new state of the TIMx peripheral.
 583:libs/STM32F4xx_StdPeriph_Driver/src/stm32f4xx_tim.c ****   *          This parameter can be: ENABLE or DISABLE.
 584:libs/STM32F4xx_StdPeriph_Driver/src/stm32f4xx_tim.c ****   * @retval None
 585:libs/STM32F4xx_StdPeriph_Driver/src/stm32f4xx_tim.c ****   */
 586:libs/STM32F4xx_StdPeriph_Driver/src/stm32f4xx_tim.c **** void TIM_Cmd(TIM_TypeDef* TIMx, FunctionalState NewState)
 587:libs/STM32F4xx_StdPeriph_Driver/src/stm32f4xx_tim.c **** {
 1010              		.loc 1 587 0
 1011              		.cfi_startproc
 1012              		@ args = 0, pretend = 0, frame = 8
 1013              		@ frame_needed = 1, uses_anonymous_args = 0
 1014              		@ link register save eliminated.
 1015 0000 80B4     		push	{r7}
 1016              	.LCFI42:
 1017              		.cfi_def_cfa_offset 4
 1018              		.cfi_offset 7, -4
 1019 0002 83B0     		sub	sp, sp, #12
 1020              	.LCFI43:
 1021              		.cfi_def_cfa_offset 16
 1022 0004 00AF     		add	r7, sp, #0
 1023              	.LCFI44:
 1024              		.cfi_def_cfa_register 7
 1025 0006 7860     		str	r0, [r7, #4]
 1026 0008 0B46     		mov	r3, r1
 1027 000a FB70     		strb	r3, [r7, #3]
 588:libs/STM32F4xx_StdPeriph_Driver/src/stm32f4xx_tim.c ****   /* Check the parameters */
 589:libs/STM32F4xx_StdPeriph_Driver/src/stm32f4xx_tim.c ****   assert_param(IS_TIM_ALL_PERIPH(TIMx)); 
 590:libs/STM32F4xx_StdPeriph_Driver/src/stm32f4xx_tim.c ****   assert_param(IS_FUNCTIONAL_STATE(NewState));
 591:libs/STM32F4xx_StdPeriph_Driver/src/stm32f4xx_tim.c ****   
 592:libs/STM32F4xx_StdPeriph_Driver/src/stm32f4xx_tim.c ****   if (NewState != DISABLE)
 1028              		.loc 1 592 0
 1029 000c FB78     		ldrb	r3, [r7, #3]	@ zero_extendqisi2
 1030 000e 002B     		cmp	r3, #0
 1031 0010 08D0     		beq	.L43
 593:libs/STM32F4xx_StdPeriph_Driver/src/stm32f4xx_tim.c ****   {
 594:libs/STM32F4xx_StdPeriph_Driver/src/stm32f4xx_tim.c ****     /* Enable the TIM Counter */
 595:libs/STM32F4xx_StdPeriph_Driver/src/stm32f4xx_tim.c ****     TIMx->CR1 |= TIM_CR1_CEN;
 1032              		.loc 1 595 0
 1033 0012 7B68     		ldr	r3, [r7, #4]
 1034 0014 1B88     		ldrh	r3, [r3]	@ movhi
 1035 0016 9BB2     		uxth	r3, r3
 1036 0018 43F00103 		orr	r3, r3, #1
 1037 001c 9AB2     		uxth	r2, r3
 1038 001e 7B68     		ldr	r3, [r7, #4]
 1039 0020 1A80     		strh	r2, [r3]	@ movhi
 1040 0022 07E0     		b	.L42
 1041              	.L43:
 596:libs/STM32F4xx_StdPeriph_Driver/src/stm32f4xx_tim.c ****   }
 597:libs/STM32F4xx_StdPeriph_Driver/src/stm32f4xx_tim.c ****   else
 598:libs/STM32F4xx_StdPeriph_Driver/src/stm32f4xx_tim.c ****   {
 599:libs/STM32F4xx_StdPeriph_Driver/src/stm32f4xx_tim.c ****     /* Disable the TIM Counter */
 600:libs/STM32F4xx_StdPeriph_Driver/src/stm32f4xx_tim.c ****     TIMx->CR1 &= (uint16_t)~TIM_CR1_CEN;
 1042              		.loc 1 600 0
 1043 0024 7B68     		ldr	r3, [r7, #4]
 1044 0026 1B88     		ldrh	r3, [r3]	@ movhi
 1045 0028 9BB2     		uxth	r3, r3
 1046 002a 23F00103 		bic	r3, r3, #1
 1047 002e 9AB2     		uxth	r2, r3
 1048 0030 7B68     		ldr	r3, [r7, #4]
 1049 0032 1A80     		strh	r2, [r3]	@ movhi
 1050              	.L42:
 601:libs/STM32F4xx_StdPeriph_Driver/src/stm32f4xx_tim.c ****   }
 602:libs/STM32F4xx_StdPeriph_Driver/src/stm32f4xx_tim.c **** }
 1051              		.loc 1 602 0
 1052 0034 0C37     		adds	r7, r7, #12
 1053 0036 BD46     		mov	sp, r7
 1054              		@ sp needed
 1055 0038 5DF8047B 		ldr	r7, [sp], #4
 1056 003c 7047     		bx	lr
 1057              		.cfi_endproc
 1058              	.LFE124:
 1060 003e 00BF     		.section	.text.TIM_OC1Init,"ax",%progbits
 1061              		.align	2
 1062              		.global	TIM_OC1Init
 1063              		.thumb
 1064              		.thumb_func
 1066              	TIM_OC1Init:
 1067              	.LFB125:
 603:libs/STM32F4xx_StdPeriph_Driver/src/stm32f4xx_tim.c **** /**
 604:libs/STM32F4xx_StdPeriph_Driver/src/stm32f4xx_tim.c ****   * @}
 605:libs/STM32F4xx_StdPeriph_Driver/src/stm32f4xx_tim.c ****   */
 606:libs/STM32F4xx_StdPeriph_Driver/src/stm32f4xx_tim.c **** 
 607:libs/STM32F4xx_StdPeriph_Driver/src/stm32f4xx_tim.c **** /** @defgroup TIM_Group2 Output Compare management functions
 608:libs/STM32F4xx_StdPeriph_Driver/src/stm32f4xx_tim.c ****  *  @brief    Output Compare management functions 
 609:libs/STM32F4xx_StdPeriph_Driver/src/stm32f4xx_tim.c ****  *
 610:libs/STM32F4xx_StdPeriph_Driver/src/stm32f4xx_tim.c **** @verbatim   
 611:libs/STM32F4xx_StdPeriph_Driver/src/stm32f4xx_tim.c ****  ===============================================================================
 612:libs/STM32F4xx_StdPeriph_Driver/src/stm32f4xx_tim.c ****                         Output Compare management functions
 613:libs/STM32F4xx_StdPeriph_Driver/src/stm32f4xx_tim.c ****  ===============================================================================  
 614:libs/STM32F4xx_StdPeriph_Driver/src/stm32f4xx_tim.c ****    
 615:libs/STM32F4xx_StdPeriph_Driver/src/stm32f4xx_tim.c ****        ===================================================================      
 616:libs/STM32F4xx_StdPeriph_Driver/src/stm32f4xx_tim.c ****               TIM Driver: how to use it in Output Compare Mode
 617:libs/STM32F4xx_StdPeriph_Driver/src/stm32f4xx_tim.c ****        =================================================================== 
 618:libs/STM32F4xx_StdPeriph_Driver/src/stm32f4xx_tim.c ****        To use the Timer in Output Compare mode, the following steps are mandatory:
 619:libs/STM32F4xx_StdPeriph_Driver/src/stm32f4xx_tim.c ****        
 620:libs/STM32F4xx_StdPeriph_Driver/src/stm32f4xx_tim.c ****        1. Enable TIM clock using RCC_APBxPeriphClockCmd(RCC_APBxPeriph_TIMx, ENABLE) function
 621:libs/STM32F4xx_StdPeriph_Driver/src/stm32f4xx_tim.c ****        
 622:libs/STM32F4xx_StdPeriph_Driver/src/stm32f4xx_tim.c ****        2. Configure the TIM pins by configuring the corresponding GPIO pins
 623:libs/STM32F4xx_StdPeriph_Driver/src/stm32f4xx_tim.c ****        
 624:libs/STM32F4xx_StdPeriph_Driver/src/stm32f4xx_tim.c ****        2. Configure the Time base unit as described in the first part of this driver, 
 625:libs/STM32F4xx_StdPeriph_Driver/src/stm32f4xx_tim.c ****           if needed, else the Timer will run with the default configuration:
 626:libs/STM32F4xx_StdPeriph_Driver/src/stm32f4xx_tim.c ****           - Autoreload value = 0xFFFF
 627:libs/STM32F4xx_StdPeriph_Driver/src/stm32f4xx_tim.c ****           - Prescaler value = 0x0000
 628:libs/STM32F4xx_StdPeriph_Driver/src/stm32f4xx_tim.c ****           - Counter mode = Up counting
 629:libs/STM32F4xx_StdPeriph_Driver/src/stm32f4xx_tim.c ****           - Clock Division = TIM_CKD_DIV1
 630:libs/STM32F4xx_StdPeriph_Driver/src/stm32f4xx_tim.c ****           
 631:libs/STM32F4xx_StdPeriph_Driver/src/stm32f4xx_tim.c ****        3. Fill the TIM_OCInitStruct with the desired parameters including:
 632:libs/STM32F4xx_StdPeriph_Driver/src/stm32f4xx_tim.c ****           - The TIM Output Compare mode: TIM_OCMode
 633:libs/STM32F4xx_StdPeriph_Driver/src/stm32f4xx_tim.c ****           - TIM Output State: TIM_OutputState
 634:libs/STM32F4xx_StdPeriph_Driver/src/stm32f4xx_tim.c ****           - TIM Pulse value: TIM_Pulse
 635:libs/STM32F4xx_StdPeriph_Driver/src/stm32f4xx_tim.c ****           - TIM Output Compare Polarity : TIM_OCPolarity
 636:libs/STM32F4xx_StdPeriph_Driver/src/stm32f4xx_tim.c ****        
 637:libs/STM32F4xx_StdPeriph_Driver/src/stm32f4xx_tim.c ****        4. Call TIM_OCxInit(TIMx, &TIM_OCInitStruct) to configure the desired channel with the 
 638:libs/STM32F4xx_StdPeriph_Driver/src/stm32f4xx_tim.c ****           corresponding configuration
 639:libs/STM32F4xx_StdPeriph_Driver/src/stm32f4xx_tim.c ****        
 640:libs/STM32F4xx_StdPeriph_Driver/src/stm32f4xx_tim.c ****        5. Call the TIM_Cmd(ENABLE) function to enable the TIM counter.
 641:libs/STM32F4xx_StdPeriph_Driver/src/stm32f4xx_tim.c ****        
 642:libs/STM32F4xx_StdPeriph_Driver/src/stm32f4xx_tim.c ****        Note1: All other functions can be used separately to modify, if needed,
 643:libs/STM32F4xx_StdPeriph_Driver/src/stm32f4xx_tim.c ****               a specific feature of the Timer. 
 644:libs/STM32F4xx_StdPeriph_Driver/src/stm32f4xx_tim.c ****           
 645:libs/STM32F4xx_StdPeriph_Driver/src/stm32f4xx_tim.c ****        Note2: In case of PWM mode, this function is mandatory:
 646:libs/STM32F4xx_StdPeriph_Driver/src/stm32f4xx_tim.c ****               TIM_OCxPreloadConfig(TIMx, TIM_OCPreload_ENABLE); 
 647:libs/STM32F4xx_StdPeriph_Driver/src/stm32f4xx_tim.c ****               
 648:libs/STM32F4xx_StdPeriph_Driver/src/stm32f4xx_tim.c ****        Note3: If the corresponding interrupt or DMA request are needed, the user should:
 649:libs/STM32F4xx_StdPeriph_Driver/src/stm32f4xx_tim.c ****                 1. Enable the NVIC (or the DMA) to use the TIM interrupts (or DMA requests). 
 650:libs/STM32F4xx_StdPeriph_Driver/src/stm32f4xx_tim.c ****                 2. Enable the corresponding interrupt (or DMA request) using the function 
 651:libs/STM32F4xx_StdPeriph_Driver/src/stm32f4xx_tim.c ****                    TIM_ITConfig(TIMx, TIM_IT_CCx) (or TIM_DMA_Cmd(TIMx, TIM_DMA_CCx))   
 652:libs/STM32F4xx_StdPeriph_Driver/src/stm32f4xx_tim.c **** 
 653:libs/STM32F4xx_StdPeriph_Driver/src/stm32f4xx_tim.c **** @endverbatim
 654:libs/STM32F4xx_StdPeriph_Driver/src/stm32f4xx_tim.c ****   * @{
 655:libs/STM32F4xx_StdPeriph_Driver/src/stm32f4xx_tim.c ****   */
 656:libs/STM32F4xx_StdPeriph_Driver/src/stm32f4xx_tim.c **** 
 657:libs/STM32F4xx_StdPeriph_Driver/src/stm32f4xx_tim.c **** /**
 658:libs/STM32F4xx_StdPeriph_Driver/src/stm32f4xx_tim.c ****   * @brief  Initializes the TIMx Channel1 according to the specified parameters in
 659:libs/STM32F4xx_StdPeriph_Driver/src/stm32f4xx_tim.c ****   *         the TIM_OCInitStruct.
 660:libs/STM32F4xx_StdPeriph_Driver/src/stm32f4xx_tim.c ****   * @param  TIMx: where x can be 1 to 14 except 6 and 7, to select the TIM peripheral.
 661:libs/STM32F4xx_StdPeriph_Driver/src/stm32f4xx_tim.c ****   * @param  TIM_OCInitStruct: pointer to a TIM_OCInitTypeDef structure that contains
 662:libs/STM32F4xx_StdPeriph_Driver/src/stm32f4xx_tim.c ****   *         the configuration information for the specified TIM peripheral.
 663:libs/STM32F4xx_StdPeriph_Driver/src/stm32f4xx_tim.c ****   * @retval None
 664:libs/STM32F4xx_StdPeriph_Driver/src/stm32f4xx_tim.c ****   */
 665:libs/STM32F4xx_StdPeriph_Driver/src/stm32f4xx_tim.c **** void TIM_OC1Init(TIM_TypeDef* TIMx, TIM_OCInitTypeDef* TIM_OCInitStruct)
 666:libs/STM32F4xx_StdPeriph_Driver/src/stm32f4xx_tim.c **** {
 1068              		.loc 1 666 0
 1069              		.cfi_startproc
 1070              		@ args = 0, pretend = 0, frame = 16
 1071              		@ frame_needed = 1, uses_anonymous_args = 0
 1072              		@ link register save eliminated.
 1073 0000 80B4     		push	{r7}
 1074              	.LCFI45:
 1075              		.cfi_def_cfa_offset 4
 1076              		.cfi_offset 7, -4
 1077 0002 85B0     		sub	sp, sp, #20
 1078              	.LCFI46:
 1079              		.cfi_def_cfa_offset 24
 1080 0004 00AF     		add	r7, sp, #0
 1081              	.LCFI47:
 1082              		.cfi_def_cfa_register 7
 1083 0006 7860     		str	r0, [r7, #4]
 1084 0008 3960     		str	r1, [r7]
 667:libs/STM32F4xx_StdPeriph_Driver/src/stm32f4xx_tim.c ****   uint16_t tmpccmrx = 0, tmpccer = 0, tmpcr2 = 0;
 1085              		.loc 1 667 0
 1086 000a 0023     		movs	r3, #0
 1087 000c 7B81     		strh	r3, [r7, #10]	@ movhi
 1088 000e 0023     		movs	r3, #0
 1089 0010 FB81     		strh	r3, [r7, #14]	@ movhi
 1090 0012 0023     		movs	r3, #0
 1091 0014 BB81     		strh	r3, [r7, #12]	@ movhi
 668:libs/STM32F4xx_StdPeriph_Driver/src/stm32f4xx_tim.c ****    
 669:libs/STM32F4xx_StdPeriph_Driver/src/stm32f4xx_tim.c ****   /* Check the parameters */
 670:libs/STM32F4xx_StdPeriph_Driver/src/stm32f4xx_tim.c ****   assert_param(IS_TIM_LIST1_PERIPH(TIMx)); 
 671:libs/STM32F4xx_StdPeriph_Driver/src/stm32f4xx_tim.c ****   assert_param(IS_TIM_OC_MODE(TIM_OCInitStruct->TIM_OCMode));
 672:libs/STM32F4xx_StdPeriph_Driver/src/stm32f4xx_tim.c ****   assert_param(IS_TIM_OUTPUT_STATE(TIM_OCInitStruct->TIM_OutputState));
 673:libs/STM32F4xx_StdPeriph_Driver/src/stm32f4xx_tim.c ****   assert_param(IS_TIM_OC_POLARITY(TIM_OCInitStruct->TIM_OCPolarity));   
 674:libs/STM32F4xx_StdPeriph_Driver/src/stm32f4xx_tim.c **** 
 675:libs/STM32F4xx_StdPeriph_Driver/src/stm32f4xx_tim.c ****   /* Disable the Channel 1: Reset the CC1E Bit */
 676:libs/STM32F4xx_StdPeriph_Driver/src/stm32f4xx_tim.c ****   TIMx->CCER &= (uint16_t)~TIM_CCER_CC1E;
 1092              		.loc 1 676 0
 1093 0016 7B68     		ldr	r3, [r7, #4]
 1094 0018 1B8C     		ldrh	r3, [r3, #32]	@ movhi
 1095 001a 9BB2     		uxth	r3, r3
 1096 001c 23F00103 		bic	r3, r3, #1
 1097 0020 9AB2     		uxth	r2, r3
 1098 0022 7B68     		ldr	r3, [r7, #4]
 1099 0024 1A84     		strh	r2, [r3, #32]	@ movhi
 677:libs/STM32F4xx_StdPeriph_Driver/src/stm32f4xx_tim.c ****   
 678:libs/STM32F4xx_StdPeriph_Driver/src/stm32f4xx_tim.c ****   /* Get the TIMx CCER register value */
 679:libs/STM32F4xx_StdPeriph_Driver/src/stm32f4xx_tim.c ****   tmpccer = TIMx->CCER;
 1100              		.loc 1 679 0
 1101 0026 7B68     		ldr	r3, [r7, #4]
 1102 0028 1B8C     		ldrh	r3, [r3, #32]	@ movhi
 1103 002a FB81     		strh	r3, [r7, #14]	@ movhi
 680:libs/STM32F4xx_StdPeriph_Driver/src/stm32f4xx_tim.c ****   /* Get the TIMx CR2 register value */
 681:libs/STM32F4xx_StdPeriph_Driver/src/stm32f4xx_tim.c ****   tmpcr2 =  TIMx->CR2;
 1104              		.loc 1 681 0
 1105 002c 7B68     		ldr	r3, [r7, #4]
 1106 002e 9B88     		ldrh	r3, [r3, #4]	@ movhi
 1107 0030 BB81     		strh	r3, [r7, #12]	@ movhi
 682:libs/STM32F4xx_StdPeriph_Driver/src/stm32f4xx_tim.c ****   
 683:libs/STM32F4xx_StdPeriph_Driver/src/stm32f4xx_tim.c ****   /* Get the TIMx CCMR1 register value */
 684:libs/STM32F4xx_StdPeriph_Driver/src/stm32f4xx_tim.c ****   tmpccmrx = TIMx->CCMR1;
 1108              		.loc 1 684 0
 1109 0032 7B68     		ldr	r3, [r7, #4]
 1110 0034 1B8B     		ldrh	r3, [r3, #24]	@ movhi
 1111 0036 7B81     		strh	r3, [r7, #10]	@ movhi
 685:libs/STM32F4xx_StdPeriph_Driver/src/stm32f4xx_tim.c ****     
 686:libs/STM32F4xx_StdPeriph_Driver/src/stm32f4xx_tim.c ****   /* Reset the Output Compare Mode Bits */
 687:libs/STM32F4xx_StdPeriph_Driver/src/stm32f4xx_tim.c ****   tmpccmrx &= (uint16_t)~TIM_CCMR1_OC1M;
 1112              		.loc 1 687 0
 1113 0038 7B89     		ldrh	r3, [r7, #10]	@ movhi
 1114 003a 23F07003 		bic	r3, r3, #112
 1115 003e 7B81     		strh	r3, [r7, #10]	@ movhi
 688:libs/STM32F4xx_StdPeriph_Driver/src/stm32f4xx_tim.c ****   tmpccmrx &= (uint16_t)~TIM_CCMR1_CC1S;
 1116              		.loc 1 688 0
 1117 0040 7B89     		ldrh	r3, [r7, #10]	@ movhi
 1118 0042 23F00303 		bic	r3, r3, #3
 1119 0046 7B81     		strh	r3, [r7, #10]	@ movhi
 689:libs/STM32F4xx_StdPeriph_Driver/src/stm32f4xx_tim.c ****   /* Select the Output Compare Mode */
 690:libs/STM32F4xx_StdPeriph_Driver/src/stm32f4xx_tim.c ****   tmpccmrx |= TIM_OCInitStruct->TIM_OCMode;
 1120              		.loc 1 690 0
 1121 0048 3B68     		ldr	r3, [r7]
 1122 004a 1A88     		ldrh	r2, [r3]
 1123 004c 7B89     		ldrh	r3, [r7, #10]	@ movhi
 1124 004e 1343     		orrs	r3, r3, r2
 1125 0050 7B81     		strh	r3, [r7, #10]	@ movhi
 691:libs/STM32F4xx_StdPeriph_Driver/src/stm32f4xx_tim.c ****   
 692:libs/STM32F4xx_StdPeriph_Driver/src/stm32f4xx_tim.c ****   /* Reset the Output Polarity level */
 693:libs/STM32F4xx_StdPeriph_Driver/src/stm32f4xx_tim.c ****   tmpccer &= (uint16_t)~TIM_CCER_CC1P;
 1126              		.loc 1 693 0
 1127 0052 FB89     		ldrh	r3, [r7, #14]	@ movhi
 1128 0054 23F00203 		bic	r3, r3, #2
 1129 0058 FB81     		strh	r3, [r7, #14]	@ movhi
 694:libs/STM32F4xx_StdPeriph_Driver/src/stm32f4xx_tim.c ****   /* Set the Output Compare Polarity */
 695:libs/STM32F4xx_StdPeriph_Driver/src/stm32f4xx_tim.c ****   tmpccer |= TIM_OCInitStruct->TIM_OCPolarity;
 1130              		.loc 1 695 0
 1131 005a 3B68     		ldr	r3, [r7]
 1132 005c 9A89     		ldrh	r2, [r3, #12]
 1133 005e FB89     		ldrh	r3, [r7, #14]	@ movhi
 1134 0060 1343     		orrs	r3, r3, r2
 1135 0062 FB81     		strh	r3, [r7, #14]	@ movhi
 696:libs/STM32F4xx_StdPeriph_Driver/src/stm32f4xx_tim.c ****   
 697:libs/STM32F4xx_StdPeriph_Driver/src/stm32f4xx_tim.c ****   /* Set the Output State */
 698:libs/STM32F4xx_StdPeriph_Driver/src/stm32f4xx_tim.c ****   tmpccer |= TIM_OCInitStruct->TIM_OutputState;
 1136              		.loc 1 698 0
 1137 0064 3B68     		ldr	r3, [r7]
 1138 0066 5A88     		ldrh	r2, [r3, #2]
 1139 0068 FB89     		ldrh	r3, [r7, #14]	@ movhi
 1140 006a 1343     		orrs	r3, r3, r2
 1141 006c FB81     		strh	r3, [r7, #14]	@ movhi
 699:libs/STM32F4xx_StdPeriph_Driver/src/stm32f4xx_tim.c ****     
 700:libs/STM32F4xx_StdPeriph_Driver/src/stm32f4xx_tim.c ****   if((TIMx == TIM1) || (TIMx == TIM8))
 1142              		.loc 1 700 0
 1143 006e 7A68     		ldr	r2, [r7, #4]
 1144 0070 0023     		movs	r3, #0
 1145 0072 C4F20103 		movt	r3, 16385
 1146 0076 9A42     		cmp	r2, r3
 1147 0078 06D0     		beq	.L46
 1148              		.loc 1 700 0 is_stmt 0 discriminator 1
 1149 007a 7A68     		ldr	r2, [r7, #4]
 1150 007c 4FF48063 		mov	r3, #1024
 1151 0080 C4F20103 		movt	r3, 16385
 1152 0084 9A42     		cmp	r2, r3
 1153 0086 23D1     		bne	.L47
 1154              	.L46:
 701:libs/STM32F4xx_StdPeriph_Driver/src/stm32f4xx_tim.c ****   {
 702:libs/STM32F4xx_StdPeriph_Driver/src/stm32f4xx_tim.c ****     assert_param(IS_TIM_OUTPUTN_STATE(TIM_OCInitStruct->TIM_OutputNState));
 703:libs/STM32F4xx_StdPeriph_Driver/src/stm32f4xx_tim.c ****     assert_param(IS_TIM_OCN_POLARITY(TIM_OCInitStruct->TIM_OCNPolarity));
 704:libs/STM32F4xx_StdPeriph_Driver/src/stm32f4xx_tim.c ****     assert_param(IS_TIM_OCNIDLE_STATE(TIM_OCInitStruct->TIM_OCNIdleState));
 705:libs/STM32F4xx_StdPeriph_Driver/src/stm32f4xx_tim.c ****     assert_param(IS_TIM_OCIDLE_STATE(TIM_OCInitStruct->TIM_OCIdleState));
 706:libs/STM32F4xx_StdPeriph_Driver/src/stm32f4xx_tim.c ****     
 707:libs/STM32F4xx_StdPeriph_Driver/src/stm32f4xx_tim.c ****     /* Reset the Output N Polarity level */
 708:libs/STM32F4xx_StdPeriph_Driver/src/stm32f4xx_tim.c ****     tmpccer &= (uint16_t)~TIM_CCER_CC1NP;
 1155              		.loc 1 708 0 is_stmt 1
 1156 0088 FB89     		ldrh	r3, [r7, #14]	@ movhi
 1157 008a 23F00803 		bic	r3, r3, #8
 1158 008e FB81     		strh	r3, [r7, #14]	@ movhi
 709:libs/STM32F4xx_StdPeriph_Driver/src/stm32f4xx_tim.c ****     /* Set the Output N Polarity */
 710:libs/STM32F4xx_StdPeriph_Driver/src/stm32f4xx_tim.c ****     tmpccer |= TIM_OCInitStruct->TIM_OCNPolarity;
 1159              		.loc 1 710 0
 1160 0090 3B68     		ldr	r3, [r7]
 1161 0092 DA89     		ldrh	r2, [r3, #14]
 1162 0094 FB89     		ldrh	r3, [r7, #14]	@ movhi
 1163 0096 1343     		orrs	r3, r3, r2
 1164 0098 FB81     		strh	r3, [r7, #14]	@ movhi
 711:libs/STM32F4xx_StdPeriph_Driver/src/stm32f4xx_tim.c ****     /* Reset the Output N State */
 712:libs/STM32F4xx_StdPeriph_Driver/src/stm32f4xx_tim.c ****     tmpccer &= (uint16_t)~TIM_CCER_CC1NE;
 1165              		.loc 1 712 0
 1166 009a FB89     		ldrh	r3, [r7, #14]	@ movhi
 1167 009c 23F00403 		bic	r3, r3, #4
 1168 00a0 FB81     		strh	r3, [r7, #14]	@ movhi
 713:libs/STM32F4xx_StdPeriph_Driver/src/stm32f4xx_tim.c ****     
 714:libs/STM32F4xx_StdPeriph_Driver/src/stm32f4xx_tim.c ****     /* Set the Output N State */
 715:libs/STM32F4xx_StdPeriph_Driver/src/stm32f4xx_tim.c ****     tmpccer |= TIM_OCInitStruct->TIM_OutputNState;
 1169              		.loc 1 715 0
 1170 00a2 3B68     		ldr	r3, [r7]
 1171 00a4 9A88     		ldrh	r2, [r3, #4]
 1172 00a6 FB89     		ldrh	r3, [r7, #14]	@ movhi
 1173 00a8 1343     		orrs	r3, r3, r2
 1174 00aa FB81     		strh	r3, [r7, #14]	@ movhi
 716:libs/STM32F4xx_StdPeriph_Driver/src/stm32f4xx_tim.c ****     /* Reset the Output Compare and Output Compare N IDLE State */
 717:libs/STM32F4xx_StdPeriph_Driver/src/stm32f4xx_tim.c ****     tmpcr2 &= (uint16_t)~TIM_CR2_OIS1;
 1175              		.loc 1 717 0
 1176 00ac BB89     		ldrh	r3, [r7, #12]	@ movhi
 1177 00ae 23F48073 		bic	r3, r3, #256
 1178 00b2 BB81     		strh	r3, [r7, #12]	@ movhi
 718:libs/STM32F4xx_StdPeriph_Driver/src/stm32f4xx_tim.c ****     tmpcr2 &= (uint16_t)~TIM_CR2_OIS1N;
 1179              		.loc 1 718 0
 1180 00b4 BB89     		ldrh	r3, [r7, #12]	@ movhi
 1181 00b6 23F40073 		bic	r3, r3, #512
 1182 00ba BB81     		strh	r3, [r7, #12]	@ movhi
 719:libs/STM32F4xx_StdPeriph_Driver/src/stm32f4xx_tim.c ****     /* Set the Output Idle state */
 720:libs/STM32F4xx_StdPeriph_Driver/src/stm32f4xx_tim.c ****     tmpcr2 |= TIM_OCInitStruct->TIM_OCIdleState;
 1183              		.loc 1 720 0
 1184 00bc 3B68     		ldr	r3, [r7]
 1185 00be 1A8A     		ldrh	r2, [r3, #16]
 1186 00c0 BB89     		ldrh	r3, [r7, #12]	@ movhi
 1187 00c2 1343     		orrs	r3, r3, r2
 1188 00c4 BB81     		strh	r3, [r7, #12]	@ movhi
 721:libs/STM32F4xx_StdPeriph_Driver/src/stm32f4xx_tim.c ****     /* Set the Output N Idle state */
 722:libs/STM32F4xx_StdPeriph_Driver/src/stm32f4xx_tim.c ****     tmpcr2 |= TIM_OCInitStruct->TIM_OCNIdleState;
 1189              		.loc 1 722 0
 1190 00c6 3B68     		ldr	r3, [r7]
 1191 00c8 5A8A     		ldrh	r2, [r3, #18]
 1192 00ca BB89     		ldrh	r3, [r7, #12]	@ movhi
 1193 00cc 1343     		orrs	r3, r3, r2
 1194 00ce BB81     		strh	r3, [r7, #12]	@ movhi
 1195              	.L47:
 723:libs/STM32F4xx_StdPeriph_Driver/src/stm32f4xx_tim.c ****   }
 724:libs/STM32F4xx_StdPeriph_Driver/src/stm32f4xx_tim.c ****   /* Write to TIMx CR2 */
 725:libs/STM32F4xx_StdPeriph_Driver/src/stm32f4xx_tim.c ****   TIMx->CR2 = tmpcr2;
 1196              		.loc 1 725 0
 1197 00d0 7B68     		ldr	r3, [r7, #4]
 1198 00d2 BA89     		ldrh	r2, [r7, #12]	@ movhi
 1199 00d4 9A80     		strh	r2, [r3, #4]	@ movhi
 726:libs/STM32F4xx_StdPeriph_Driver/src/stm32f4xx_tim.c ****   
 727:libs/STM32F4xx_StdPeriph_Driver/src/stm32f4xx_tim.c ****   /* Write to TIMx CCMR1 */
 728:libs/STM32F4xx_StdPeriph_Driver/src/stm32f4xx_tim.c ****   TIMx->CCMR1 = tmpccmrx;
 1200              		.loc 1 728 0
 1201 00d6 7B68     		ldr	r3, [r7, #4]
 1202 00d8 7A89     		ldrh	r2, [r7, #10]	@ movhi
 1203 00da 1A83     		strh	r2, [r3, #24]	@ movhi
 729:libs/STM32F4xx_StdPeriph_Driver/src/stm32f4xx_tim.c ****   
 730:libs/STM32F4xx_StdPeriph_Driver/src/stm32f4xx_tim.c ****   /* Set the Capture Compare Register value */
 731:libs/STM32F4xx_StdPeriph_Driver/src/stm32f4xx_tim.c ****   TIMx->CCR1 = TIM_OCInitStruct->TIM_Pulse;
 1204              		.loc 1 731 0
 1205 00dc 3B68     		ldr	r3, [r7]
 1206 00de 9A68     		ldr	r2, [r3, #8]
 1207 00e0 7B68     		ldr	r3, [r7, #4]
 1208 00e2 5A63     		str	r2, [r3, #52]
 732:libs/STM32F4xx_StdPeriph_Driver/src/stm32f4xx_tim.c ****   
 733:libs/STM32F4xx_StdPeriph_Driver/src/stm32f4xx_tim.c ****   /* Write to TIMx CCER */
 734:libs/STM32F4xx_StdPeriph_Driver/src/stm32f4xx_tim.c ****   TIMx->CCER = tmpccer;
 1209              		.loc 1 734 0
 1210 00e4 7B68     		ldr	r3, [r7, #4]
 1211 00e6 FA89     		ldrh	r2, [r7, #14]	@ movhi
 1212 00e8 1A84     		strh	r2, [r3, #32]	@ movhi
 735:libs/STM32F4xx_StdPeriph_Driver/src/stm32f4xx_tim.c **** }
 1213              		.loc 1 735 0
 1214 00ea 1437     		adds	r7, r7, #20
 1215 00ec BD46     		mov	sp, r7
 1216              		@ sp needed
 1217 00ee 5DF8047B 		ldr	r7, [sp], #4
 1218 00f2 7047     		bx	lr
 1219              		.cfi_endproc
 1220              	.LFE125:
 1222              		.section	.text.TIM_OC2Init,"ax",%progbits
 1223              		.align	2
 1224              		.global	TIM_OC2Init
 1225              		.thumb
 1226              		.thumb_func
 1228              	TIM_OC2Init:
 1229              	.LFB126:
 736:libs/STM32F4xx_StdPeriph_Driver/src/stm32f4xx_tim.c **** 
 737:libs/STM32F4xx_StdPeriph_Driver/src/stm32f4xx_tim.c **** /**
 738:libs/STM32F4xx_StdPeriph_Driver/src/stm32f4xx_tim.c ****   * @brief  Initializes the TIMx Channel2 according to the specified parameters 
 739:libs/STM32F4xx_StdPeriph_Driver/src/stm32f4xx_tim.c ****   *         in the TIM_OCInitStruct.
 740:libs/STM32F4xx_StdPeriph_Driver/src/stm32f4xx_tim.c ****   * @param  TIMx: where x can be 1, 2, 3, 4, 5, 8, 9 or 12 to select the TIM 
 741:libs/STM32F4xx_StdPeriph_Driver/src/stm32f4xx_tim.c ****   *         peripheral.
 742:libs/STM32F4xx_StdPeriph_Driver/src/stm32f4xx_tim.c ****   * @param  TIM_OCInitStruct: pointer to a TIM_OCInitTypeDef structure that contains
 743:libs/STM32F4xx_StdPeriph_Driver/src/stm32f4xx_tim.c ****   *         the configuration information for the specified TIM peripheral.
 744:libs/STM32F4xx_StdPeriph_Driver/src/stm32f4xx_tim.c ****   * @retval None
 745:libs/STM32F4xx_StdPeriph_Driver/src/stm32f4xx_tim.c ****   */
 746:libs/STM32F4xx_StdPeriph_Driver/src/stm32f4xx_tim.c **** void TIM_OC2Init(TIM_TypeDef* TIMx, TIM_OCInitTypeDef* TIM_OCInitStruct)
 747:libs/STM32F4xx_StdPeriph_Driver/src/stm32f4xx_tim.c **** {
 1230              		.loc 1 747 0
 1231              		.cfi_startproc
 1232              		@ args = 0, pretend = 0, frame = 16
 1233              		@ frame_needed = 1, uses_anonymous_args = 0
 1234              		@ link register save eliminated.
 1235 0000 80B4     		push	{r7}
 1236              	.LCFI48:
 1237              		.cfi_def_cfa_offset 4
 1238              		.cfi_offset 7, -4
 1239 0002 85B0     		sub	sp, sp, #20
 1240              	.LCFI49:
 1241              		.cfi_def_cfa_offset 24
 1242 0004 00AF     		add	r7, sp, #0
 1243              	.LCFI50:
 1244              		.cfi_def_cfa_register 7
 1245 0006 7860     		str	r0, [r7, #4]
 1246 0008 3960     		str	r1, [r7]
 748:libs/STM32F4xx_StdPeriph_Driver/src/stm32f4xx_tim.c ****   uint16_t tmpccmrx = 0, tmpccer = 0, tmpcr2 = 0;
 1247              		.loc 1 748 0
 1248 000a 0023     		movs	r3, #0
 1249 000c 7B81     		strh	r3, [r7, #10]	@ movhi
 1250 000e 0023     		movs	r3, #0
 1251 0010 FB81     		strh	r3, [r7, #14]	@ movhi
 1252 0012 0023     		movs	r3, #0
 1253 0014 BB81     		strh	r3, [r7, #12]	@ movhi
 749:libs/STM32F4xx_StdPeriph_Driver/src/stm32f4xx_tim.c ****    
 750:libs/STM32F4xx_StdPeriph_Driver/src/stm32f4xx_tim.c ****   /* Check the parameters */
 751:libs/STM32F4xx_StdPeriph_Driver/src/stm32f4xx_tim.c ****   assert_param(IS_TIM_LIST2_PERIPH(TIMx)); 
 752:libs/STM32F4xx_StdPeriph_Driver/src/stm32f4xx_tim.c ****   assert_param(IS_TIM_OC_MODE(TIM_OCInitStruct->TIM_OCMode));
 753:libs/STM32F4xx_StdPeriph_Driver/src/stm32f4xx_tim.c ****   assert_param(IS_TIM_OUTPUT_STATE(TIM_OCInitStruct->TIM_OutputState));
 754:libs/STM32F4xx_StdPeriph_Driver/src/stm32f4xx_tim.c ****   assert_param(IS_TIM_OC_POLARITY(TIM_OCInitStruct->TIM_OCPolarity));   
 755:libs/STM32F4xx_StdPeriph_Driver/src/stm32f4xx_tim.c **** 
 756:libs/STM32F4xx_StdPeriph_Driver/src/stm32f4xx_tim.c ****   /* Disable the Channel 2: Reset the CC2E Bit */
 757:libs/STM32F4xx_StdPeriph_Driver/src/stm32f4xx_tim.c ****   TIMx->CCER &= (uint16_t)~TIM_CCER_CC2E;
 1254              		.loc 1 757 0
 1255 0016 7B68     		ldr	r3, [r7, #4]
 1256 0018 1B8C     		ldrh	r3, [r3, #32]	@ movhi
 1257 001a 9BB2     		uxth	r3, r3
 1258 001c 23F01003 		bic	r3, r3, #16
 1259 0020 9AB2     		uxth	r2, r3
 1260 0022 7B68     		ldr	r3, [r7, #4]
 1261 0024 1A84     		strh	r2, [r3, #32]	@ movhi
 758:libs/STM32F4xx_StdPeriph_Driver/src/stm32f4xx_tim.c ****   
 759:libs/STM32F4xx_StdPeriph_Driver/src/stm32f4xx_tim.c ****   /* Get the TIMx CCER register value */  
 760:libs/STM32F4xx_StdPeriph_Driver/src/stm32f4xx_tim.c ****   tmpccer = TIMx->CCER;
 1262              		.loc 1 760 0
 1263 0026 7B68     		ldr	r3, [r7, #4]
 1264 0028 1B8C     		ldrh	r3, [r3, #32]	@ movhi
 1265 002a FB81     		strh	r3, [r7, #14]	@ movhi
 761:libs/STM32F4xx_StdPeriph_Driver/src/stm32f4xx_tim.c ****   /* Get the TIMx CR2 register value */
 762:libs/STM32F4xx_StdPeriph_Driver/src/stm32f4xx_tim.c ****   tmpcr2 =  TIMx->CR2;
 1266              		.loc 1 762 0
 1267 002c 7B68     		ldr	r3, [r7, #4]
 1268 002e 9B88     		ldrh	r3, [r3, #4]	@ movhi
 1269 0030 BB81     		strh	r3, [r7, #12]	@ movhi
 763:libs/STM32F4xx_StdPeriph_Driver/src/stm32f4xx_tim.c ****   
 764:libs/STM32F4xx_StdPeriph_Driver/src/stm32f4xx_tim.c ****   /* Get the TIMx CCMR1 register value */
 765:libs/STM32F4xx_StdPeriph_Driver/src/stm32f4xx_tim.c ****   tmpccmrx = TIMx->CCMR1;
 1270              		.loc 1 765 0
 1271 0032 7B68     		ldr	r3, [r7, #4]
 1272 0034 1B8B     		ldrh	r3, [r3, #24]	@ movhi
 1273 0036 7B81     		strh	r3, [r7, #10]	@ movhi
 766:libs/STM32F4xx_StdPeriph_Driver/src/stm32f4xx_tim.c ****     
 767:libs/STM32F4xx_StdPeriph_Driver/src/stm32f4xx_tim.c ****   /* Reset the Output Compare mode and Capture/Compare selection Bits */
 768:libs/STM32F4xx_StdPeriph_Driver/src/stm32f4xx_tim.c ****   tmpccmrx &= (uint16_t)~TIM_CCMR1_OC2M;
 1274              		.loc 1 768 0
 1275 0038 7B89     		ldrh	r3, [r7, #10]	@ movhi
 1276 003a 23F4E043 		bic	r3, r3, #28672
 1277 003e 7B81     		strh	r3, [r7, #10]	@ movhi
 769:libs/STM32F4xx_StdPeriph_Driver/src/stm32f4xx_tim.c ****   tmpccmrx &= (uint16_t)~TIM_CCMR1_CC2S;
 1278              		.loc 1 769 0
 1279 0040 7B89     		ldrh	r3, [r7, #10]	@ movhi
 1280 0042 23F44073 		bic	r3, r3, #768
 1281 0046 7B81     		strh	r3, [r7, #10]	@ movhi
 770:libs/STM32F4xx_StdPeriph_Driver/src/stm32f4xx_tim.c ****   
 771:libs/STM32F4xx_StdPeriph_Driver/src/stm32f4xx_tim.c ****   /* Select the Output Compare Mode */
 772:libs/STM32F4xx_StdPeriph_Driver/src/stm32f4xx_tim.c ****   tmpccmrx |= (uint16_t)(TIM_OCInitStruct->TIM_OCMode << 8);
 1282              		.loc 1 772 0
 1283 0048 3B68     		ldr	r3, [r7]
 1284 004a 1B88     		ldrh	r3, [r3]
 1285 004c 1B02     		lsls	r3, r3, #8
 1286 004e 9AB2     		uxth	r2, r3
 1287 0050 7B89     		ldrh	r3, [r7, #10]	@ movhi
 1288 0052 1343     		orrs	r3, r3, r2
 1289 0054 7B81     		strh	r3, [r7, #10]	@ movhi
 773:libs/STM32F4xx_StdPeriph_Driver/src/stm32f4xx_tim.c ****   
 774:libs/STM32F4xx_StdPeriph_Driver/src/stm32f4xx_tim.c ****   /* Reset the Output Polarity level */
 775:libs/STM32F4xx_StdPeriph_Driver/src/stm32f4xx_tim.c ****   tmpccer &= (uint16_t)~TIM_CCER_CC2P;
 1290              		.loc 1 775 0
 1291 0056 FB89     		ldrh	r3, [r7, #14]	@ movhi
 1292 0058 23F02003 		bic	r3, r3, #32
 1293 005c FB81     		strh	r3, [r7, #14]	@ movhi
 776:libs/STM32F4xx_StdPeriph_Driver/src/stm32f4xx_tim.c ****   /* Set the Output Compare Polarity */
 777:libs/STM32F4xx_StdPeriph_Driver/src/stm32f4xx_tim.c ****   tmpccer |= (uint16_t)(TIM_OCInitStruct->TIM_OCPolarity << 4);
 1294              		.loc 1 777 0
 1295 005e 3B68     		ldr	r3, [r7]
 1296 0060 9B89     		ldrh	r3, [r3, #12]
 1297 0062 1B01     		lsls	r3, r3, #4
 1298 0064 9AB2     		uxth	r2, r3
 1299 0066 FB89     		ldrh	r3, [r7, #14]	@ movhi
 1300 0068 1343     		orrs	r3, r3, r2
 1301 006a FB81     		strh	r3, [r7, #14]	@ movhi
 778:libs/STM32F4xx_StdPeriph_Driver/src/stm32f4xx_tim.c ****   
 779:libs/STM32F4xx_StdPeriph_Driver/src/stm32f4xx_tim.c ****   /* Set the Output State */
 780:libs/STM32F4xx_StdPeriph_Driver/src/stm32f4xx_tim.c ****   tmpccer |= (uint16_t)(TIM_OCInitStruct->TIM_OutputState << 4);
 1302              		.loc 1 780 0
 1303 006c 3B68     		ldr	r3, [r7]
 1304 006e 5B88     		ldrh	r3, [r3, #2]
 1305 0070 1B01     		lsls	r3, r3, #4
 1306 0072 9AB2     		uxth	r2, r3
 1307 0074 FB89     		ldrh	r3, [r7, #14]	@ movhi
 1308 0076 1343     		orrs	r3, r3, r2
 1309 0078 FB81     		strh	r3, [r7, #14]	@ movhi
 781:libs/STM32F4xx_StdPeriph_Driver/src/stm32f4xx_tim.c ****     
 782:libs/STM32F4xx_StdPeriph_Driver/src/stm32f4xx_tim.c ****   if((TIMx == TIM1) || (TIMx == TIM8))
 1310              		.loc 1 782 0
 1311 007a 7A68     		ldr	r2, [r7, #4]
 1312 007c 0023     		movs	r3, #0
 1313 007e C4F20103 		movt	r3, 16385
 1314 0082 9A42     		cmp	r2, r3
 1315 0084 06D0     		beq	.L49
 1316              		.loc 1 782 0 is_stmt 0 discriminator 1
 1317 0086 7A68     		ldr	r2, [r7, #4]
 1318 0088 4FF48063 		mov	r3, #1024
 1319 008c C4F20103 		movt	r3, 16385
 1320 0090 9A42     		cmp	r2, r3
 1321 0092 2BD1     		bne	.L50
 1322              	.L49:
 783:libs/STM32F4xx_StdPeriph_Driver/src/stm32f4xx_tim.c ****   {
 784:libs/STM32F4xx_StdPeriph_Driver/src/stm32f4xx_tim.c ****     assert_param(IS_TIM_OUTPUTN_STATE(TIM_OCInitStruct->TIM_OutputNState));
 785:libs/STM32F4xx_StdPeriph_Driver/src/stm32f4xx_tim.c ****     assert_param(IS_TIM_OCN_POLARITY(TIM_OCInitStruct->TIM_OCNPolarity));
 786:libs/STM32F4xx_StdPeriph_Driver/src/stm32f4xx_tim.c ****     assert_param(IS_TIM_OCNIDLE_STATE(TIM_OCInitStruct->TIM_OCNIdleState));
 787:libs/STM32F4xx_StdPeriph_Driver/src/stm32f4xx_tim.c ****     assert_param(IS_TIM_OCIDLE_STATE(TIM_OCInitStruct->TIM_OCIdleState));
 788:libs/STM32F4xx_StdPeriph_Driver/src/stm32f4xx_tim.c ****     
 789:libs/STM32F4xx_StdPeriph_Driver/src/stm32f4xx_tim.c ****     /* Reset the Output N Polarity level */
 790:libs/STM32F4xx_StdPeriph_Driver/src/stm32f4xx_tim.c ****     tmpccer &= (uint16_t)~TIM_CCER_CC2NP;
 1323              		.loc 1 790 0 is_stmt 1
 1324 0094 FB89     		ldrh	r3, [r7, #14]	@ movhi
 1325 0096 23F08003 		bic	r3, r3, #128
 1326 009a FB81     		strh	r3, [r7, #14]	@ movhi
 791:libs/STM32F4xx_StdPeriph_Driver/src/stm32f4xx_tim.c ****     /* Set the Output N Polarity */
 792:libs/STM32F4xx_StdPeriph_Driver/src/stm32f4xx_tim.c ****     tmpccer |= (uint16_t)(TIM_OCInitStruct->TIM_OCNPolarity << 4);
 1327              		.loc 1 792 0
 1328 009c 3B68     		ldr	r3, [r7]
 1329 009e DB89     		ldrh	r3, [r3, #14]
 1330 00a0 1B01     		lsls	r3, r3, #4
 1331 00a2 9AB2     		uxth	r2, r3
 1332 00a4 FB89     		ldrh	r3, [r7, #14]	@ movhi
 1333 00a6 1343     		orrs	r3, r3, r2
 1334 00a8 FB81     		strh	r3, [r7, #14]	@ movhi
 793:libs/STM32F4xx_StdPeriph_Driver/src/stm32f4xx_tim.c ****     /* Reset the Output N State */
 794:libs/STM32F4xx_StdPeriph_Driver/src/stm32f4xx_tim.c ****     tmpccer &= (uint16_t)~TIM_CCER_CC2NE;
 1335              		.loc 1 794 0
 1336 00aa FB89     		ldrh	r3, [r7, #14]	@ movhi
 1337 00ac 23F04003 		bic	r3, r3, #64
 1338 00b0 FB81     		strh	r3, [r7, #14]	@ movhi
 795:libs/STM32F4xx_StdPeriph_Driver/src/stm32f4xx_tim.c ****     
 796:libs/STM32F4xx_StdPeriph_Driver/src/stm32f4xx_tim.c ****     /* Set the Output N State */
 797:libs/STM32F4xx_StdPeriph_Driver/src/stm32f4xx_tim.c ****     tmpccer |= (uint16_t)(TIM_OCInitStruct->TIM_OutputNState << 4);
 1339              		.loc 1 797 0
 1340 00b2 3B68     		ldr	r3, [r7]
 1341 00b4 9B88     		ldrh	r3, [r3, #4]
 1342 00b6 1B01     		lsls	r3, r3, #4
 1343 00b8 9AB2     		uxth	r2, r3
 1344 00ba FB89     		ldrh	r3, [r7, #14]	@ movhi
 1345 00bc 1343     		orrs	r3, r3, r2
 1346 00be FB81     		strh	r3, [r7, #14]	@ movhi
 798:libs/STM32F4xx_StdPeriph_Driver/src/stm32f4xx_tim.c ****     /* Reset the Output Compare and Output Compare N IDLE State */
 799:libs/STM32F4xx_StdPeriph_Driver/src/stm32f4xx_tim.c ****     tmpcr2 &= (uint16_t)~TIM_CR2_OIS2;
 1347              		.loc 1 799 0
 1348 00c0 BB89     		ldrh	r3, [r7, #12]	@ movhi
 1349 00c2 23F48063 		bic	r3, r3, #1024
 1350 00c6 BB81     		strh	r3, [r7, #12]	@ movhi
 800:libs/STM32F4xx_StdPeriph_Driver/src/stm32f4xx_tim.c ****     tmpcr2 &= (uint16_t)~TIM_CR2_OIS2N;
 1351              		.loc 1 800 0
 1352 00c8 BB89     		ldrh	r3, [r7, #12]	@ movhi
 1353 00ca 23F40063 		bic	r3, r3, #2048
 1354 00ce BB81     		strh	r3, [r7, #12]	@ movhi
 801:libs/STM32F4xx_StdPeriph_Driver/src/stm32f4xx_tim.c ****     /* Set the Output Idle state */
 802:libs/STM32F4xx_StdPeriph_Driver/src/stm32f4xx_tim.c ****     tmpcr2 |= (uint16_t)(TIM_OCInitStruct->TIM_OCIdleState << 2);
 1355              		.loc 1 802 0
 1356 00d0 3B68     		ldr	r3, [r7]
 1357 00d2 1B8A     		ldrh	r3, [r3, #16]
 1358 00d4 9B00     		lsls	r3, r3, #2
 1359 00d6 9AB2     		uxth	r2, r3
 1360 00d8 BB89     		ldrh	r3, [r7, #12]	@ movhi
 1361 00da 1343     		orrs	r3, r3, r2
 1362 00dc BB81     		strh	r3, [r7, #12]	@ movhi
 803:libs/STM32F4xx_StdPeriph_Driver/src/stm32f4xx_tim.c ****     /* Set the Output N Idle state */
 804:libs/STM32F4xx_StdPeriph_Driver/src/stm32f4xx_tim.c ****     tmpcr2 |= (uint16_t)(TIM_OCInitStruct->TIM_OCNIdleState << 2);
 1363              		.loc 1 804 0
 1364 00de 3B68     		ldr	r3, [r7]
 1365 00e0 5B8A     		ldrh	r3, [r3, #18]
 1366 00e2 9B00     		lsls	r3, r3, #2
 1367 00e4 9AB2     		uxth	r2, r3
 1368 00e6 BB89     		ldrh	r3, [r7, #12]	@ movhi
 1369 00e8 1343     		orrs	r3, r3, r2
 1370 00ea BB81     		strh	r3, [r7, #12]	@ movhi
 1371              	.L50:
 805:libs/STM32F4xx_StdPeriph_Driver/src/stm32f4xx_tim.c ****   }
 806:libs/STM32F4xx_StdPeriph_Driver/src/stm32f4xx_tim.c ****   /* Write to TIMx CR2 */
 807:libs/STM32F4xx_StdPeriph_Driver/src/stm32f4xx_tim.c ****   TIMx->CR2 = tmpcr2;
 1372              		.loc 1 807 0
 1373 00ec 7B68     		ldr	r3, [r7, #4]
 1374 00ee BA89     		ldrh	r2, [r7, #12]	@ movhi
 1375 00f0 9A80     		strh	r2, [r3, #4]	@ movhi
 808:libs/STM32F4xx_StdPeriph_Driver/src/stm32f4xx_tim.c ****   
 809:libs/STM32F4xx_StdPeriph_Driver/src/stm32f4xx_tim.c ****   /* Write to TIMx CCMR1 */
 810:libs/STM32F4xx_StdPeriph_Driver/src/stm32f4xx_tim.c ****   TIMx->CCMR1 = tmpccmrx;
 1376              		.loc 1 810 0
 1377 00f2 7B68     		ldr	r3, [r7, #4]
 1378 00f4 7A89     		ldrh	r2, [r7, #10]	@ movhi
 1379 00f6 1A83     		strh	r2, [r3, #24]	@ movhi
 811:libs/STM32F4xx_StdPeriph_Driver/src/stm32f4xx_tim.c ****   
 812:libs/STM32F4xx_StdPeriph_Driver/src/stm32f4xx_tim.c ****   /* Set the Capture Compare Register value */
 813:libs/STM32F4xx_StdPeriph_Driver/src/stm32f4xx_tim.c ****   TIMx->CCR2 = TIM_OCInitStruct->TIM_Pulse;
 1380              		.loc 1 813 0
 1381 00f8 3B68     		ldr	r3, [r7]
 1382 00fa 9A68     		ldr	r2, [r3, #8]
 1383 00fc 7B68     		ldr	r3, [r7, #4]
 1384 00fe 9A63     		str	r2, [r3, #56]
 814:libs/STM32F4xx_StdPeriph_Driver/src/stm32f4xx_tim.c ****   
 815:libs/STM32F4xx_StdPeriph_Driver/src/stm32f4xx_tim.c ****   /* Write to TIMx CCER */
 816:libs/STM32F4xx_StdPeriph_Driver/src/stm32f4xx_tim.c ****   TIMx->CCER = tmpccer;
 1385              		.loc 1 816 0
 1386 0100 7B68     		ldr	r3, [r7, #4]
 1387 0102 FA89     		ldrh	r2, [r7, #14]	@ movhi
 1388 0104 1A84     		strh	r2, [r3, #32]	@ movhi
 817:libs/STM32F4xx_StdPeriph_Driver/src/stm32f4xx_tim.c **** }
 1389              		.loc 1 817 0
 1390 0106 1437     		adds	r7, r7, #20
 1391 0108 BD46     		mov	sp, r7
 1392              		@ sp needed
 1393 010a 5DF8047B 		ldr	r7, [sp], #4
 1394 010e 7047     		bx	lr
 1395              		.cfi_endproc
 1396              	.LFE126:
 1398              		.section	.text.TIM_OC3Init,"ax",%progbits
 1399              		.align	2
 1400              		.global	TIM_OC3Init
 1401              		.thumb
 1402              		.thumb_func
 1404              	TIM_OC3Init:
 1405              	.LFB127:
 818:libs/STM32F4xx_StdPeriph_Driver/src/stm32f4xx_tim.c **** 
 819:libs/STM32F4xx_StdPeriph_Driver/src/stm32f4xx_tim.c **** /**
 820:libs/STM32F4xx_StdPeriph_Driver/src/stm32f4xx_tim.c ****   * @brief  Initializes the TIMx Channel3 according to the specified parameters
 821:libs/STM32F4xx_StdPeriph_Driver/src/stm32f4xx_tim.c ****   *         in the TIM_OCInitStruct.
 822:libs/STM32F4xx_StdPeriph_Driver/src/stm32f4xx_tim.c ****   * @param  TIMx: where x can be 1, 2, 3, 4, 5 or 8 to select the TIM peripheral.
 823:libs/STM32F4xx_StdPeriph_Driver/src/stm32f4xx_tim.c ****   * @param  TIM_OCInitStruct: pointer to a TIM_OCInitTypeDef structure that contains
 824:libs/STM32F4xx_StdPeriph_Driver/src/stm32f4xx_tim.c ****   *         the configuration information for the specified TIM peripheral.
 825:libs/STM32F4xx_StdPeriph_Driver/src/stm32f4xx_tim.c ****   * @retval None
 826:libs/STM32F4xx_StdPeriph_Driver/src/stm32f4xx_tim.c ****   */
 827:libs/STM32F4xx_StdPeriph_Driver/src/stm32f4xx_tim.c **** void TIM_OC3Init(TIM_TypeDef* TIMx, TIM_OCInitTypeDef* TIM_OCInitStruct)
 828:libs/STM32F4xx_StdPeriph_Driver/src/stm32f4xx_tim.c **** {
 1406              		.loc 1 828 0
 1407              		.cfi_startproc
 1408              		@ args = 0, pretend = 0, frame = 16
 1409              		@ frame_needed = 1, uses_anonymous_args = 0
 1410              		@ link register save eliminated.
 1411 0000 80B4     		push	{r7}
 1412              	.LCFI51:
 1413              		.cfi_def_cfa_offset 4
 1414              		.cfi_offset 7, -4
 1415 0002 85B0     		sub	sp, sp, #20
 1416              	.LCFI52:
 1417              		.cfi_def_cfa_offset 24
 1418 0004 00AF     		add	r7, sp, #0
 1419              	.LCFI53:
 1420              		.cfi_def_cfa_register 7
 1421 0006 7860     		str	r0, [r7, #4]
 1422 0008 3960     		str	r1, [r7]
 829:libs/STM32F4xx_StdPeriph_Driver/src/stm32f4xx_tim.c ****   uint16_t tmpccmrx = 0, tmpccer = 0, tmpcr2 = 0;
 1423              		.loc 1 829 0
 1424 000a 0023     		movs	r3, #0
 1425 000c 7B81     		strh	r3, [r7, #10]	@ movhi
 1426 000e 0023     		movs	r3, #0
 1427 0010 FB81     		strh	r3, [r7, #14]	@ movhi
 1428 0012 0023     		movs	r3, #0
 1429 0014 BB81     		strh	r3, [r7, #12]	@ movhi
 830:libs/STM32F4xx_StdPeriph_Driver/src/stm32f4xx_tim.c ****    
 831:libs/STM32F4xx_StdPeriph_Driver/src/stm32f4xx_tim.c ****   /* Check the parameters */
 832:libs/STM32F4xx_StdPeriph_Driver/src/stm32f4xx_tim.c ****   assert_param(IS_TIM_LIST3_PERIPH(TIMx)); 
 833:libs/STM32F4xx_StdPeriph_Driver/src/stm32f4xx_tim.c ****   assert_param(IS_TIM_OC_MODE(TIM_OCInitStruct->TIM_OCMode));
 834:libs/STM32F4xx_StdPeriph_Driver/src/stm32f4xx_tim.c ****   assert_param(IS_TIM_OUTPUT_STATE(TIM_OCInitStruct->TIM_OutputState));
 835:libs/STM32F4xx_StdPeriph_Driver/src/stm32f4xx_tim.c ****   assert_param(IS_TIM_OC_POLARITY(TIM_OCInitStruct->TIM_OCPolarity));   
 836:libs/STM32F4xx_StdPeriph_Driver/src/stm32f4xx_tim.c **** 
 837:libs/STM32F4xx_StdPeriph_Driver/src/stm32f4xx_tim.c ****   /* Disable the Channel 3: Reset the CC2E Bit */
 838:libs/STM32F4xx_StdPeriph_Driver/src/stm32f4xx_tim.c ****   TIMx->CCER &= (uint16_t)~TIM_CCER_CC3E;
 1430              		.loc 1 838 0
 1431 0016 7B68     		ldr	r3, [r7, #4]
 1432 0018 1B8C     		ldrh	r3, [r3, #32]	@ movhi
 1433 001a 9BB2     		uxth	r3, r3
 1434 001c 23F48073 		bic	r3, r3, #256
 1435 0020 9AB2     		uxth	r2, r3
 1436 0022 7B68     		ldr	r3, [r7, #4]
 1437 0024 1A84     		strh	r2, [r3, #32]	@ movhi
 839:libs/STM32F4xx_StdPeriph_Driver/src/stm32f4xx_tim.c ****   
 840:libs/STM32F4xx_StdPeriph_Driver/src/stm32f4xx_tim.c ****   /* Get the TIMx CCER register value */
 841:libs/STM32F4xx_StdPeriph_Driver/src/stm32f4xx_tim.c ****   tmpccer = TIMx->CCER;
 1438              		.loc 1 841 0
 1439 0026 7B68     		ldr	r3, [r7, #4]
 1440 0028 1B8C     		ldrh	r3, [r3, #32]	@ movhi
 1441 002a FB81     		strh	r3, [r7, #14]	@ movhi
 842:libs/STM32F4xx_StdPeriph_Driver/src/stm32f4xx_tim.c ****   /* Get the TIMx CR2 register value */
 843:libs/STM32F4xx_StdPeriph_Driver/src/stm32f4xx_tim.c ****   tmpcr2 =  TIMx->CR2;
 1442              		.loc 1 843 0
 1443 002c 7B68     		ldr	r3, [r7, #4]
 1444 002e 9B88     		ldrh	r3, [r3, #4]	@ movhi
 1445 0030 BB81     		strh	r3, [r7, #12]	@ movhi
 844:libs/STM32F4xx_StdPeriph_Driver/src/stm32f4xx_tim.c ****   
 845:libs/STM32F4xx_StdPeriph_Driver/src/stm32f4xx_tim.c ****   /* Get the TIMx CCMR2 register value */
 846:libs/STM32F4xx_StdPeriph_Driver/src/stm32f4xx_tim.c ****   tmpccmrx = TIMx->CCMR2;
 1446              		.loc 1 846 0
 1447 0032 7B68     		ldr	r3, [r7, #4]
 1448 0034 9B8B     		ldrh	r3, [r3, #28]	@ movhi
 1449 0036 7B81     		strh	r3, [r7, #10]	@ movhi
 847:libs/STM32F4xx_StdPeriph_Driver/src/stm32f4xx_tim.c ****     
 848:libs/STM32F4xx_StdPeriph_Driver/src/stm32f4xx_tim.c ****   /* Reset the Output Compare mode and Capture/Compare selection Bits */
 849:libs/STM32F4xx_StdPeriph_Driver/src/stm32f4xx_tim.c ****   tmpccmrx &= (uint16_t)~TIM_CCMR2_OC3M;
 1450              		.loc 1 849 0
 1451 0038 7B89     		ldrh	r3, [r7, #10]	@ movhi
 1452 003a 23F07003 		bic	r3, r3, #112
 1453 003e 7B81     		strh	r3, [r7, #10]	@ movhi
 850:libs/STM32F4xx_StdPeriph_Driver/src/stm32f4xx_tim.c ****   tmpccmrx &= (uint16_t)~TIM_CCMR2_CC3S;  
 1454              		.loc 1 850 0
 1455 0040 7B89     		ldrh	r3, [r7, #10]	@ movhi
 1456 0042 23F00303 		bic	r3, r3, #3
 1457 0046 7B81     		strh	r3, [r7, #10]	@ movhi
 851:libs/STM32F4xx_StdPeriph_Driver/src/stm32f4xx_tim.c ****   /* Select the Output Compare Mode */
 852:libs/STM32F4xx_StdPeriph_Driver/src/stm32f4xx_tim.c ****   tmpccmrx |= TIM_OCInitStruct->TIM_OCMode;
 1458              		.loc 1 852 0
 1459 0048 3B68     		ldr	r3, [r7]
 1460 004a 1A88     		ldrh	r2, [r3]
 1461 004c 7B89     		ldrh	r3, [r7, #10]	@ movhi
 1462 004e 1343     		orrs	r3, r3, r2
 1463 0050 7B81     		strh	r3, [r7, #10]	@ movhi
 853:libs/STM32F4xx_StdPeriph_Driver/src/stm32f4xx_tim.c ****   
 854:libs/STM32F4xx_StdPeriph_Driver/src/stm32f4xx_tim.c ****   /* Reset the Output Polarity level */
 855:libs/STM32F4xx_StdPeriph_Driver/src/stm32f4xx_tim.c ****   tmpccer &= (uint16_t)~TIM_CCER_CC3P;
 1464              		.loc 1 855 0
 1465 0052 FB89     		ldrh	r3, [r7, #14]	@ movhi
 1466 0054 23F40073 		bic	r3, r3, #512
 1467 0058 FB81     		strh	r3, [r7, #14]	@ movhi
 856:libs/STM32F4xx_StdPeriph_Driver/src/stm32f4xx_tim.c ****   /* Set the Output Compare Polarity */
 857:libs/STM32F4xx_StdPeriph_Driver/src/stm32f4xx_tim.c ****   tmpccer |= (uint16_t)(TIM_OCInitStruct->TIM_OCPolarity << 8);
 1468              		.loc 1 857 0
 1469 005a 3B68     		ldr	r3, [r7]
 1470 005c 9B89     		ldrh	r3, [r3, #12]
 1471 005e 1B02     		lsls	r3, r3, #8
 1472 0060 9AB2     		uxth	r2, r3
 1473 0062 FB89     		ldrh	r3, [r7, #14]	@ movhi
 1474 0064 1343     		orrs	r3, r3, r2
 1475 0066 FB81     		strh	r3, [r7, #14]	@ movhi
 858:libs/STM32F4xx_StdPeriph_Driver/src/stm32f4xx_tim.c ****   
 859:libs/STM32F4xx_StdPeriph_Driver/src/stm32f4xx_tim.c ****   /* Set the Output State */
 860:libs/STM32F4xx_StdPeriph_Driver/src/stm32f4xx_tim.c ****   tmpccer |= (uint16_t)(TIM_OCInitStruct->TIM_OutputState << 8);
 1476              		.loc 1 860 0
 1477 0068 3B68     		ldr	r3, [r7]
 1478 006a 5B88     		ldrh	r3, [r3, #2]
 1479 006c 1B02     		lsls	r3, r3, #8
 1480 006e 9AB2     		uxth	r2, r3
 1481 0070 FB89     		ldrh	r3, [r7, #14]	@ movhi
 1482 0072 1343     		orrs	r3, r3, r2
 1483 0074 FB81     		strh	r3, [r7, #14]	@ movhi
 861:libs/STM32F4xx_StdPeriph_Driver/src/stm32f4xx_tim.c ****     
 862:libs/STM32F4xx_StdPeriph_Driver/src/stm32f4xx_tim.c ****   if((TIMx == TIM1) || (TIMx == TIM8))
 1484              		.loc 1 862 0
 1485 0076 7A68     		ldr	r2, [r7, #4]
 1486 0078 0023     		movs	r3, #0
 1487 007a C4F20103 		movt	r3, 16385
 1488 007e 9A42     		cmp	r2, r3
 1489 0080 06D0     		beq	.L52
 1490              		.loc 1 862 0 is_stmt 0 discriminator 1
 1491 0082 7A68     		ldr	r2, [r7, #4]
 1492 0084 4FF48063 		mov	r3, #1024
 1493 0088 C4F20103 		movt	r3, 16385
 1494 008c 9A42     		cmp	r2, r3
 1495 008e 2BD1     		bne	.L53
 1496              	.L52:
 863:libs/STM32F4xx_StdPeriph_Driver/src/stm32f4xx_tim.c ****   {
 864:libs/STM32F4xx_StdPeriph_Driver/src/stm32f4xx_tim.c ****     assert_param(IS_TIM_OUTPUTN_STATE(TIM_OCInitStruct->TIM_OutputNState));
 865:libs/STM32F4xx_StdPeriph_Driver/src/stm32f4xx_tim.c ****     assert_param(IS_TIM_OCN_POLARITY(TIM_OCInitStruct->TIM_OCNPolarity));
 866:libs/STM32F4xx_StdPeriph_Driver/src/stm32f4xx_tim.c ****     assert_param(IS_TIM_OCNIDLE_STATE(TIM_OCInitStruct->TIM_OCNIdleState));
 867:libs/STM32F4xx_StdPeriph_Driver/src/stm32f4xx_tim.c ****     assert_param(IS_TIM_OCIDLE_STATE(TIM_OCInitStruct->TIM_OCIdleState));
 868:libs/STM32F4xx_StdPeriph_Driver/src/stm32f4xx_tim.c ****     
 869:libs/STM32F4xx_StdPeriph_Driver/src/stm32f4xx_tim.c ****     /* Reset the Output N Polarity level */
 870:libs/STM32F4xx_StdPeriph_Driver/src/stm32f4xx_tim.c ****     tmpccer &= (uint16_t)~TIM_CCER_CC3NP;
 1497              		.loc 1 870 0 is_stmt 1
 1498 0090 FB89     		ldrh	r3, [r7, #14]	@ movhi
 1499 0092 23F40063 		bic	r3, r3, #2048
 1500 0096 FB81     		strh	r3, [r7, #14]	@ movhi
 871:libs/STM32F4xx_StdPeriph_Driver/src/stm32f4xx_tim.c ****     /* Set the Output N Polarity */
 872:libs/STM32F4xx_StdPeriph_Driver/src/stm32f4xx_tim.c ****     tmpccer |= (uint16_t)(TIM_OCInitStruct->TIM_OCNPolarity << 8);
 1501              		.loc 1 872 0
 1502 0098 3B68     		ldr	r3, [r7]
 1503 009a DB89     		ldrh	r3, [r3, #14]
 1504 009c 1B02     		lsls	r3, r3, #8
 1505 009e 9AB2     		uxth	r2, r3
 1506 00a0 FB89     		ldrh	r3, [r7, #14]	@ movhi
 1507 00a2 1343     		orrs	r3, r3, r2
 1508 00a4 FB81     		strh	r3, [r7, #14]	@ movhi
 873:libs/STM32F4xx_StdPeriph_Driver/src/stm32f4xx_tim.c ****     /* Reset the Output N State */
 874:libs/STM32F4xx_StdPeriph_Driver/src/stm32f4xx_tim.c ****     tmpccer &= (uint16_t)~TIM_CCER_CC3NE;
 1509              		.loc 1 874 0
 1510 00a6 FB89     		ldrh	r3, [r7, #14]	@ movhi
 1511 00a8 23F48063 		bic	r3, r3, #1024
 1512 00ac FB81     		strh	r3, [r7, #14]	@ movhi
 875:libs/STM32F4xx_StdPeriph_Driver/src/stm32f4xx_tim.c ****     
 876:libs/STM32F4xx_StdPeriph_Driver/src/stm32f4xx_tim.c ****     /* Set the Output N State */
 877:libs/STM32F4xx_StdPeriph_Driver/src/stm32f4xx_tim.c ****     tmpccer |= (uint16_t)(TIM_OCInitStruct->TIM_OutputNState << 8);
 1513              		.loc 1 877 0
 1514 00ae 3B68     		ldr	r3, [r7]
 1515 00b0 9B88     		ldrh	r3, [r3, #4]
 1516 00b2 1B02     		lsls	r3, r3, #8
 1517 00b4 9AB2     		uxth	r2, r3
 1518 00b6 FB89     		ldrh	r3, [r7, #14]	@ movhi
 1519 00b8 1343     		orrs	r3, r3, r2
 1520 00ba FB81     		strh	r3, [r7, #14]	@ movhi
 878:libs/STM32F4xx_StdPeriph_Driver/src/stm32f4xx_tim.c ****     /* Reset the Output Compare and Output Compare N IDLE State */
 879:libs/STM32F4xx_StdPeriph_Driver/src/stm32f4xx_tim.c ****     tmpcr2 &= (uint16_t)~TIM_CR2_OIS3;
 1521              		.loc 1 879 0
 1522 00bc BB89     		ldrh	r3, [r7, #12]	@ movhi
 1523 00be 23F48053 		bic	r3, r3, #4096
 1524 00c2 BB81     		strh	r3, [r7, #12]	@ movhi
 880:libs/STM32F4xx_StdPeriph_Driver/src/stm32f4xx_tim.c ****     tmpcr2 &= (uint16_t)~TIM_CR2_OIS3N;
 1525              		.loc 1 880 0
 1526 00c4 BB89     		ldrh	r3, [r7, #12]	@ movhi
 1527 00c6 23F40053 		bic	r3, r3, #8192
 1528 00ca BB81     		strh	r3, [r7, #12]	@ movhi
 881:libs/STM32F4xx_StdPeriph_Driver/src/stm32f4xx_tim.c ****     /* Set the Output Idle state */
 882:libs/STM32F4xx_StdPeriph_Driver/src/stm32f4xx_tim.c ****     tmpcr2 |= (uint16_t)(TIM_OCInitStruct->TIM_OCIdleState << 4);
 1529              		.loc 1 882 0
 1530 00cc 3B68     		ldr	r3, [r7]
 1531 00ce 1B8A     		ldrh	r3, [r3, #16]
 1532 00d0 1B01     		lsls	r3, r3, #4
 1533 00d2 9AB2     		uxth	r2, r3
 1534 00d4 BB89     		ldrh	r3, [r7, #12]	@ movhi
 1535 00d6 1343     		orrs	r3, r3, r2
 1536 00d8 BB81     		strh	r3, [r7, #12]	@ movhi
 883:libs/STM32F4xx_StdPeriph_Driver/src/stm32f4xx_tim.c ****     /* Set the Output N Idle state */
 884:libs/STM32F4xx_StdPeriph_Driver/src/stm32f4xx_tim.c ****     tmpcr2 |= (uint16_t)(TIM_OCInitStruct->TIM_OCNIdleState << 4);
 1537              		.loc 1 884 0
 1538 00da 3B68     		ldr	r3, [r7]
 1539 00dc 5B8A     		ldrh	r3, [r3, #18]
 1540 00de 1B01     		lsls	r3, r3, #4
 1541 00e0 9AB2     		uxth	r2, r3
 1542 00e2 BB89     		ldrh	r3, [r7, #12]	@ movhi
 1543 00e4 1343     		orrs	r3, r3, r2
 1544 00e6 BB81     		strh	r3, [r7, #12]	@ movhi
 1545              	.L53:
 885:libs/STM32F4xx_StdPeriph_Driver/src/stm32f4xx_tim.c ****   }
 886:libs/STM32F4xx_StdPeriph_Driver/src/stm32f4xx_tim.c ****   /* Write to TIMx CR2 */
 887:libs/STM32F4xx_StdPeriph_Driver/src/stm32f4xx_tim.c ****   TIMx->CR2 = tmpcr2;
 1546              		.loc 1 887 0
 1547 00e8 7B68     		ldr	r3, [r7, #4]
 1548 00ea BA89     		ldrh	r2, [r7, #12]	@ movhi
 1549 00ec 9A80     		strh	r2, [r3, #4]	@ movhi
 888:libs/STM32F4xx_StdPeriph_Driver/src/stm32f4xx_tim.c ****   
 889:libs/STM32F4xx_StdPeriph_Driver/src/stm32f4xx_tim.c ****   /* Write to TIMx CCMR2 */
 890:libs/STM32F4xx_StdPeriph_Driver/src/stm32f4xx_tim.c ****   TIMx->CCMR2 = tmpccmrx;
 1550              		.loc 1 890 0
 1551 00ee 7B68     		ldr	r3, [r7, #4]
 1552 00f0 7A89     		ldrh	r2, [r7, #10]	@ movhi
 1553 00f2 9A83     		strh	r2, [r3, #28]	@ movhi
 891:libs/STM32F4xx_StdPeriph_Driver/src/stm32f4xx_tim.c ****   
 892:libs/STM32F4xx_StdPeriph_Driver/src/stm32f4xx_tim.c ****   /* Set the Capture Compare Register value */
 893:libs/STM32F4xx_StdPeriph_Driver/src/stm32f4xx_tim.c ****   TIMx->CCR3 = TIM_OCInitStruct->TIM_Pulse;
 1554              		.loc 1 893 0
 1555 00f4 3B68     		ldr	r3, [r7]
 1556 00f6 9A68     		ldr	r2, [r3, #8]
 1557 00f8 7B68     		ldr	r3, [r7, #4]
 1558 00fa DA63     		str	r2, [r3, #60]
 894:libs/STM32F4xx_StdPeriph_Driver/src/stm32f4xx_tim.c ****   
 895:libs/STM32F4xx_StdPeriph_Driver/src/stm32f4xx_tim.c ****   /* Write to TIMx CCER */
 896:libs/STM32F4xx_StdPeriph_Driver/src/stm32f4xx_tim.c ****   TIMx->CCER = tmpccer;
 1559              		.loc 1 896 0
 1560 00fc 7B68     		ldr	r3, [r7, #4]
 1561 00fe FA89     		ldrh	r2, [r7, #14]	@ movhi
 1562 0100 1A84     		strh	r2, [r3, #32]	@ movhi
 897:libs/STM32F4xx_StdPeriph_Driver/src/stm32f4xx_tim.c **** }
 1563              		.loc 1 897 0
 1564 0102 1437     		adds	r7, r7, #20
 1565 0104 BD46     		mov	sp, r7
 1566              		@ sp needed
 1567 0106 5DF8047B 		ldr	r7, [sp], #4
 1568 010a 7047     		bx	lr
 1569              		.cfi_endproc
 1570              	.LFE127:
 1572              		.section	.text.TIM_OC4Init,"ax",%progbits
 1573              		.align	2
 1574              		.global	TIM_OC4Init
 1575              		.thumb
 1576              		.thumb_func
 1578              	TIM_OC4Init:
 1579              	.LFB128:
 898:libs/STM32F4xx_StdPeriph_Driver/src/stm32f4xx_tim.c **** 
 899:libs/STM32F4xx_StdPeriph_Driver/src/stm32f4xx_tim.c **** /**
 900:libs/STM32F4xx_StdPeriph_Driver/src/stm32f4xx_tim.c ****   * @brief  Initializes the TIMx Channel4 according to the specified parameters
 901:libs/STM32F4xx_StdPeriph_Driver/src/stm32f4xx_tim.c ****   *         in the TIM_OCInitStruct.
 902:libs/STM32F4xx_StdPeriph_Driver/src/stm32f4xx_tim.c ****   * @param  TIMx: where x can be 1, 2, 3, 4, 5 or 8 to select the TIM peripheral.
 903:libs/STM32F4xx_StdPeriph_Driver/src/stm32f4xx_tim.c ****   * @param  TIM_OCInitStruct: pointer to a TIM_OCInitTypeDef structure that contains
 904:libs/STM32F4xx_StdPeriph_Driver/src/stm32f4xx_tim.c ****   *         the configuration information for the specified TIM peripheral.
 905:libs/STM32F4xx_StdPeriph_Driver/src/stm32f4xx_tim.c ****   * @retval None
 906:libs/STM32F4xx_StdPeriph_Driver/src/stm32f4xx_tim.c ****   */
 907:libs/STM32F4xx_StdPeriph_Driver/src/stm32f4xx_tim.c **** void TIM_OC4Init(TIM_TypeDef* TIMx, TIM_OCInitTypeDef* TIM_OCInitStruct)
 908:libs/STM32F4xx_StdPeriph_Driver/src/stm32f4xx_tim.c **** {
 1580              		.loc 1 908 0
 1581              		.cfi_startproc
 1582              		@ args = 0, pretend = 0, frame = 16
 1583              		@ frame_needed = 1, uses_anonymous_args = 0
 1584              		@ link register save eliminated.
 1585 0000 80B4     		push	{r7}
 1586              	.LCFI54:
 1587              		.cfi_def_cfa_offset 4
 1588              		.cfi_offset 7, -4
 1589 0002 85B0     		sub	sp, sp, #20
 1590              	.LCFI55:
 1591              		.cfi_def_cfa_offset 24
 1592 0004 00AF     		add	r7, sp, #0
 1593              	.LCFI56:
 1594              		.cfi_def_cfa_register 7
 1595 0006 7860     		str	r0, [r7, #4]
 1596 0008 3960     		str	r1, [r7]
 909:libs/STM32F4xx_StdPeriph_Driver/src/stm32f4xx_tim.c ****   uint16_t tmpccmrx = 0, tmpccer = 0, tmpcr2 = 0;
 1597              		.loc 1 909 0
 1598 000a 0023     		movs	r3, #0
 1599 000c BB81     		strh	r3, [r7, #12]	@ movhi
 1600 000e 0023     		movs	r3, #0
 1601 0010 7B81     		strh	r3, [r7, #10]	@ movhi
 1602 0012 0023     		movs	r3, #0
 1603 0014 FB81     		strh	r3, [r7, #14]	@ movhi
 910:libs/STM32F4xx_StdPeriph_Driver/src/stm32f4xx_tim.c ****    
 911:libs/STM32F4xx_StdPeriph_Driver/src/stm32f4xx_tim.c ****   /* Check the parameters */
 912:libs/STM32F4xx_StdPeriph_Driver/src/stm32f4xx_tim.c ****   assert_param(IS_TIM_LIST3_PERIPH(TIMx)); 
 913:libs/STM32F4xx_StdPeriph_Driver/src/stm32f4xx_tim.c ****   assert_param(IS_TIM_OC_MODE(TIM_OCInitStruct->TIM_OCMode));
 914:libs/STM32F4xx_StdPeriph_Driver/src/stm32f4xx_tim.c ****   assert_param(IS_TIM_OUTPUT_STATE(TIM_OCInitStruct->TIM_OutputState));
 915:libs/STM32F4xx_StdPeriph_Driver/src/stm32f4xx_tim.c ****   assert_param(IS_TIM_OC_POLARITY(TIM_OCInitStruct->TIM_OCPolarity));   
 916:libs/STM32F4xx_StdPeriph_Driver/src/stm32f4xx_tim.c **** 
 917:libs/STM32F4xx_StdPeriph_Driver/src/stm32f4xx_tim.c ****   /* Disable the Channel 4: Reset the CC4E Bit */
 918:libs/STM32F4xx_StdPeriph_Driver/src/stm32f4xx_tim.c ****   TIMx->CCER &= (uint16_t)~TIM_CCER_CC4E;
 1604              		.loc 1 918 0
 1605 0016 7B68     		ldr	r3, [r7, #4]
 1606 0018 1B8C     		ldrh	r3, [r3, #32]	@ movhi
 1607 001a 9BB2     		uxth	r3, r3
 1608 001c 23F48053 		bic	r3, r3, #4096
 1609 0020 9AB2     		uxth	r2, r3
 1610 0022 7B68     		ldr	r3, [r7, #4]
 1611 0024 1A84     		strh	r2, [r3, #32]	@ movhi
 919:libs/STM32F4xx_StdPeriph_Driver/src/stm32f4xx_tim.c ****   
 920:libs/STM32F4xx_StdPeriph_Driver/src/stm32f4xx_tim.c ****   /* Get the TIMx CCER register value */
 921:libs/STM32F4xx_StdPeriph_Driver/src/stm32f4xx_tim.c ****   tmpccer = TIMx->CCER;
 1612              		.loc 1 921 0
 1613 0026 7B68     		ldr	r3, [r7, #4]
 1614 0028 1B8C     		ldrh	r3, [r3, #32]	@ movhi
 1615 002a 7B81     		strh	r3, [r7, #10]	@ movhi
 922:libs/STM32F4xx_StdPeriph_Driver/src/stm32f4xx_tim.c ****   /* Get the TIMx CR2 register value */
 923:libs/STM32F4xx_StdPeriph_Driver/src/stm32f4xx_tim.c ****   tmpcr2 =  TIMx->CR2;
 1616              		.loc 1 923 0
 1617 002c 7B68     		ldr	r3, [r7, #4]
 1618 002e 9B88     		ldrh	r3, [r3, #4]	@ movhi
 1619 0030 FB81     		strh	r3, [r7, #14]	@ movhi
 924:libs/STM32F4xx_StdPeriph_Driver/src/stm32f4xx_tim.c ****   
 925:libs/STM32F4xx_StdPeriph_Driver/src/stm32f4xx_tim.c ****   /* Get the TIMx CCMR2 register value */
 926:libs/STM32F4xx_StdPeriph_Driver/src/stm32f4xx_tim.c ****   tmpccmrx = TIMx->CCMR2;
 1620              		.loc 1 926 0
 1621 0032 7B68     		ldr	r3, [r7, #4]
 1622 0034 9B8B     		ldrh	r3, [r3, #28]	@ movhi
 1623 0036 BB81     		strh	r3, [r7, #12]	@ movhi
 927:libs/STM32F4xx_StdPeriph_Driver/src/stm32f4xx_tim.c ****     
 928:libs/STM32F4xx_StdPeriph_Driver/src/stm32f4xx_tim.c ****   /* Reset the Output Compare mode and Capture/Compare selection Bits */
 929:libs/STM32F4xx_StdPeriph_Driver/src/stm32f4xx_tim.c ****   tmpccmrx &= (uint16_t)~TIM_CCMR2_OC4M;
 1624              		.loc 1 929 0
 1625 0038 BB89     		ldrh	r3, [r7, #12]	@ movhi
 1626 003a 23F4E043 		bic	r3, r3, #28672
 1627 003e BB81     		strh	r3, [r7, #12]	@ movhi
 930:libs/STM32F4xx_StdPeriph_Driver/src/stm32f4xx_tim.c ****   tmpccmrx &= (uint16_t)~TIM_CCMR2_CC4S;
 1628              		.loc 1 930 0
 1629 0040 BB89     		ldrh	r3, [r7, #12]	@ movhi
 1630 0042 23F44073 		bic	r3, r3, #768
 1631 0046 BB81     		strh	r3, [r7, #12]	@ movhi
 931:libs/STM32F4xx_StdPeriph_Driver/src/stm32f4xx_tim.c ****   
 932:libs/STM32F4xx_StdPeriph_Driver/src/stm32f4xx_tim.c ****   /* Select the Output Compare Mode */
 933:libs/STM32F4xx_StdPeriph_Driver/src/stm32f4xx_tim.c ****   tmpccmrx |= (uint16_t)(TIM_OCInitStruct->TIM_OCMode << 8);
 1632              		.loc 1 933 0
 1633 0048 3B68     		ldr	r3, [r7]
 1634 004a 1B88     		ldrh	r3, [r3]
 1635 004c 1B02     		lsls	r3, r3, #8
 1636 004e 9AB2     		uxth	r2, r3
 1637 0050 BB89     		ldrh	r3, [r7, #12]	@ movhi
 1638 0052 1343     		orrs	r3, r3, r2
 1639 0054 BB81     		strh	r3, [r7, #12]	@ movhi
 934:libs/STM32F4xx_StdPeriph_Driver/src/stm32f4xx_tim.c ****   
 935:libs/STM32F4xx_StdPeriph_Driver/src/stm32f4xx_tim.c ****   /* Reset the Output Polarity level */
 936:libs/STM32F4xx_StdPeriph_Driver/src/stm32f4xx_tim.c ****   tmpccer &= (uint16_t)~TIM_CCER_CC4P;
 1640              		.loc 1 936 0
 1641 0056 7B89     		ldrh	r3, [r7, #10]	@ movhi
 1642 0058 23F40053 		bic	r3, r3, #8192
 1643 005c 7B81     		strh	r3, [r7, #10]	@ movhi
 937:libs/STM32F4xx_StdPeriph_Driver/src/stm32f4xx_tim.c ****   /* Set the Output Compare Polarity */
 938:libs/STM32F4xx_StdPeriph_Driver/src/stm32f4xx_tim.c ****   tmpccer |= (uint16_t)(TIM_OCInitStruct->TIM_OCPolarity << 12);
 1644              		.loc 1 938 0
 1645 005e 3B68     		ldr	r3, [r7]
 1646 0060 9B89     		ldrh	r3, [r3, #12]
 1647 0062 1B03     		lsls	r3, r3, #12
 1648 0064 9AB2     		uxth	r2, r3
 1649 0066 7B89     		ldrh	r3, [r7, #10]	@ movhi
 1650 0068 1343     		orrs	r3, r3, r2
 1651 006a 7B81     		strh	r3, [r7, #10]	@ movhi
 939:libs/STM32F4xx_StdPeriph_Driver/src/stm32f4xx_tim.c ****   
 940:libs/STM32F4xx_StdPeriph_Driver/src/stm32f4xx_tim.c ****   /* Set the Output State */
 941:libs/STM32F4xx_StdPeriph_Driver/src/stm32f4xx_tim.c ****   tmpccer |= (uint16_t)(TIM_OCInitStruct->TIM_OutputState << 12);
 1652              		.loc 1 941 0
 1653 006c 3B68     		ldr	r3, [r7]
 1654 006e 5B88     		ldrh	r3, [r3, #2]
 1655 0070 1B03     		lsls	r3, r3, #12
 1656 0072 9AB2     		uxth	r2, r3
 1657 0074 7B89     		ldrh	r3, [r7, #10]	@ movhi
 1658 0076 1343     		orrs	r3, r3, r2
 1659 0078 7B81     		strh	r3, [r7, #10]	@ movhi
 942:libs/STM32F4xx_StdPeriph_Driver/src/stm32f4xx_tim.c ****   
 943:libs/STM32F4xx_StdPeriph_Driver/src/stm32f4xx_tim.c ****   if((TIMx == TIM1) || (TIMx == TIM8))
 1660              		.loc 1 943 0
 1661 007a 7A68     		ldr	r2, [r7, #4]
 1662 007c 0023     		movs	r3, #0
 1663 007e C4F20103 		movt	r3, 16385
 1664 0082 9A42     		cmp	r2, r3
 1665 0084 06D0     		beq	.L55
 1666              		.loc 1 943 0 is_stmt 0 discriminator 1
 1667 0086 7A68     		ldr	r2, [r7, #4]
 1668 0088 4FF48063 		mov	r3, #1024
 1669 008c C4F20103 		movt	r3, 16385
 1670 0090 9A42     		cmp	r2, r3
 1671 0092 0AD1     		bne	.L56
 1672              	.L55:
 944:libs/STM32F4xx_StdPeriph_Driver/src/stm32f4xx_tim.c ****   {
 945:libs/STM32F4xx_StdPeriph_Driver/src/stm32f4xx_tim.c ****     assert_param(IS_TIM_OCIDLE_STATE(TIM_OCInitStruct->TIM_OCIdleState));
 946:libs/STM32F4xx_StdPeriph_Driver/src/stm32f4xx_tim.c ****     /* Reset the Output Compare IDLE State */
 947:libs/STM32F4xx_StdPeriph_Driver/src/stm32f4xx_tim.c ****     tmpcr2 &=(uint16_t) ~TIM_CR2_OIS4;
 1673              		.loc 1 947 0 is_stmt 1
 1674 0094 FB89     		ldrh	r3, [r7, #14]	@ movhi
 1675 0096 23F48043 		bic	r3, r3, #16384
 1676 009a FB81     		strh	r3, [r7, #14]	@ movhi
 948:libs/STM32F4xx_StdPeriph_Driver/src/stm32f4xx_tim.c ****     /* Set the Output Idle state */
 949:libs/STM32F4xx_StdPeriph_Driver/src/stm32f4xx_tim.c ****     tmpcr2 |= (uint16_t)(TIM_OCInitStruct->TIM_OCIdleState << 6);
 1677              		.loc 1 949 0
 1678 009c 3B68     		ldr	r3, [r7]
 1679 009e 1B8A     		ldrh	r3, [r3, #16]
 1680 00a0 9B01     		lsls	r3, r3, #6
 1681 00a2 9AB2     		uxth	r2, r3
 1682 00a4 FB89     		ldrh	r3, [r7, #14]	@ movhi
 1683 00a6 1343     		orrs	r3, r3, r2
 1684 00a8 FB81     		strh	r3, [r7, #14]	@ movhi
 1685              	.L56:
 950:libs/STM32F4xx_StdPeriph_Driver/src/stm32f4xx_tim.c ****   }
 951:libs/STM32F4xx_StdPeriph_Driver/src/stm32f4xx_tim.c ****   /* Write to TIMx CR2 */
 952:libs/STM32F4xx_StdPeriph_Driver/src/stm32f4xx_tim.c ****   TIMx->CR2 = tmpcr2;
 1686              		.loc 1 952 0
 1687 00aa 7B68     		ldr	r3, [r7, #4]
 1688 00ac FA89     		ldrh	r2, [r7, #14]	@ movhi
 1689 00ae 9A80     		strh	r2, [r3, #4]	@ movhi
 953:libs/STM32F4xx_StdPeriph_Driver/src/stm32f4xx_tim.c ****   
 954:libs/STM32F4xx_StdPeriph_Driver/src/stm32f4xx_tim.c ****   /* Write to TIMx CCMR2 */  
 955:libs/STM32F4xx_StdPeriph_Driver/src/stm32f4xx_tim.c ****   TIMx->CCMR2 = tmpccmrx;
 1690              		.loc 1 955 0
 1691 00b0 7B68     		ldr	r3, [r7, #4]
 1692 00b2 BA89     		ldrh	r2, [r7, #12]	@ movhi
 1693 00b4 9A83     		strh	r2, [r3, #28]	@ movhi
 956:libs/STM32F4xx_StdPeriph_Driver/src/stm32f4xx_tim.c ****     
 957:libs/STM32F4xx_StdPeriph_Driver/src/stm32f4xx_tim.c ****   /* Set the Capture Compare Register value */
 958:libs/STM32F4xx_StdPeriph_Driver/src/stm32f4xx_tim.c ****   TIMx->CCR4 = TIM_OCInitStruct->TIM_Pulse;
 1694              		.loc 1 958 0
 1695 00b6 3B68     		ldr	r3, [r7]
 1696 00b8 9A68     		ldr	r2, [r3, #8]
 1697 00ba 7B68     		ldr	r3, [r7, #4]
 1698 00bc 1A64     		str	r2, [r3, #64]
 959:libs/STM32F4xx_StdPeriph_Driver/src/stm32f4xx_tim.c ****   
 960:libs/STM32F4xx_StdPeriph_Driver/src/stm32f4xx_tim.c ****   /* Write to TIMx CCER */
 961:libs/STM32F4xx_StdPeriph_Driver/src/stm32f4xx_tim.c ****   TIMx->CCER = tmpccer;
 1699              		.loc 1 961 0
 1700 00be 7B68     		ldr	r3, [r7, #4]
 1701 00c0 7A89     		ldrh	r2, [r7, #10]	@ movhi
 1702 00c2 1A84     		strh	r2, [r3, #32]	@ movhi
 962:libs/STM32F4xx_StdPeriph_Driver/src/stm32f4xx_tim.c **** }
 1703              		.loc 1 962 0
 1704 00c4 1437     		adds	r7, r7, #20
 1705 00c6 BD46     		mov	sp, r7
 1706              		@ sp needed
 1707 00c8 5DF8047B 		ldr	r7, [sp], #4
 1708 00cc 7047     		bx	lr
 1709              		.cfi_endproc
 1710              	.LFE128:
 1712 00ce 00BF     		.section	.text.TIM_OCStructInit,"ax",%progbits
 1713              		.align	2
 1714              		.global	TIM_OCStructInit
 1715              		.thumb
 1716              		.thumb_func
 1718              	TIM_OCStructInit:
 1719              	.LFB129:
 963:libs/STM32F4xx_StdPeriph_Driver/src/stm32f4xx_tim.c **** 
 964:libs/STM32F4xx_StdPeriph_Driver/src/stm32f4xx_tim.c **** /**
 965:libs/STM32F4xx_StdPeriph_Driver/src/stm32f4xx_tim.c ****   * @brief  Fills each TIM_OCInitStruct member with its default value.
 966:libs/STM32F4xx_StdPeriph_Driver/src/stm32f4xx_tim.c ****   * @param  TIM_OCInitStruct: pointer to a TIM_OCInitTypeDef structure which will
 967:libs/STM32F4xx_StdPeriph_Driver/src/stm32f4xx_tim.c ****   *         be initialized.
 968:libs/STM32F4xx_StdPeriph_Driver/src/stm32f4xx_tim.c ****   * @retval None
 969:libs/STM32F4xx_StdPeriph_Driver/src/stm32f4xx_tim.c ****   */
 970:libs/STM32F4xx_StdPeriph_Driver/src/stm32f4xx_tim.c **** void TIM_OCStructInit(TIM_OCInitTypeDef* TIM_OCInitStruct)
 971:libs/STM32F4xx_StdPeriph_Driver/src/stm32f4xx_tim.c **** {
 1720              		.loc 1 971 0
 1721              		.cfi_startproc
 1722              		@ args = 0, pretend = 0, frame = 8
 1723              		@ frame_needed = 1, uses_anonymous_args = 0
 1724              		@ link register save eliminated.
 1725 0000 80B4     		push	{r7}
 1726              	.LCFI57:
 1727              		.cfi_def_cfa_offset 4
 1728              		.cfi_offset 7, -4
 1729 0002 83B0     		sub	sp, sp, #12
 1730              	.LCFI58:
 1731              		.cfi_def_cfa_offset 16
 1732 0004 00AF     		add	r7, sp, #0
 1733              	.LCFI59:
 1734              		.cfi_def_cfa_register 7
 1735 0006 7860     		str	r0, [r7, #4]
 972:libs/STM32F4xx_StdPeriph_Driver/src/stm32f4xx_tim.c ****   /* Set the default configuration */
 973:libs/STM32F4xx_StdPeriph_Driver/src/stm32f4xx_tim.c ****   TIM_OCInitStruct->TIM_OCMode = TIM_OCMode_Timing;
 1736              		.loc 1 973 0
 1737 0008 7B68     		ldr	r3, [r7, #4]
 1738 000a 0022     		movs	r2, #0
 1739 000c 1A80     		strh	r2, [r3]	@ movhi
 974:libs/STM32F4xx_StdPeriph_Driver/src/stm32f4xx_tim.c ****   TIM_OCInitStruct->TIM_OutputState = TIM_OutputState_Disable;
 1740              		.loc 1 974 0
 1741 000e 7B68     		ldr	r3, [r7, #4]
 1742 0010 0022     		movs	r2, #0
 1743 0012 5A80     		strh	r2, [r3, #2]	@ movhi
 975:libs/STM32F4xx_StdPeriph_Driver/src/stm32f4xx_tim.c ****   TIM_OCInitStruct->TIM_OutputNState = TIM_OutputNState_Disable;
 1744              		.loc 1 975 0
 1745 0014 7B68     		ldr	r3, [r7, #4]
 1746 0016 0022     		movs	r2, #0
 1747 0018 9A80     		strh	r2, [r3, #4]	@ movhi
 976:libs/STM32F4xx_StdPeriph_Driver/src/stm32f4xx_tim.c ****   TIM_OCInitStruct->TIM_Pulse = 0x00000000;
 1748              		.loc 1 976 0
 1749 001a 7B68     		ldr	r3, [r7, #4]
 1750 001c 0022     		movs	r2, #0
 1751 001e 9A60     		str	r2, [r3, #8]
 977:libs/STM32F4xx_StdPeriph_Driver/src/stm32f4xx_tim.c ****   TIM_OCInitStruct->TIM_OCPolarity = TIM_OCPolarity_High;
 1752              		.loc 1 977 0
 1753 0020 7B68     		ldr	r3, [r7, #4]
 1754 0022 0022     		movs	r2, #0
 1755 0024 9A81     		strh	r2, [r3, #12]	@ movhi
 978:libs/STM32F4xx_StdPeriph_Driver/src/stm32f4xx_tim.c ****   TIM_OCInitStruct->TIM_OCNPolarity = TIM_OCPolarity_High;
 1756              		.loc 1 978 0
 1757 0026 7B68     		ldr	r3, [r7, #4]
 1758 0028 0022     		movs	r2, #0
 1759 002a DA81     		strh	r2, [r3, #14]	@ movhi
 979:libs/STM32F4xx_StdPeriph_Driver/src/stm32f4xx_tim.c ****   TIM_OCInitStruct->TIM_OCIdleState = TIM_OCIdleState_Reset;
 1760              		.loc 1 979 0
 1761 002c 7B68     		ldr	r3, [r7, #4]
 1762 002e 0022     		movs	r2, #0
 1763 0030 1A82     		strh	r2, [r3, #16]	@ movhi
 980:libs/STM32F4xx_StdPeriph_Driver/src/stm32f4xx_tim.c ****   TIM_OCInitStruct->TIM_OCNIdleState = TIM_OCNIdleState_Reset;
 1764              		.loc 1 980 0
 1765 0032 7B68     		ldr	r3, [r7, #4]
 1766 0034 0022     		movs	r2, #0
 1767 0036 5A82     		strh	r2, [r3, #18]	@ movhi
 981:libs/STM32F4xx_StdPeriph_Driver/src/stm32f4xx_tim.c **** }
 1768              		.loc 1 981 0
 1769 0038 0C37     		adds	r7, r7, #12
 1770 003a BD46     		mov	sp, r7
 1771              		@ sp needed
 1772 003c 5DF8047B 		ldr	r7, [sp], #4
 1773 0040 7047     		bx	lr
 1774              		.cfi_endproc
 1775              	.LFE129:
 1777 0042 00BF     		.section	.text.TIM_SelectOCxM,"ax",%progbits
 1778              		.align	2
 1779              		.global	TIM_SelectOCxM
 1780              		.thumb
 1781              		.thumb_func
 1783              	TIM_SelectOCxM:
 1784              	.LFB130:
 982:libs/STM32F4xx_StdPeriph_Driver/src/stm32f4xx_tim.c **** 
 983:libs/STM32F4xx_StdPeriph_Driver/src/stm32f4xx_tim.c **** /**
 984:libs/STM32F4xx_StdPeriph_Driver/src/stm32f4xx_tim.c ****   * @brief  Selects the TIM Output Compare Mode.
 985:libs/STM32F4xx_StdPeriph_Driver/src/stm32f4xx_tim.c ****   * @note   This function disables the selected channel before changing the Output
 986:libs/STM32F4xx_StdPeriph_Driver/src/stm32f4xx_tim.c ****   *         Compare Mode. If needed, user has to enable this channel using
 987:libs/STM32F4xx_StdPeriph_Driver/src/stm32f4xx_tim.c ****   *         TIM_CCxCmd() and TIM_CCxNCmd() functions.
 988:libs/STM32F4xx_StdPeriph_Driver/src/stm32f4xx_tim.c ****   * @param  TIMx: where x can be 1 to 14 except 6 and 7, to select the TIM peripheral.
 989:libs/STM32F4xx_StdPeriph_Driver/src/stm32f4xx_tim.c ****   * @param  TIM_Channel: specifies the TIM Channel
 990:libs/STM32F4xx_StdPeriph_Driver/src/stm32f4xx_tim.c ****   *          This parameter can be one of the following values:
 991:libs/STM32F4xx_StdPeriph_Driver/src/stm32f4xx_tim.c ****   *            @arg TIM_Channel_1: TIM Channel 1
 992:libs/STM32F4xx_StdPeriph_Driver/src/stm32f4xx_tim.c ****   *            @arg TIM_Channel_2: TIM Channel 2
 993:libs/STM32F4xx_StdPeriph_Driver/src/stm32f4xx_tim.c ****   *            @arg TIM_Channel_3: TIM Channel 3
 994:libs/STM32F4xx_StdPeriph_Driver/src/stm32f4xx_tim.c ****   *            @arg TIM_Channel_4: TIM Channel 4
 995:libs/STM32F4xx_StdPeriph_Driver/src/stm32f4xx_tim.c ****   * @param  TIM_OCMode: specifies the TIM Output Compare Mode.
 996:libs/STM32F4xx_StdPeriph_Driver/src/stm32f4xx_tim.c ****   *           This parameter can be one of the following values:
 997:libs/STM32F4xx_StdPeriph_Driver/src/stm32f4xx_tim.c ****   *            @arg TIM_OCMode_Timing
 998:libs/STM32F4xx_StdPeriph_Driver/src/stm32f4xx_tim.c ****   *            @arg TIM_OCMode_Active
 999:libs/STM32F4xx_StdPeriph_Driver/src/stm32f4xx_tim.c ****   *            @arg TIM_OCMode_Toggle
1000:libs/STM32F4xx_StdPeriph_Driver/src/stm32f4xx_tim.c ****   *            @arg TIM_OCMode_PWM1
1001:libs/STM32F4xx_StdPeriph_Driver/src/stm32f4xx_tim.c ****   *            @arg TIM_OCMode_PWM2
1002:libs/STM32F4xx_StdPeriph_Driver/src/stm32f4xx_tim.c ****   *            @arg TIM_ForcedAction_Active
1003:libs/STM32F4xx_StdPeriph_Driver/src/stm32f4xx_tim.c ****   *            @arg TIM_ForcedAction_InActive
1004:libs/STM32F4xx_StdPeriph_Driver/src/stm32f4xx_tim.c ****   * @retval None
1005:libs/STM32F4xx_StdPeriph_Driver/src/stm32f4xx_tim.c ****   */
1006:libs/STM32F4xx_StdPeriph_Driver/src/stm32f4xx_tim.c **** void TIM_SelectOCxM(TIM_TypeDef* TIMx, uint16_t TIM_Channel, uint16_t TIM_OCMode)
1007:libs/STM32F4xx_StdPeriph_Driver/src/stm32f4xx_tim.c **** {
 1785              		.loc 1 1007 0
 1786              		.cfi_startproc
 1787              		@ args = 0, pretend = 0, frame = 16
 1788              		@ frame_needed = 1, uses_anonymous_args = 0
 1789              		@ link register save eliminated.
 1790 0000 80B4     		push	{r7}
 1791              	.LCFI60:
 1792              		.cfi_def_cfa_offset 4
 1793              		.cfi_offset 7, -4
 1794 0002 85B0     		sub	sp, sp, #20
 1795              	.LCFI61:
 1796              		.cfi_def_cfa_offset 24
 1797 0004 00AF     		add	r7, sp, #0
 1798              	.LCFI62:
 1799              		.cfi_def_cfa_register 7
 1800 0006 7860     		str	r0, [r7, #4]
 1801 0008 1346     		mov	r3, r2
 1802 000a 0A46     		mov	r2, r1	@ movhi
 1803 000c 7A80     		strh	r2, [r7, #2]	@ movhi
 1804 000e 3B80     		strh	r3, [r7]	@ movhi
1008:libs/STM32F4xx_StdPeriph_Driver/src/stm32f4xx_tim.c ****   uint32_t tmp = 0;
 1805              		.loc 1 1008 0
 1806 0010 0023     		movs	r3, #0
 1807 0012 FB60     		str	r3, [r7, #12]
1009:libs/STM32F4xx_StdPeriph_Driver/src/stm32f4xx_tim.c ****   uint16_t tmp1 = 0;
 1808              		.loc 1 1009 0
 1809 0014 0023     		movs	r3, #0
 1810 0016 7B81     		strh	r3, [r7, #10]	@ movhi
1010:libs/STM32F4xx_StdPeriph_Driver/src/stm32f4xx_tim.c **** 
1011:libs/STM32F4xx_StdPeriph_Driver/src/stm32f4xx_tim.c ****   /* Check the parameters */
1012:libs/STM32F4xx_StdPeriph_Driver/src/stm32f4xx_tim.c ****   assert_param(IS_TIM_LIST1_PERIPH(TIMx));
1013:libs/STM32F4xx_StdPeriph_Driver/src/stm32f4xx_tim.c ****   assert_param(IS_TIM_CHANNEL(TIM_Channel));
1014:libs/STM32F4xx_StdPeriph_Driver/src/stm32f4xx_tim.c ****   assert_param(IS_TIM_OCM(TIM_OCMode));
1015:libs/STM32F4xx_StdPeriph_Driver/src/stm32f4xx_tim.c **** 
1016:libs/STM32F4xx_StdPeriph_Driver/src/stm32f4xx_tim.c ****   tmp = (uint32_t) TIMx;
 1811              		.loc 1 1016 0
 1812 0018 7B68     		ldr	r3, [r7, #4]
 1813 001a FB60     		str	r3, [r7, #12]
1017:libs/STM32F4xx_StdPeriph_Driver/src/stm32f4xx_tim.c ****   tmp += CCMR_OFFSET;
 1814              		.loc 1 1017 0
 1815 001c FB68     		ldr	r3, [r7, #12]
 1816 001e 1833     		adds	r3, r3, #24
 1817 0020 FB60     		str	r3, [r7, #12]
1018:libs/STM32F4xx_StdPeriph_Driver/src/stm32f4xx_tim.c **** 
1019:libs/STM32F4xx_StdPeriph_Driver/src/stm32f4xx_tim.c ****   tmp1 = CCER_CCE_SET << (uint16_t)TIM_Channel;
 1818              		.loc 1 1019 0
 1819 0022 7B88     		ldrh	r3, [r7, #2]
 1820 0024 0122     		movs	r2, #1
 1821 0026 02FA03F3 		lsl	r3, r2, r3
 1822 002a 7B81     		strh	r3, [r7, #10]	@ movhi
1020:libs/STM32F4xx_StdPeriph_Driver/src/stm32f4xx_tim.c **** 
1021:libs/STM32F4xx_StdPeriph_Driver/src/stm32f4xx_tim.c ****   /* Disable the Channel: Reset the CCxE Bit */
1022:libs/STM32F4xx_StdPeriph_Driver/src/stm32f4xx_tim.c ****   TIMx->CCER &= (uint16_t) ~tmp1;
 1823              		.loc 1 1022 0
 1824 002c 7B68     		ldr	r3, [r7, #4]
 1825 002e 1B8C     		ldrh	r3, [r3, #32]	@ movhi
 1826 0030 9AB2     		uxth	r2, r3
 1827 0032 7B89     		ldrh	r3, [r7, #10]	@ movhi
 1828 0034 DB43     		mvns	r3, r3
 1829 0036 9BB2     		uxth	r3, r3
 1830 0038 1340     		ands	r3, r3, r2
 1831 003a 9AB2     		uxth	r2, r3
 1832 003c 7B68     		ldr	r3, [r7, #4]
 1833 003e 1A84     		strh	r2, [r3, #32]	@ movhi
1023:libs/STM32F4xx_StdPeriph_Driver/src/stm32f4xx_tim.c **** 
1024:libs/STM32F4xx_StdPeriph_Driver/src/stm32f4xx_tim.c ****   if((TIM_Channel == TIM_Channel_1) ||(TIM_Channel == TIM_Channel_3))
 1834              		.loc 1 1024 0
 1835 0040 7B88     		ldrh	r3, [r7, #2]
 1836 0042 002B     		cmp	r3, #0
 1837 0044 02D0     		beq	.L59
 1838              		.loc 1 1024 0 is_stmt 0 discriminator 1
 1839 0046 7B88     		ldrh	r3, [r7, #2]
 1840 0048 082B     		cmp	r3, #8
 1841 004a 13D1     		bne	.L60
 1842              	.L59:
1025:libs/STM32F4xx_StdPeriph_Driver/src/stm32f4xx_tim.c ****   {
1026:libs/STM32F4xx_StdPeriph_Driver/src/stm32f4xx_tim.c ****     tmp += (TIM_Channel>>1);
 1843              		.loc 1 1026 0 is_stmt 1
 1844 004c 7B88     		ldrh	r3, [r7, #2]
 1845 004e 5B08     		lsrs	r3, r3, #1
 1846 0050 9BB2     		uxth	r3, r3
 1847 0052 FA68     		ldr	r2, [r7, #12]
 1848 0054 1344     		add	r3, r3, r2
 1849 0056 FB60     		str	r3, [r7, #12]
1027:libs/STM32F4xx_StdPeriph_Driver/src/stm32f4xx_tim.c **** 
1028:libs/STM32F4xx_StdPeriph_Driver/src/stm32f4xx_tim.c ****     /* Reset the OCxM bits in the CCMRx register */
1029:libs/STM32F4xx_StdPeriph_Driver/src/stm32f4xx_tim.c ****     *(__IO uint32_t *) tmp &= CCMR_OC13M_MASK;
 1850              		.loc 1 1029 0
 1851 0058 FA68     		ldr	r2, [r7, #12]
 1852 005a FB68     		ldr	r3, [r7, #12]
 1853 005c 1968     		ldr	r1, [r3]
 1854 005e 4FF68F73 		movw	r3, #65423
 1855 0062 0B40     		ands	r3, r3, r1
 1856 0064 1360     		str	r3, [r2]
1030:libs/STM32F4xx_StdPeriph_Driver/src/stm32f4xx_tim.c ****    
1031:libs/STM32F4xx_StdPeriph_Driver/src/stm32f4xx_tim.c ****     /* Configure the OCxM bits in the CCMRx register */
1032:libs/STM32F4xx_StdPeriph_Driver/src/stm32f4xx_tim.c ****     *(__IO uint32_t *) tmp |= TIM_OCMode;
 1857              		.loc 1 1032 0
 1858 0066 FB68     		ldr	r3, [r7, #12]
 1859 0068 FA68     		ldr	r2, [r7, #12]
 1860 006a 1168     		ldr	r1, [r2]
 1861 006c 3A88     		ldrh	r2, [r7]
 1862 006e 0A43     		orrs	r2, r2, r1
 1863 0070 1A60     		str	r2, [r3]
 1864 0072 16E0     		b	.L58
 1865              	.L60:
1033:libs/STM32F4xx_StdPeriph_Driver/src/stm32f4xx_tim.c ****   }
1034:libs/STM32F4xx_StdPeriph_Driver/src/stm32f4xx_tim.c ****   else
1035:libs/STM32F4xx_StdPeriph_Driver/src/stm32f4xx_tim.c ****   {
1036:libs/STM32F4xx_StdPeriph_Driver/src/stm32f4xx_tim.c ****     tmp += (uint16_t)(TIM_Channel - (uint16_t)4)>> (uint16_t)1;
 1866              		.loc 1 1036 0
 1867 0074 7B88     		ldrh	r3, [r7, #2]	@ movhi
 1868 0076 043B     		subs	r3, r3, #4
 1869 0078 9BB2     		uxth	r3, r3
 1870 007a 5B08     		lsrs	r3, r3, #1
 1871 007c 9BB2     		uxth	r3, r3
 1872 007e FA68     		ldr	r2, [r7, #12]
 1873 0080 1344     		add	r3, r3, r2
 1874 0082 FB60     		str	r3, [r7, #12]
1037:libs/STM32F4xx_StdPeriph_Driver/src/stm32f4xx_tim.c **** 
1038:libs/STM32F4xx_StdPeriph_Driver/src/stm32f4xx_tim.c ****     /* Reset the OCxM bits in the CCMRx register */
1039:libs/STM32F4xx_StdPeriph_Driver/src/stm32f4xx_tim.c ****     *(__IO uint32_t *) tmp &= CCMR_OC24M_MASK;
 1875              		.loc 1 1039 0
 1876 0084 FA68     		ldr	r2, [r7, #12]
 1877 0086 FB68     		ldr	r3, [r7, #12]
 1878 0088 1968     		ldr	r1, [r3]
 1879 008a 48F6FF73 		movw	r3, #36863
 1880 008e 0B40     		ands	r3, r3, r1
 1881 0090 1360     		str	r3, [r2]
1040:libs/STM32F4xx_StdPeriph_Driver/src/stm32f4xx_tim.c ****     
1041:libs/STM32F4xx_StdPeriph_Driver/src/stm32f4xx_tim.c ****     /* Configure the OCxM bits in the CCMRx register */
1042:libs/STM32F4xx_StdPeriph_Driver/src/stm32f4xx_tim.c ****     *(__IO uint32_t *) tmp |= (uint16_t)(TIM_OCMode << 8);
 1882              		.loc 1 1042 0
 1883 0092 FB68     		ldr	r3, [r7, #12]
 1884 0094 FA68     		ldr	r2, [r7, #12]
 1885 0096 1168     		ldr	r1, [r2]
 1886 0098 3A88     		ldrh	r2, [r7]	@ movhi
 1887 009a 1202     		lsls	r2, r2, #8
 1888 009c 92B2     		uxth	r2, r2
 1889 009e 0A43     		orrs	r2, r2, r1
 1890 00a0 1A60     		str	r2, [r3]
 1891              	.L58:
1043:libs/STM32F4xx_StdPeriph_Driver/src/stm32f4xx_tim.c ****   }
1044:libs/STM32F4xx_StdPeriph_Driver/src/stm32f4xx_tim.c **** }
 1892              		.loc 1 1044 0
 1893 00a2 1437     		adds	r7, r7, #20
 1894 00a4 BD46     		mov	sp, r7
 1895              		@ sp needed
 1896 00a6 5DF8047B 		ldr	r7, [sp], #4
 1897 00aa 7047     		bx	lr
 1898              		.cfi_endproc
 1899              	.LFE130:
 1901              		.section	.text.TIM_SetCompare1,"ax",%progbits
 1902              		.align	2
 1903              		.global	TIM_SetCompare1
 1904              		.thumb
 1905              		.thumb_func
 1907              	TIM_SetCompare1:
 1908              	.LFB131:
1045:libs/STM32F4xx_StdPeriph_Driver/src/stm32f4xx_tim.c **** 
1046:libs/STM32F4xx_StdPeriph_Driver/src/stm32f4xx_tim.c **** /**
1047:libs/STM32F4xx_StdPeriph_Driver/src/stm32f4xx_tim.c ****   * @brief  Sets the TIMx Capture Compare1 Register value
1048:libs/STM32F4xx_StdPeriph_Driver/src/stm32f4xx_tim.c ****   * @param  TIMx: where x can be 1 to 14 except 6 and 7, to select the TIM peripheral.
1049:libs/STM32F4xx_StdPeriph_Driver/src/stm32f4xx_tim.c ****   * @param  Compare1: specifies the Capture Compare1 register new value.
1050:libs/STM32F4xx_StdPeriph_Driver/src/stm32f4xx_tim.c ****   * @retval None
1051:libs/STM32F4xx_StdPeriph_Driver/src/stm32f4xx_tim.c ****   */
1052:libs/STM32F4xx_StdPeriph_Driver/src/stm32f4xx_tim.c **** void TIM_SetCompare1(TIM_TypeDef* TIMx, uint32_t Compare1)
1053:libs/STM32F4xx_StdPeriph_Driver/src/stm32f4xx_tim.c **** {
 1909              		.loc 1 1053 0
 1910              		.cfi_startproc
 1911              		@ args = 0, pretend = 0, frame = 8
 1912              		@ frame_needed = 1, uses_anonymous_args = 0
 1913              		@ link register save eliminated.
 1914 0000 80B4     		push	{r7}
 1915              	.LCFI63:
 1916              		.cfi_def_cfa_offset 4
 1917              		.cfi_offset 7, -4
 1918 0002 83B0     		sub	sp, sp, #12
 1919              	.LCFI64:
 1920              		.cfi_def_cfa_offset 16
 1921 0004 00AF     		add	r7, sp, #0
 1922              	.LCFI65:
 1923              		.cfi_def_cfa_register 7
 1924 0006 7860     		str	r0, [r7, #4]
 1925 0008 3960     		str	r1, [r7]
1054:libs/STM32F4xx_StdPeriph_Driver/src/stm32f4xx_tim.c ****   /* Check the parameters */
1055:libs/STM32F4xx_StdPeriph_Driver/src/stm32f4xx_tim.c ****   assert_param(IS_TIM_LIST1_PERIPH(TIMx));
1056:libs/STM32F4xx_StdPeriph_Driver/src/stm32f4xx_tim.c **** 
1057:libs/STM32F4xx_StdPeriph_Driver/src/stm32f4xx_tim.c ****   /* Set the Capture Compare1 Register value */
1058:libs/STM32F4xx_StdPeriph_Driver/src/stm32f4xx_tim.c ****   TIMx->CCR1 = Compare1;
 1926              		.loc 1 1058 0
 1927 000a 7B68     		ldr	r3, [r7, #4]
 1928 000c 3A68     		ldr	r2, [r7]
 1929 000e 5A63     		str	r2, [r3, #52]
1059:libs/STM32F4xx_StdPeriph_Driver/src/stm32f4xx_tim.c **** }
 1930              		.loc 1 1059 0
 1931 0010 0C37     		adds	r7, r7, #12
 1932 0012 BD46     		mov	sp, r7
 1933              		@ sp needed
 1934 0014 5DF8047B 		ldr	r7, [sp], #4
 1935 0018 7047     		bx	lr
 1936              		.cfi_endproc
 1937              	.LFE131:
 1939 001a 00BF     		.section	.text.TIM_SetCompare2,"ax",%progbits
 1940              		.align	2
 1941              		.global	TIM_SetCompare2
 1942              		.thumb
 1943              		.thumb_func
 1945              	TIM_SetCompare2:
 1946              	.LFB132:
1060:libs/STM32F4xx_StdPeriph_Driver/src/stm32f4xx_tim.c **** 
1061:libs/STM32F4xx_StdPeriph_Driver/src/stm32f4xx_tim.c **** /**
1062:libs/STM32F4xx_StdPeriph_Driver/src/stm32f4xx_tim.c ****   * @brief  Sets the TIMx Capture Compare2 Register value
1063:libs/STM32F4xx_StdPeriph_Driver/src/stm32f4xx_tim.c ****   * @param  TIMx: where x can be 1, 2, 3, 4, 5, 8, 9 or 12 to select the TIM 
1064:libs/STM32F4xx_StdPeriph_Driver/src/stm32f4xx_tim.c ****   *         peripheral.
1065:libs/STM32F4xx_StdPeriph_Driver/src/stm32f4xx_tim.c ****   * @param  Compare2: specifies the Capture Compare2 register new value.
1066:libs/STM32F4xx_StdPeriph_Driver/src/stm32f4xx_tim.c ****   * @retval None
1067:libs/STM32F4xx_StdPeriph_Driver/src/stm32f4xx_tim.c ****   */
1068:libs/STM32F4xx_StdPeriph_Driver/src/stm32f4xx_tim.c **** void TIM_SetCompare2(TIM_TypeDef* TIMx, uint32_t Compare2)
1069:libs/STM32F4xx_StdPeriph_Driver/src/stm32f4xx_tim.c **** {
 1947              		.loc 1 1069 0
 1948              		.cfi_startproc
 1949              		@ args = 0, pretend = 0, frame = 8
 1950              		@ frame_needed = 1, uses_anonymous_args = 0
 1951              		@ link register save eliminated.
 1952 0000 80B4     		push	{r7}
 1953              	.LCFI66:
 1954              		.cfi_def_cfa_offset 4
 1955              		.cfi_offset 7, -4
 1956 0002 83B0     		sub	sp, sp, #12
 1957              	.LCFI67:
 1958              		.cfi_def_cfa_offset 16
 1959 0004 00AF     		add	r7, sp, #0
 1960              	.LCFI68:
 1961              		.cfi_def_cfa_register 7
 1962 0006 7860     		str	r0, [r7, #4]
 1963 0008 3960     		str	r1, [r7]
1070:libs/STM32F4xx_StdPeriph_Driver/src/stm32f4xx_tim.c ****   /* Check the parameters */
1071:libs/STM32F4xx_StdPeriph_Driver/src/stm32f4xx_tim.c ****   assert_param(IS_TIM_LIST2_PERIPH(TIMx));
1072:libs/STM32F4xx_StdPeriph_Driver/src/stm32f4xx_tim.c **** 
1073:libs/STM32F4xx_StdPeriph_Driver/src/stm32f4xx_tim.c ****   /* Set the Capture Compare2 Register value */
1074:libs/STM32F4xx_StdPeriph_Driver/src/stm32f4xx_tim.c ****   TIMx->CCR2 = Compare2;
 1964              		.loc 1 1074 0
 1965 000a 7B68     		ldr	r3, [r7, #4]
 1966 000c 3A68     		ldr	r2, [r7]
 1967 000e 9A63     		str	r2, [r3, #56]
1075:libs/STM32F4xx_StdPeriph_Driver/src/stm32f4xx_tim.c **** }
 1968              		.loc 1 1075 0
 1969 0010 0C37     		adds	r7, r7, #12
 1970 0012 BD46     		mov	sp, r7
 1971              		@ sp needed
 1972 0014 5DF8047B 		ldr	r7, [sp], #4
 1973 0018 7047     		bx	lr
 1974              		.cfi_endproc
 1975              	.LFE132:
 1977 001a 00BF     		.section	.text.TIM_SetCompare3,"ax",%progbits
 1978              		.align	2
 1979              		.global	TIM_SetCompare3
 1980              		.thumb
 1981              		.thumb_func
 1983              	TIM_SetCompare3:
 1984              	.LFB133:
1076:libs/STM32F4xx_StdPeriph_Driver/src/stm32f4xx_tim.c **** 
1077:libs/STM32F4xx_StdPeriph_Driver/src/stm32f4xx_tim.c **** /**
1078:libs/STM32F4xx_StdPeriph_Driver/src/stm32f4xx_tim.c ****   * @brief  Sets the TIMx Capture Compare3 Register value
1079:libs/STM32F4xx_StdPeriph_Driver/src/stm32f4xx_tim.c ****   * @param  TIMx: where x can be 1, 2, 3, 4, 5 or 8 to select the TIM peripheral.
1080:libs/STM32F4xx_StdPeriph_Driver/src/stm32f4xx_tim.c ****   * @param  Compare3: specifies the Capture Compare3 register new value.
1081:libs/STM32F4xx_StdPeriph_Driver/src/stm32f4xx_tim.c ****   * @retval None
1082:libs/STM32F4xx_StdPeriph_Driver/src/stm32f4xx_tim.c ****   */
1083:libs/STM32F4xx_StdPeriph_Driver/src/stm32f4xx_tim.c **** void TIM_SetCompare3(TIM_TypeDef* TIMx, uint32_t Compare3)
1084:libs/STM32F4xx_StdPeriph_Driver/src/stm32f4xx_tim.c **** {
 1985              		.loc 1 1084 0
 1986              		.cfi_startproc
 1987              		@ args = 0, pretend = 0, frame = 8
 1988              		@ frame_needed = 1, uses_anonymous_args = 0
 1989              		@ link register save eliminated.
 1990 0000 80B4     		push	{r7}
 1991              	.LCFI69:
 1992              		.cfi_def_cfa_offset 4
 1993              		.cfi_offset 7, -4
 1994 0002 83B0     		sub	sp, sp, #12
 1995              	.LCFI70:
 1996              		.cfi_def_cfa_offset 16
 1997 0004 00AF     		add	r7, sp, #0
 1998              	.LCFI71:
 1999              		.cfi_def_cfa_register 7
 2000 0006 7860     		str	r0, [r7, #4]
 2001 0008 3960     		str	r1, [r7]
1085:libs/STM32F4xx_StdPeriph_Driver/src/stm32f4xx_tim.c ****   /* Check the parameters */
1086:libs/STM32F4xx_StdPeriph_Driver/src/stm32f4xx_tim.c ****   assert_param(IS_TIM_LIST3_PERIPH(TIMx));
1087:libs/STM32F4xx_StdPeriph_Driver/src/stm32f4xx_tim.c **** 
1088:libs/STM32F4xx_StdPeriph_Driver/src/stm32f4xx_tim.c ****   /* Set the Capture Compare3 Register value */
1089:libs/STM32F4xx_StdPeriph_Driver/src/stm32f4xx_tim.c ****   TIMx->CCR3 = Compare3;
 2002              		.loc 1 1089 0
 2003 000a 7B68     		ldr	r3, [r7, #4]
 2004 000c 3A68     		ldr	r2, [r7]
 2005 000e DA63     		str	r2, [r3, #60]
1090:libs/STM32F4xx_StdPeriph_Driver/src/stm32f4xx_tim.c **** }
 2006              		.loc 1 1090 0
 2007 0010 0C37     		adds	r7, r7, #12
 2008 0012 BD46     		mov	sp, r7
 2009              		@ sp needed
 2010 0014 5DF8047B 		ldr	r7, [sp], #4
 2011 0018 7047     		bx	lr
 2012              		.cfi_endproc
 2013              	.LFE133:
 2015 001a 00BF     		.section	.text.TIM_SetCompare4,"ax",%progbits
 2016              		.align	2
 2017              		.global	TIM_SetCompare4
 2018              		.thumb
 2019              		.thumb_func
 2021              	TIM_SetCompare4:
 2022              	.LFB134:
1091:libs/STM32F4xx_StdPeriph_Driver/src/stm32f4xx_tim.c **** 
1092:libs/STM32F4xx_StdPeriph_Driver/src/stm32f4xx_tim.c **** /**
1093:libs/STM32F4xx_StdPeriph_Driver/src/stm32f4xx_tim.c ****   * @brief  Sets the TIMx Capture Compare4 Register value
1094:libs/STM32F4xx_StdPeriph_Driver/src/stm32f4xx_tim.c ****   * @param  TIMx: where x can be 1, 2, 3, 4, 5 or 8 to select the TIM peripheral.
1095:libs/STM32F4xx_StdPeriph_Driver/src/stm32f4xx_tim.c ****   * @param  Compare4: specifies the Capture Compare4 register new value.
1096:libs/STM32F4xx_StdPeriph_Driver/src/stm32f4xx_tim.c ****   * @retval None
1097:libs/STM32F4xx_StdPeriph_Driver/src/stm32f4xx_tim.c ****   */
1098:libs/STM32F4xx_StdPeriph_Driver/src/stm32f4xx_tim.c **** void TIM_SetCompare4(TIM_TypeDef* TIMx, uint32_t Compare4)
1099:libs/STM32F4xx_StdPeriph_Driver/src/stm32f4xx_tim.c **** {
 2023              		.loc 1 1099 0
 2024              		.cfi_startproc
 2025              		@ args = 0, pretend = 0, frame = 8
 2026              		@ frame_needed = 1, uses_anonymous_args = 0
 2027              		@ link register save eliminated.
 2028 0000 80B4     		push	{r7}
 2029              	.LCFI72:
 2030              		.cfi_def_cfa_offset 4
 2031              		.cfi_offset 7, -4
 2032 0002 83B0     		sub	sp, sp, #12
 2033              	.LCFI73:
 2034              		.cfi_def_cfa_offset 16
 2035 0004 00AF     		add	r7, sp, #0
 2036              	.LCFI74:
 2037              		.cfi_def_cfa_register 7
 2038 0006 7860     		str	r0, [r7, #4]
 2039 0008 3960     		str	r1, [r7]
1100:libs/STM32F4xx_StdPeriph_Driver/src/stm32f4xx_tim.c ****   /* Check the parameters */
1101:libs/STM32F4xx_StdPeriph_Driver/src/stm32f4xx_tim.c ****   assert_param(IS_TIM_LIST3_PERIPH(TIMx));
1102:libs/STM32F4xx_StdPeriph_Driver/src/stm32f4xx_tim.c **** 
1103:libs/STM32F4xx_StdPeriph_Driver/src/stm32f4xx_tim.c ****   /* Set the Capture Compare4 Register value */
1104:libs/STM32F4xx_StdPeriph_Driver/src/stm32f4xx_tim.c ****   TIMx->CCR4 = Compare4;
 2040              		.loc 1 1104 0
 2041 000a 7B68     		ldr	r3, [r7, #4]
 2042 000c 3A68     		ldr	r2, [r7]
 2043 000e 1A64     		str	r2, [r3, #64]
1105:libs/STM32F4xx_StdPeriph_Driver/src/stm32f4xx_tim.c **** }
 2044              		.loc 1 1105 0
 2045 0010 0C37     		adds	r7, r7, #12
 2046 0012 BD46     		mov	sp, r7
 2047              		@ sp needed
 2048 0014 5DF8047B 		ldr	r7, [sp], #4
 2049 0018 7047     		bx	lr
 2050              		.cfi_endproc
 2051              	.LFE134:
 2053 001a 00BF     		.section	.text.TIM_ForcedOC1Config,"ax",%progbits
 2054              		.align	2
 2055              		.global	TIM_ForcedOC1Config
 2056              		.thumb
 2057              		.thumb_func
 2059              	TIM_ForcedOC1Config:
 2060              	.LFB135:
1106:libs/STM32F4xx_StdPeriph_Driver/src/stm32f4xx_tim.c **** 
1107:libs/STM32F4xx_StdPeriph_Driver/src/stm32f4xx_tim.c **** /**
1108:libs/STM32F4xx_StdPeriph_Driver/src/stm32f4xx_tim.c ****   * @brief  Forces the TIMx output 1 waveform to active or inactive level.
1109:libs/STM32F4xx_StdPeriph_Driver/src/stm32f4xx_tim.c ****   * @param  TIMx: where x can be 1 to 14 except 6 and 7, to select the TIM peripheral.
1110:libs/STM32F4xx_StdPeriph_Driver/src/stm32f4xx_tim.c ****   * @param  TIM_ForcedAction: specifies the forced Action to be set to the output waveform.
1111:libs/STM32F4xx_StdPeriph_Driver/src/stm32f4xx_tim.c ****   *          This parameter can be one of the following values:
1112:libs/STM32F4xx_StdPeriph_Driver/src/stm32f4xx_tim.c ****   *            @arg TIM_ForcedAction_Active: Force active level on OC1REF
1113:libs/STM32F4xx_StdPeriph_Driver/src/stm32f4xx_tim.c ****   *            @arg TIM_ForcedAction_InActive: Force inactive level on OC1REF.
1114:libs/STM32F4xx_StdPeriph_Driver/src/stm32f4xx_tim.c ****   * @retval None
1115:libs/STM32F4xx_StdPeriph_Driver/src/stm32f4xx_tim.c ****   */
1116:libs/STM32F4xx_StdPeriph_Driver/src/stm32f4xx_tim.c **** void TIM_ForcedOC1Config(TIM_TypeDef* TIMx, uint16_t TIM_ForcedAction)
1117:libs/STM32F4xx_StdPeriph_Driver/src/stm32f4xx_tim.c **** {
 2061              		.loc 1 1117 0
 2062              		.cfi_startproc
 2063              		@ args = 0, pretend = 0, frame = 16
 2064              		@ frame_needed = 1, uses_anonymous_args = 0
 2065              		@ link register save eliminated.
 2066 0000 80B4     		push	{r7}
 2067              	.LCFI75:
 2068              		.cfi_def_cfa_offset 4
 2069              		.cfi_offset 7, -4
 2070 0002 85B0     		sub	sp, sp, #20
 2071              	.LCFI76:
 2072              		.cfi_def_cfa_offset 24
 2073 0004 00AF     		add	r7, sp, #0
 2074              	.LCFI77:
 2075              		.cfi_def_cfa_register 7
 2076 0006 7860     		str	r0, [r7, #4]
 2077 0008 0B46     		mov	r3, r1
 2078 000a 7B80     		strh	r3, [r7, #2]	@ movhi
1118:libs/STM32F4xx_StdPeriph_Driver/src/stm32f4xx_tim.c ****   uint16_t tmpccmr1 = 0;
 2079              		.loc 1 1118 0
 2080 000c 0023     		movs	r3, #0
 2081 000e FB81     		strh	r3, [r7, #14]	@ movhi
1119:libs/STM32F4xx_StdPeriph_Driver/src/stm32f4xx_tim.c **** 
1120:libs/STM32F4xx_StdPeriph_Driver/src/stm32f4xx_tim.c ****   /* Check the parameters */
1121:libs/STM32F4xx_StdPeriph_Driver/src/stm32f4xx_tim.c ****   assert_param(IS_TIM_LIST1_PERIPH(TIMx));
1122:libs/STM32F4xx_StdPeriph_Driver/src/stm32f4xx_tim.c ****   assert_param(IS_TIM_FORCED_ACTION(TIM_ForcedAction));
1123:libs/STM32F4xx_StdPeriph_Driver/src/stm32f4xx_tim.c ****   tmpccmr1 = TIMx->CCMR1;
 2082              		.loc 1 1123 0
 2083 0010 7B68     		ldr	r3, [r7, #4]
 2084 0012 1B8B     		ldrh	r3, [r3, #24]	@ movhi
 2085 0014 FB81     		strh	r3, [r7, #14]	@ movhi
1124:libs/STM32F4xx_StdPeriph_Driver/src/stm32f4xx_tim.c **** 
1125:libs/STM32F4xx_StdPeriph_Driver/src/stm32f4xx_tim.c ****   /* Reset the OC1M Bits */
1126:libs/STM32F4xx_StdPeriph_Driver/src/stm32f4xx_tim.c ****   tmpccmr1 &= (uint16_t)~TIM_CCMR1_OC1M;
 2086              		.loc 1 1126 0
 2087 0016 FB89     		ldrh	r3, [r7, #14]	@ movhi
 2088 0018 23F07003 		bic	r3, r3, #112
 2089 001c FB81     		strh	r3, [r7, #14]	@ movhi
1127:libs/STM32F4xx_StdPeriph_Driver/src/stm32f4xx_tim.c **** 
1128:libs/STM32F4xx_StdPeriph_Driver/src/stm32f4xx_tim.c ****   /* Configure The Forced output Mode */
1129:libs/STM32F4xx_StdPeriph_Driver/src/stm32f4xx_tim.c ****   tmpccmr1 |= TIM_ForcedAction;
 2090              		.loc 1 1129 0
 2091 001e FA89     		ldrh	r2, [r7, #14]	@ movhi
 2092 0020 7B88     		ldrh	r3, [r7, #2]	@ movhi
 2093 0022 1343     		orrs	r3, r3, r2
 2094 0024 FB81     		strh	r3, [r7, #14]	@ movhi
1130:libs/STM32F4xx_StdPeriph_Driver/src/stm32f4xx_tim.c **** 
1131:libs/STM32F4xx_StdPeriph_Driver/src/stm32f4xx_tim.c ****   /* Write to TIMx CCMR1 register */
1132:libs/STM32F4xx_StdPeriph_Driver/src/stm32f4xx_tim.c ****   TIMx->CCMR1 = tmpccmr1;
 2095              		.loc 1 1132 0
 2096 0026 7B68     		ldr	r3, [r7, #4]
 2097 0028 FA89     		ldrh	r2, [r7, #14]	@ movhi
 2098 002a 1A83     		strh	r2, [r3, #24]	@ movhi
1133:libs/STM32F4xx_StdPeriph_Driver/src/stm32f4xx_tim.c **** }
 2099              		.loc 1 1133 0
 2100 002c 1437     		adds	r7, r7, #20
 2101 002e BD46     		mov	sp, r7
 2102              		@ sp needed
 2103 0030 5DF8047B 		ldr	r7, [sp], #4
 2104 0034 7047     		bx	lr
 2105              		.cfi_endproc
 2106              	.LFE135:
 2108 0036 00BF     		.section	.text.TIM_ForcedOC2Config,"ax",%progbits
 2109              		.align	2
 2110              		.global	TIM_ForcedOC2Config
 2111              		.thumb
 2112              		.thumb_func
 2114              	TIM_ForcedOC2Config:
 2115              	.LFB136:
1134:libs/STM32F4xx_StdPeriph_Driver/src/stm32f4xx_tim.c **** 
1135:libs/STM32F4xx_StdPeriph_Driver/src/stm32f4xx_tim.c **** /**
1136:libs/STM32F4xx_StdPeriph_Driver/src/stm32f4xx_tim.c ****   * @brief  Forces the TIMx output 2 waveform to active or inactive level.
1137:libs/STM32F4xx_StdPeriph_Driver/src/stm32f4xx_tim.c ****   * @param  TIMx: where x can be  1, 2, 3, 4, 5, 8, 9 or 12 to select the TIM 
1138:libs/STM32F4xx_StdPeriph_Driver/src/stm32f4xx_tim.c ****   *         peripheral.
1139:libs/STM32F4xx_StdPeriph_Driver/src/stm32f4xx_tim.c ****   * @param  TIM_ForcedAction: specifies the forced Action to be set to the output waveform.
1140:libs/STM32F4xx_StdPeriph_Driver/src/stm32f4xx_tim.c ****   *          This parameter can be one of the following values:
1141:libs/STM32F4xx_StdPeriph_Driver/src/stm32f4xx_tim.c ****   *            @arg TIM_ForcedAction_Active: Force active level on OC2REF
1142:libs/STM32F4xx_StdPeriph_Driver/src/stm32f4xx_tim.c ****   *            @arg TIM_ForcedAction_InActive: Force inactive level on OC2REF.
1143:libs/STM32F4xx_StdPeriph_Driver/src/stm32f4xx_tim.c ****   * @retval None
1144:libs/STM32F4xx_StdPeriph_Driver/src/stm32f4xx_tim.c ****   */
1145:libs/STM32F4xx_StdPeriph_Driver/src/stm32f4xx_tim.c **** void TIM_ForcedOC2Config(TIM_TypeDef* TIMx, uint16_t TIM_ForcedAction)
1146:libs/STM32F4xx_StdPeriph_Driver/src/stm32f4xx_tim.c **** {
 2116              		.loc 1 1146 0
 2117              		.cfi_startproc
 2118              		@ args = 0, pretend = 0, frame = 16
 2119              		@ frame_needed = 1, uses_anonymous_args = 0
 2120              		@ link register save eliminated.
 2121 0000 80B4     		push	{r7}
 2122              	.LCFI78:
 2123              		.cfi_def_cfa_offset 4
 2124              		.cfi_offset 7, -4
 2125 0002 85B0     		sub	sp, sp, #20
 2126              	.LCFI79:
 2127              		.cfi_def_cfa_offset 24
 2128 0004 00AF     		add	r7, sp, #0
 2129              	.LCFI80:
 2130              		.cfi_def_cfa_register 7
 2131 0006 7860     		str	r0, [r7, #4]
 2132 0008 0B46     		mov	r3, r1
 2133 000a 7B80     		strh	r3, [r7, #2]	@ movhi
1147:libs/STM32F4xx_StdPeriph_Driver/src/stm32f4xx_tim.c ****   uint16_t tmpccmr1 = 0;
 2134              		.loc 1 1147 0
 2135 000c 0023     		movs	r3, #0
 2136 000e FB81     		strh	r3, [r7, #14]	@ movhi
1148:libs/STM32F4xx_StdPeriph_Driver/src/stm32f4xx_tim.c **** 
1149:libs/STM32F4xx_StdPeriph_Driver/src/stm32f4xx_tim.c ****   /* Check the parameters */
1150:libs/STM32F4xx_StdPeriph_Driver/src/stm32f4xx_tim.c ****   assert_param(IS_TIM_LIST2_PERIPH(TIMx));
1151:libs/STM32F4xx_StdPeriph_Driver/src/stm32f4xx_tim.c ****   assert_param(IS_TIM_FORCED_ACTION(TIM_ForcedAction));
1152:libs/STM32F4xx_StdPeriph_Driver/src/stm32f4xx_tim.c ****   tmpccmr1 = TIMx->CCMR1;
 2137              		.loc 1 1152 0
 2138 0010 7B68     		ldr	r3, [r7, #4]
 2139 0012 1B8B     		ldrh	r3, [r3, #24]	@ movhi
 2140 0014 FB81     		strh	r3, [r7, #14]	@ movhi
1153:libs/STM32F4xx_StdPeriph_Driver/src/stm32f4xx_tim.c **** 
1154:libs/STM32F4xx_StdPeriph_Driver/src/stm32f4xx_tim.c ****   /* Reset the OC2M Bits */
1155:libs/STM32F4xx_StdPeriph_Driver/src/stm32f4xx_tim.c ****   tmpccmr1 &= (uint16_t)~TIM_CCMR1_OC2M;
 2141              		.loc 1 1155 0
 2142 0016 FB89     		ldrh	r3, [r7, #14]	@ movhi
 2143 0018 23F4E043 		bic	r3, r3, #28672
 2144 001c FB81     		strh	r3, [r7, #14]	@ movhi
1156:libs/STM32F4xx_StdPeriph_Driver/src/stm32f4xx_tim.c **** 
1157:libs/STM32F4xx_StdPeriph_Driver/src/stm32f4xx_tim.c ****   /* Configure The Forced output Mode */
1158:libs/STM32F4xx_StdPeriph_Driver/src/stm32f4xx_tim.c ****   tmpccmr1 |= (uint16_t)(TIM_ForcedAction << 8);
 2145              		.loc 1 1158 0
 2146 001e 7B88     		ldrh	r3, [r7, #2]	@ movhi
 2147 0020 1B02     		lsls	r3, r3, #8
 2148 0022 9AB2     		uxth	r2, r3
 2149 0024 FB89     		ldrh	r3, [r7, #14]	@ movhi
 2150 0026 1343     		orrs	r3, r3, r2
 2151 0028 FB81     		strh	r3, [r7, #14]	@ movhi
1159:libs/STM32F4xx_StdPeriph_Driver/src/stm32f4xx_tim.c **** 
1160:libs/STM32F4xx_StdPeriph_Driver/src/stm32f4xx_tim.c ****   /* Write to TIMx CCMR1 register */
1161:libs/STM32F4xx_StdPeriph_Driver/src/stm32f4xx_tim.c ****   TIMx->CCMR1 = tmpccmr1;
 2152              		.loc 1 1161 0
 2153 002a 7B68     		ldr	r3, [r7, #4]
 2154 002c FA89     		ldrh	r2, [r7, #14]	@ movhi
 2155 002e 1A83     		strh	r2, [r3, #24]	@ movhi
1162:libs/STM32F4xx_StdPeriph_Driver/src/stm32f4xx_tim.c **** }
 2156              		.loc 1 1162 0
 2157 0030 1437     		adds	r7, r7, #20
 2158 0032 BD46     		mov	sp, r7
 2159              		@ sp needed
 2160 0034 5DF8047B 		ldr	r7, [sp], #4
 2161 0038 7047     		bx	lr
 2162              		.cfi_endproc
 2163              	.LFE136:
 2165 003a 00BF     		.section	.text.TIM_ForcedOC3Config,"ax",%progbits
 2166              		.align	2
 2167              		.global	TIM_ForcedOC3Config
 2168              		.thumb
 2169              		.thumb_func
 2171              	TIM_ForcedOC3Config:
 2172              	.LFB137:
1163:libs/STM32F4xx_StdPeriph_Driver/src/stm32f4xx_tim.c **** 
1164:libs/STM32F4xx_StdPeriph_Driver/src/stm32f4xx_tim.c **** /**
1165:libs/STM32F4xx_StdPeriph_Driver/src/stm32f4xx_tim.c ****   * @brief  Forces the TIMx output 3 waveform to active or inactive level.
1166:libs/STM32F4xx_StdPeriph_Driver/src/stm32f4xx_tim.c ****   * @param  TIMx: where x can be  1, 2, 3, 4, 5 or 8 to select the TIM peripheral.
1167:libs/STM32F4xx_StdPeriph_Driver/src/stm32f4xx_tim.c ****   * @param  TIM_ForcedAction: specifies the forced Action to be set to the output waveform.
1168:libs/STM32F4xx_StdPeriph_Driver/src/stm32f4xx_tim.c ****   *          This parameter can be one of the following values:
1169:libs/STM32F4xx_StdPeriph_Driver/src/stm32f4xx_tim.c ****   *            @arg TIM_ForcedAction_Active: Force active level on OC3REF
1170:libs/STM32F4xx_StdPeriph_Driver/src/stm32f4xx_tim.c ****   *            @arg TIM_ForcedAction_InActive: Force inactive level on OC3REF.
1171:libs/STM32F4xx_StdPeriph_Driver/src/stm32f4xx_tim.c ****   * @retval None
1172:libs/STM32F4xx_StdPeriph_Driver/src/stm32f4xx_tim.c ****   */
1173:libs/STM32F4xx_StdPeriph_Driver/src/stm32f4xx_tim.c **** void TIM_ForcedOC3Config(TIM_TypeDef* TIMx, uint16_t TIM_ForcedAction)
1174:libs/STM32F4xx_StdPeriph_Driver/src/stm32f4xx_tim.c **** {
 2173              		.loc 1 1174 0
 2174              		.cfi_startproc
 2175              		@ args = 0, pretend = 0, frame = 16
 2176              		@ frame_needed = 1, uses_anonymous_args = 0
 2177              		@ link register save eliminated.
 2178 0000 80B4     		push	{r7}
 2179              	.LCFI81:
 2180              		.cfi_def_cfa_offset 4
 2181              		.cfi_offset 7, -4
 2182 0002 85B0     		sub	sp, sp, #20
 2183              	.LCFI82:
 2184              		.cfi_def_cfa_offset 24
 2185 0004 00AF     		add	r7, sp, #0
 2186              	.LCFI83:
 2187              		.cfi_def_cfa_register 7
 2188 0006 7860     		str	r0, [r7, #4]
 2189 0008 0B46     		mov	r3, r1
 2190 000a 7B80     		strh	r3, [r7, #2]	@ movhi
1175:libs/STM32F4xx_StdPeriph_Driver/src/stm32f4xx_tim.c ****   uint16_t tmpccmr2 = 0;
 2191              		.loc 1 1175 0
 2192 000c 0023     		movs	r3, #0
 2193 000e FB81     		strh	r3, [r7, #14]	@ movhi
1176:libs/STM32F4xx_StdPeriph_Driver/src/stm32f4xx_tim.c **** 
1177:libs/STM32F4xx_StdPeriph_Driver/src/stm32f4xx_tim.c ****   /* Check the parameters */
1178:libs/STM32F4xx_StdPeriph_Driver/src/stm32f4xx_tim.c ****   assert_param(IS_TIM_LIST3_PERIPH(TIMx));
1179:libs/STM32F4xx_StdPeriph_Driver/src/stm32f4xx_tim.c ****   assert_param(IS_TIM_FORCED_ACTION(TIM_ForcedAction));
1180:libs/STM32F4xx_StdPeriph_Driver/src/stm32f4xx_tim.c **** 
1181:libs/STM32F4xx_StdPeriph_Driver/src/stm32f4xx_tim.c ****   tmpccmr2 = TIMx->CCMR2;
 2194              		.loc 1 1181 0
 2195 0010 7B68     		ldr	r3, [r7, #4]
 2196 0012 9B8B     		ldrh	r3, [r3, #28]	@ movhi
 2197 0014 FB81     		strh	r3, [r7, #14]	@ movhi
1182:libs/STM32F4xx_StdPeriph_Driver/src/stm32f4xx_tim.c **** 
1183:libs/STM32F4xx_StdPeriph_Driver/src/stm32f4xx_tim.c ****   /* Reset the OC1M Bits */
1184:libs/STM32F4xx_StdPeriph_Driver/src/stm32f4xx_tim.c ****   tmpccmr2 &= (uint16_t)~TIM_CCMR2_OC3M;
 2198              		.loc 1 1184 0
 2199 0016 FB89     		ldrh	r3, [r7, #14]	@ movhi
 2200 0018 23F07003 		bic	r3, r3, #112
 2201 001c FB81     		strh	r3, [r7, #14]	@ movhi
1185:libs/STM32F4xx_StdPeriph_Driver/src/stm32f4xx_tim.c **** 
1186:libs/STM32F4xx_StdPeriph_Driver/src/stm32f4xx_tim.c ****   /* Configure The Forced output Mode */
1187:libs/STM32F4xx_StdPeriph_Driver/src/stm32f4xx_tim.c ****   tmpccmr2 |= TIM_ForcedAction;
 2202              		.loc 1 1187 0
 2203 001e FA89     		ldrh	r2, [r7, #14]	@ movhi
 2204 0020 7B88     		ldrh	r3, [r7, #2]	@ movhi
 2205 0022 1343     		orrs	r3, r3, r2
 2206 0024 FB81     		strh	r3, [r7, #14]	@ movhi
1188:libs/STM32F4xx_StdPeriph_Driver/src/stm32f4xx_tim.c **** 
1189:libs/STM32F4xx_StdPeriph_Driver/src/stm32f4xx_tim.c ****   /* Write to TIMx CCMR2 register */
1190:libs/STM32F4xx_StdPeriph_Driver/src/stm32f4xx_tim.c ****   TIMx->CCMR2 = tmpccmr2;
 2207              		.loc 1 1190 0
 2208 0026 7B68     		ldr	r3, [r7, #4]
 2209 0028 FA89     		ldrh	r2, [r7, #14]	@ movhi
 2210 002a 9A83     		strh	r2, [r3, #28]	@ movhi
1191:libs/STM32F4xx_StdPeriph_Driver/src/stm32f4xx_tim.c **** }
 2211              		.loc 1 1191 0
 2212 002c 1437     		adds	r7, r7, #20
 2213 002e BD46     		mov	sp, r7
 2214              		@ sp needed
 2215 0030 5DF8047B 		ldr	r7, [sp], #4
 2216 0034 7047     		bx	lr
 2217              		.cfi_endproc
 2218              	.LFE137:
 2220 0036 00BF     		.section	.text.TIM_ForcedOC4Config,"ax",%progbits
 2221              		.align	2
 2222              		.global	TIM_ForcedOC4Config
 2223              		.thumb
 2224              		.thumb_func
 2226              	TIM_ForcedOC4Config:
 2227              	.LFB138:
1192:libs/STM32F4xx_StdPeriph_Driver/src/stm32f4xx_tim.c **** 
1193:libs/STM32F4xx_StdPeriph_Driver/src/stm32f4xx_tim.c **** /**
1194:libs/STM32F4xx_StdPeriph_Driver/src/stm32f4xx_tim.c ****   * @brief  Forces the TIMx output 4 waveform to active or inactive level.
1195:libs/STM32F4xx_StdPeriph_Driver/src/stm32f4xx_tim.c ****   * @param  TIMx: where x can be  1, 2, 3, 4, 5 or 8 to select the TIM peripheral.
1196:libs/STM32F4xx_StdPeriph_Driver/src/stm32f4xx_tim.c ****   * @param  TIM_ForcedAction: specifies the forced Action to be set to the output waveform.
1197:libs/STM32F4xx_StdPeriph_Driver/src/stm32f4xx_tim.c ****   *          This parameter can be one of the following values:
1198:libs/STM32F4xx_StdPeriph_Driver/src/stm32f4xx_tim.c ****   *            @arg TIM_ForcedAction_Active: Force active level on OC4REF
1199:libs/STM32F4xx_StdPeriph_Driver/src/stm32f4xx_tim.c ****   *            @arg TIM_ForcedAction_InActive: Force inactive level on OC4REF.
1200:libs/STM32F4xx_StdPeriph_Driver/src/stm32f4xx_tim.c ****   * @retval None
1201:libs/STM32F4xx_StdPeriph_Driver/src/stm32f4xx_tim.c ****   */
1202:libs/STM32F4xx_StdPeriph_Driver/src/stm32f4xx_tim.c **** void TIM_ForcedOC4Config(TIM_TypeDef* TIMx, uint16_t TIM_ForcedAction)
1203:libs/STM32F4xx_StdPeriph_Driver/src/stm32f4xx_tim.c **** {
 2228              		.loc 1 1203 0
 2229              		.cfi_startproc
 2230              		@ args = 0, pretend = 0, frame = 16
 2231              		@ frame_needed = 1, uses_anonymous_args = 0
 2232              		@ link register save eliminated.
 2233 0000 80B4     		push	{r7}
 2234              	.LCFI84:
 2235              		.cfi_def_cfa_offset 4
 2236              		.cfi_offset 7, -4
 2237 0002 85B0     		sub	sp, sp, #20
 2238              	.LCFI85:
 2239              		.cfi_def_cfa_offset 24
 2240 0004 00AF     		add	r7, sp, #0
 2241              	.LCFI86:
 2242              		.cfi_def_cfa_register 7
 2243 0006 7860     		str	r0, [r7, #4]
 2244 0008 0B46     		mov	r3, r1
 2245 000a 7B80     		strh	r3, [r7, #2]	@ movhi
1204:libs/STM32F4xx_StdPeriph_Driver/src/stm32f4xx_tim.c ****   uint16_t tmpccmr2 = 0;
 2246              		.loc 1 1204 0
 2247 000c 0023     		movs	r3, #0
 2248 000e FB81     		strh	r3, [r7, #14]	@ movhi
1205:libs/STM32F4xx_StdPeriph_Driver/src/stm32f4xx_tim.c **** 
1206:libs/STM32F4xx_StdPeriph_Driver/src/stm32f4xx_tim.c ****   /* Check the parameters */
1207:libs/STM32F4xx_StdPeriph_Driver/src/stm32f4xx_tim.c ****   assert_param(IS_TIM_LIST3_PERIPH(TIMx));
1208:libs/STM32F4xx_StdPeriph_Driver/src/stm32f4xx_tim.c ****   assert_param(IS_TIM_FORCED_ACTION(TIM_ForcedAction));
1209:libs/STM32F4xx_StdPeriph_Driver/src/stm32f4xx_tim.c ****   tmpccmr2 = TIMx->CCMR2;
 2249              		.loc 1 1209 0
 2250 0010 7B68     		ldr	r3, [r7, #4]
 2251 0012 9B8B     		ldrh	r3, [r3, #28]	@ movhi
 2252 0014 FB81     		strh	r3, [r7, #14]	@ movhi
1210:libs/STM32F4xx_StdPeriph_Driver/src/stm32f4xx_tim.c **** 
1211:libs/STM32F4xx_StdPeriph_Driver/src/stm32f4xx_tim.c ****   /* Reset the OC2M Bits */
1212:libs/STM32F4xx_StdPeriph_Driver/src/stm32f4xx_tim.c ****   tmpccmr2 &= (uint16_t)~TIM_CCMR2_OC4M;
 2253              		.loc 1 1212 0
 2254 0016 FB89     		ldrh	r3, [r7, #14]	@ movhi
 2255 0018 23F4E043 		bic	r3, r3, #28672
 2256 001c FB81     		strh	r3, [r7, #14]	@ movhi
1213:libs/STM32F4xx_StdPeriph_Driver/src/stm32f4xx_tim.c **** 
1214:libs/STM32F4xx_StdPeriph_Driver/src/stm32f4xx_tim.c ****   /* Configure The Forced output Mode */
1215:libs/STM32F4xx_StdPeriph_Driver/src/stm32f4xx_tim.c ****   tmpccmr2 |= (uint16_t)(TIM_ForcedAction << 8);
 2257              		.loc 1 1215 0
 2258 001e 7B88     		ldrh	r3, [r7, #2]	@ movhi
 2259 0020 1B02     		lsls	r3, r3, #8
 2260 0022 9AB2     		uxth	r2, r3
 2261 0024 FB89     		ldrh	r3, [r7, #14]	@ movhi
 2262 0026 1343     		orrs	r3, r3, r2
 2263 0028 FB81     		strh	r3, [r7, #14]	@ movhi
1216:libs/STM32F4xx_StdPeriph_Driver/src/stm32f4xx_tim.c **** 
1217:libs/STM32F4xx_StdPeriph_Driver/src/stm32f4xx_tim.c ****   /* Write to TIMx CCMR2 register */
1218:libs/STM32F4xx_StdPeriph_Driver/src/stm32f4xx_tim.c ****   TIMx->CCMR2 = tmpccmr2;
 2264              		.loc 1 1218 0
 2265 002a 7B68     		ldr	r3, [r7, #4]
 2266 002c FA89     		ldrh	r2, [r7, #14]	@ movhi
 2267 002e 9A83     		strh	r2, [r3, #28]	@ movhi
1219:libs/STM32F4xx_StdPeriph_Driver/src/stm32f4xx_tim.c **** }
 2268              		.loc 1 1219 0
 2269 0030 1437     		adds	r7, r7, #20
 2270 0032 BD46     		mov	sp, r7
 2271              		@ sp needed
 2272 0034 5DF8047B 		ldr	r7, [sp], #4
 2273 0038 7047     		bx	lr
 2274              		.cfi_endproc
 2275              	.LFE138:
 2277 003a 00BF     		.section	.text.TIM_OC1PreloadConfig,"ax",%progbits
 2278              		.align	2
 2279              		.global	TIM_OC1PreloadConfig
 2280              		.thumb
 2281              		.thumb_func
 2283              	TIM_OC1PreloadConfig:
 2284              	.LFB139:
1220:libs/STM32F4xx_StdPeriph_Driver/src/stm32f4xx_tim.c **** 
1221:libs/STM32F4xx_StdPeriph_Driver/src/stm32f4xx_tim.c **** /**
1222:libs/STM32F4xx_StdPeriph_Driver/src/stm32f4xx_tim.c ****   * @brief  Enables or disables the TIMx peripheral Preload register on CCR1.
1223:libs/STM32F4xx_StdPeriph_Driver/src/stm32f4xx_tim.c ****   * @param  TIMx: where x can be 1 to 14 except 6 and 7, to select the TIM peripheral.
1224:libs/STM32F4xx_StdPeriph_Driver/src/stm32f4xx_tim.c ****   * @param  TIM_OCPreload: new state of the TIMx peripheral Preload register
1225:libs/STM32F4xx_StdPeriph_Driver/src/stm32f4xx_tim.c ****   *          This parameter can be one of the following values:
1226:libs/STM32F4xx_StdPeriph_Driver/src/stm32f4xx_tim.c ****   *            @arg TIM_OCPreload_Enable
1227:libs/STM32F4xx_StdPeriph_Driver/src/stm32f4xx_tim.c ****   *            @arg TIM_OCPreload_Disable
1228:libs/STM32F4xx_StdPeriph_Driver/src/stm32f4xx_tim.c ****   * @retval None
1229:libs/STM32F4xx_StdPeriph_Driver/src/stm32f4xx_tim.c ****   */
1230:libs/STM32F4xx_StdPeriph_Driver/src/stm32f4xx_tim.c **** void TIM_OC1PreloadConfig(TIM_TypeDef* TIMx, uint16_t TIM_OCPreload)
1231:libs/STM32F4xx_StdPeriph_Driver/src/stm32f4xx_tim.c **** {
 2285              		.loc 1 1231 0
 2286              		.cfi_startproc
 2287              		@ args = 0, pretend = 0, frame = 16
 2288              		@ frame_needed = 1, uses_anonymous_args = 0
 2289              		@ link register save eliminated.
 2290 0000 80B4     		push	{r7}
 2291              	.LCFI87:
 2292              		.cfi_def_cfa_offset 4
 2293              		.cfi_offset 7, -4
 2294 0002 85B0     		sub	sp, sp, #20
 2295              	.LCFI88:
 2296              		.cfi_def_cfa_offset 24
 2297 0004 00AF     		add	r7, sp, #0
 2298              	.LCFI89:
 2299              		.cfi_def_cfa_register 7
 2300 0006 7860     		str	r0, [r7, #4]
 2301 0008 0B46     		mov	r3, r1
 2302 000a 7B80     		strh	r3, [r7, #2]	@ movhi
1232:libs/STM32F4xx_StdPeriph_Driver/src/stm32f4xx_tim.c ****   uint16_t tmpccmr1 = 0;
 2303              		.loc 1 1232 0
 2304 000c 0023     		movs	r3, #0
 2305 000e FB81     		strh	r3, [r7, #14]	@ movhi
1233:libs/STM32F4xx_StdPeriph_Driver/src/stm32f4xx_tim.c **** 
1234:libs/STM32F4xx_StdPeriph_Driver/src/stm32f4xx_tim.c ****   /* Check the parameters */
1235:libs/STM32F4xx_StdPeriph_Driver/src/stm32f4xx_tim.c ****   assert_param(IS_TIM_LIST1_PERIPH(TIMx));
1236:libs/STM32F4xx_StdPeriph_Driver/src/stm32f4xx_tim.c ****   assert_param(IS_TIM_OCPRELOAD_STATE(TIM_OCPreload));
1237:libs/STM32F4xx_StdPeriph_Driver/src/stm32f4xx_tim.c **** 
1238:libs/STM32F4xx_StdPeriph_Driver/src/stm32f4xx_tim.c ****   tmpccmr1 = TIMx->CCMR1;
 2306              		.loc 1 1238 0
 2307 0010 7B68     		ldr	r3, [r7, #4]
 2308 0012 1B8B     		ldrh	r3, [r3, #24]	@ movhi
 2309 0014 FB81     		strh	r3, [r7, #14]	@ movhi
1239:libs/STM32F4xx_StdPeriph_Driver/src/stm32f4xx_tim.c **** 
1240:libs/STM32F4xx_StdPeriph_Driver/src/stm32f4xx_tim.c ****   /* Reset the OC1PE Bit */
1241:libs/STM32F4xx_StdPeriph_Driver/src/stm32f4xx_tim.c ****   tmpccmr1 &= (uint16_t)(~TIM_CCMR1_OC1PE);
 2310              		.loc 1 1241 0
 2311 0016 FB89     		ldrh	r3, [r7, #14]	@ movhi
 2312 0018 23F00803 		bic	r3, r3, #8
 2313 001c FB81     		strh	r3, [r7, #14]	@ movhi
1242:libs/STM32F4xx_StdPeriph_Driver/src/stm32f4xx_tim.c **** 
1243:libs/STM32F4xx_StdPeriph_Driver/src/stm32f4xx_tim.c ****   /* Enable or Disable the Output Compare Preload feature */
1244:libs/STM32F4xx_StdPeriph_Driver/src/stm32f4xx_tim.c ****   tmpccmr1 |= TIM_OCPreload;
 2314              		.loc 1 1244 0
 2315 001e FA89     		ldrh	r2, [r7, #14]	@ movhi
 2316 0020 7B88     		ldrh	r3, [r7, #2]	@ movhi
 2317 0022 1343     		orrs	r3, r3, r2
 2318 0024 FB81     		strh	r3, [r7, #14]	@ movhi
1245:libs/STM32F4xx_StdPeriph_Driver/src/stm32f4xx_tim.c **** 
1246:libs/STM32F4xx_StdPeriph_Driver/src/stm32f4xx_tim.c ****   /* Write to TIMx CCMR1 register */
1247:libs/STM32F4xx_StdPeriph_Driver/src/stm32f4xx_tim.c ****   TIMx->CCMR1 = tmpccmr1;
 2319              		.loc 1 1247 0
 2320 0026 7B68     		ldr	r3, [r7, #4]
 2321 0028 FA89     		ldrh	r2, [r7, #14]	@ movhi
 2322 002a 1A83     		strh	r2, [r3, #24]	@ movhi
1248:libs/STM32F4xx_StdPeriph_Driver/src/stm32f4xx_tim.c **** }
 2323              		.loc 1 1248 0
 2324 002c 1437     		adds	r7, r7, #20
 2325 002e BD46     		mov	sp, r7
 2326              		@ sp needed
 2327 0030 5DF8047B 		ldr	r7, [sp], #4
 2328 0034 7047     		bx	lr
 2329              		.cfi_endproc
 2330              	.LFE139:
 2332 0036 00BF     		.section	.text.TIM_OC2PreloadConfig,"ax",%progbits
 2333              		.align	2
 2334              		.global	TIM_OC2PreloadConfig
 2335              		.thumb
 2336              		.thumb_func
 2338              	TIM_OC2PreloadConfig:
 2339              	.LFB140:
1249:libs/STM32F4xx_StdPeriph_Driver/src/stm32f4xx_tim.c **** 
1250:libs/STM32F4xx_StdPeriph_Driver/src/stm32f4xx_tim.c **** /**
1251:libs/STM32F4xx_StdPeriph_Driver/src/stm32f4xx_tim.c ****   * @brief  Enables or disables the TIMx peripheral Preload register on CCR2.
1252:libs/STM32F4xx_StdPeriph_Driver/src/stm32f4xx_tim.c ****   * @param  TIMx: where x can be  1, 2, 3, 4, 5, 8, 9 or 12 to select the TIM 
1253:libs/STM32F4xx_StdPeriph_Driver/src/stm32f4xx_tim.c ****   *         peripheral.
1254:libs/STM32F4xx_StdPeriph_Driver/src/stm32f4xx_tim.c ****   * @param  TIM_OCPreload: new state of the TIMx peripheral Preload register
1255:libs/STM32F4xx_StdPeriph_Driver/src/stm32f4xx_tim.c ****   *          This parameter can be one of the following values:
1256:libs/STM32F4xx_StdPeriph_Driver/src/stm32f4xx_tim.c ****   *            @arg TIM_OCPreload_Enable
1257:libs/STM32F4xx_StdPeriph_Driver/src/stm32f4xx_tim.c ****   *            @arg TIM_OCPreload_Disable
1258:libs/STM32F4xx_StdPeriph_Driver/src/stm32f4xx_tim.c ****   * @retval None
1259:libs/STM32F4xx_StdPeriph_Driver/src/stm32f4xx_tim.c ****   */
1260:libs/STM32F4xx_StdPeriph_Driver/src/stm32f4xx_tim.c **** void TIM_OC2PreloadConfig(TIM_TypeDef* TIMx, uint16_t TIM_OCPreload)
1261:libs/STM32F4xx_StdPeriph_Driver/src/stm32f4xx_tim.c **** {
 2340              		.loc 1 1261 0
 2341              		.cfi_startproc
 2342              		@ args = 0, pretend = 0, frame = 16
 2343              		@ frame_needed = 1, uses_anonymous_args = 0
 2344              		@ link register save eliminated.
 2345 0000 80B4     		push	{r7}
 2346              	.LCFI90:
 2347              		.cfi_def_cfa_offset 4
 2348              		.cfi_offset 7, -4
 2349 0002 85B0     		sub	sp, sp, #20
 2350              	.LCFI91:
 2351              		.cfi_def_cfa_offset 24
 2352 0004 00AF     		add	r7, sp, #0
 2353              	.LCFI92:
 2354              		.cfi_def_cfa_register 7
 2355 0006 7860     		str	r0, [r7, #4]
 2356 0008 0B46     		mov	r3, r1
 2357 000a 7B80     		strh	r3, [r7, #2]	@ movhi
1262:libs/STM32F4xx_StdPeriph_Driver/src/stm32f4xx_tim.c ****   uint16_t tmpccmr1 = 0;
 2358              		.loc 1 1262 0
 2359 000c 0023     		movs	r3, #0
 2360 000e FB81     		strh	r3, [r7, #14]	@ movhi
1263:libs/STM32F4xx_StdPeriph_Driver/src/stm32f4xx_tim.c **** 
1264:libs/STM32F4xx_StdPeriph_Driver/src/stm32f4xx_tim.c ****   /* Check the parameters */
1265:libs/STM32F4xx_StdPeriph_Driver/src/stm32f4xx_tim.c ****   assert_param(IS_TIM_LIST2_PERIPH(TIMx));
1266:libs/STM32F4xx_StdPeriph_Driver/src/stm32f4xx_tim.c ****   assert_param(IS_TIM_OCPRELOAD_STATE(TIM_OCPreload));
1267:libs/STM32F4xx_StdPeriph_Driver/src/stm32f4xx_tim.c **** 
1268:libs/STM32F4xx_StdPeriph_Driver/src/stm32f4xx_tim.c ****   tmpccmr1 = TIMx->CCMR1;
 2361              		.loc 1 1268 0
 2362 0010 7B68     		ldr	r3, [r7, #4]
 2363 0012 1B8B     		ldrh	r3, [r3, #24]	@ movhi
 2364 0014 FB81     		strh	r3, [r7, #14]	@ movhi
1269:libs/STM32F4xx_StdPeriph_Driver/src/stm32f4xx_tim.c **** 
1270:libs/STM32F4xx_StdPeriph_Driver/src/stm32f4xx_tim.c ****   /* Reset the OC2PE Bit */
1271:libs/STM32F4xx_StdPeriph_Driver/src/stm32f4xx_tim.c ****   tmpccmr1 &= (uint16_t)(~TIM_CCMR1_OC2PE);
 2365              		.loc 1 1271 0
 2366 0016 FB89     		ldrh	r3, [r7, #14]	@ movhi
 2367 0018 23F40063 		bic	r3, r3, #2048
 2368 001c FB81     		strh	r3, [r7, #14]	@ movhi
1272:libs/STM32F4xx_StdPeriph_Driver/src/stm32f4xx_tim.c **** 
1273:libs/STM32F4xx_StdPeriph_Driver/src/stm32f4xx_tim.c ****   /* Enable or Disable the Output Compare Preload feature */
1274:libs/STM32F4xx_StdPeriph_Driver/src/stm32f4xx_tim.c ****   tmpccmr1 |= (uint16_t)(TIM_OCPreload << 8);
 2369              		.loc 1 1274 0
 2370 001e 7B88     		ldrh	r3, [r7, #2]	@ movhi
 2371 0020 1B02     		lsls	r3, r3, #8
 2372 0022 9AB2     		uxth	r2, r3
 2373 0024 FB89     		ldrh	r3, [r7, #14]	@ movhi
 2374 0026 1343     		orrs	r3, r3, r2
 2375 0028 FB81     		strh	r3, [r7, #14]	@ movhi
1275:libs/STM32F4xx_StdPeriph_Driver/src/stm32f4xx_tim.c **** 
1276:libs/STM32F4xx_StdPeriph_Driver/src/stm32f4xx_tim.c ****   /* Write to TIMx CCMR1 register */
1277:libs/STM32F4xx_StdPeriph_Driver/src/stm32f4xx_tim.c ****   TIMx->CCMR1 = tmpccmr1;
 2376              		.loc 1 1277 0
 2377 002a 7B68     		ldr	r3, [r7, #4]
 2378 002c FA89     		ldrh	r2, [r7, #14]	@ movhi
 2379 002e 1A83     		strh	r2, [r3, #24]	@ movhi
1278:libs/STM32F4xx_StdPeriph_Driver/src/stm32f4xx_tim.c **** }
 2380              		.loc 1 1278 0
 2381 0030 1437     		adds	r7, r7, #20
 2382 0032 BD46     		mov	sp, r7
 2383              		@ sp needed
 2384 0034 5DF8047B 		ldr	r7, [sp], #4
 2385 0038 7047     		bx	lr
 2386              		.cfi_endproc
 2387              	.LFE140:
 2389 003a 00BF     		.section	.text.TIM_OC3PreloadConfig,"ax",%progbits
 2390              		.align	2
 2391              		.global	TIM_OC3PreloadConfig
 2392              		.thumb
 2393              		.thumb_func
 2395              	TIM_OC3PreloadConfig:
 2396              	.LFB141:
1279:libs/STM32F4xx_StdPeriph_Driver/src/stm32f4xx_tim.c **** 
1280:libs/STM32F4xx_StdPeriph_Driver/src/stm32f4xx_tim.c **** /**
1281:libs/STM32F4xx_StdPeriph_Driver/src/stm32f4xx_tim.c ****   * @brief  Enables or disables the TIMx peripheral Preload register on CCR3.
1282:libs/STM32F4xx_StdPeriph_Driver/src/stm32f4xx_tim.c ****   * @param  TIMx: where x can be  1, 2, 3, 4, 5 or 8 to select the TIM peripheral.
1283:libs/STM32F4xx_StdPeriph_Driver/src/stm32f4xx_tim.c ****   * @param  TIM_OCPreload: new state of the TIMx peripheral Preload register
1284:libs/STM32F4xx_StdPeriph_Driver/src/stm32f4xx_tim.c ****   *          This parameter can be one of the following values:
1285:libs/STM32F4xx_StdPeriph_Driver/src/stm32f4xx_tim.c ****   *            @arg TIM_OCPreload_Enable
1286:libs/STM32F4xx_StdPeriph_Driver/src/stm32f4xx_tim.c ****   *            @arg TIM_OCPreload_Disable
1287:libs/STM32F4xx_StdPeriph_Driver/src/stm32f4xx_tim.c ****   * @retval None
1288:libs/STM32F4xx_StdPeriph_Driver/src/stm32f4xx_tim.c ****   */
1289:libs/STM32F4xx_StdPeriph_Driver/src/stm32f4xx_tim.c **** void TIM_OC3PreloadConfig(TIM_TypeDef* TIMx, uint16_t TIM_OCPreload)
1290:libs/STM32F4xx_StdPeriph_Driver/src/stm32f4xx_tim.c **** {
 2397              		.loc 1 1290 0
 2398              		.cfi_startproc
 2399              		@ args = 0, pretend = 0, frame = 16
 2400              		@ frame_needed = 1, uses_anonymous_args = 0
 2401              		@ link register save eliminated.
 2402 0000 80B4     		push	{r7}
 2403              	.LCFI93:
 2404              		.cfi_def_cfa_offset 4
 2405              		.cfi_offset 7, -4
 2406 0002 85B0     		sub	sp, sp, #20
 2407              	.LCFI94:
 2408              		.cfi_def_cfa_offset 24
 2409 0004 00AF     		add	r7, sp, #0
 2410              	.LCFI95:
 2411              		.cfi_def_cfa_register 7
 2412 0006 7860     		str	r0, [r7, #4]
 2413 0008 0B46     		mov	r3, r1
 2414 000a 7B80     		strh	r3, [r7, #2]	@ movhi
1291:libs/STM32F4xx_StdPeriph_Driver/src/stm32f4xx_tim.c ****   uint16_t tmpccmr2 = 0;
 2415              		.loc 1 1291 0
 2416 000c 0023     		movs	r3, #0
 2417 000e FB81     		strh	r3, [r7, #14]	@ movhi
1292:libs/STM32F4xx_StdPeriph_Driver/src/stm32f4xx_tim.c **** 
1293:libs/STM32F4xx_StdPeriph_Driver/src/stm32f4xx_tim.c ****   /* Check the parameters */
1294:libs/STM32F4xx_StdPeriph_Driver/src/stm32f4xx_tim.c ****   assert_param(IS_TIM_LIST3_PERIPH(TIMx));
1295:libs/STM32F4xx_StdPeriph_Driver/src/stm32f4xx_tim.c ****   assert_param(IS_TIM_OCPRELOAD_STATE(TIM_OCPreload));
1296:libs/STM32F4xx_StdPeriph_Driver/src/stm32f4xx_tim.c **** 
1297:libs/STM32F4xx_StdPeriph_Driver/src/stm32f4xx_tim.c ****   tmpccmr2 = TIMx->CCMR2;
 2418              		.loc 1 1297 0
 2419 0010 7B68     		ldr	r3, [r7, #4]
 2420 0012 9B8B     		ldrh	r3, [r3, #28]	@ movhi
 2421 0014 FB81     		strh	r3, [r7, #14]	@ movhi
1298:libs/STM32F4xx_StdPeriph_Driver/src/stm32f4xx_tim.c **** 
1299:libs/STM32F4xx_StdPeriph_Driver/src/stm32f4xx_tim.c ****   /* Reset the OC3PE Bit */
1300:libs/STM32F4xx_StdPeriph_Driver/src/stm32f4xx_tim.c ****   tmpccmr2 &= (uint16_t)(~TIM_CCMR2_OC3PE);
 2422              		.loc 1 1300 0
 2423 0016 FB89     		ldrh	r3, [r7, #14]	@ movhi
 2424 0018 23F00803 		bic	r3, r3, #8
 2425 001c FB81     		strh	r3, [r7, #14]	@ movhi
1301:libs/STM32F4xx_StdPeriph_Driver/src/stm32f4xx_tim.c **** 
1302:libs/STM32F4xx_StdPeriph_Driver/src/stm32f4xx_tim.c ****   /* Enable or Disable the Output Compare Preload feature */
1303:libs/STM32F4xx_StdPeriph_Driver/src/stm32f4xx_tim.c ****   tmpccmr2 |= TIM_OCPreload;
 2426              		.loc 1 1303 0
 2427 001e FA89     		ldrh	r2, [r7, #14]	@ movhi
 2428 0020 7B88     		ldrh	r3, [r7, #2]	@ movhi
 2429 0022 1343     		orrs	r3, r3, r2
 2430 0024 FB81     		strh	r3, [r7, #14]	@ movhi
1304:libs/STM32F4xx_StdPeriph_Driver/src/stm32f4xx_tim.c **** 
1305:libs/STM32F4xx_StdPeriph_Driver/src/stm32f4xx_tim.c ****   /* Write to TIMx CCMR2 register */
1306:libs/STM32F4xx_StdPeriph_Driver/src/stm32f4xx_tim.c ****   TIMx->CCMR2 = tmpccmr2;
 2431              		.loc 1 1306 0
 2432 0026 7B68     		ldr	r3, [r7, #4]
 2433 0028 FA89     		ldrh	r2, [r7, #14]	@ movhi
 2434 002a 9A83     		strh	r2, [r3, #28]	@ movhi
1307:libs/STM32F4xx_StdPeriph_Driver/src/stm32f4xx_tim.c **** }
 2435              		.loc 1 1307 0
 2436 002c 1437     		adds	r7, r7, #20
 2437 002e BD46     		mov	sp, r7
 2438              		@ sp needed
 2439 0030 5DF8047B 		ldr	r7, [sp], #4
 2440 0034 7047     		bx	lr
 2441              		.cfi_endproc
 2442              	.LFE141:
 2444 0036 00BF     		.section	.text.TIM_OC4PreloadConfig,"ax",%progbits
 2445              		.align	2
 2446              		.global	TIM_OC4PreloadConfig
 2447              		.thumb
 2448              		.thumb_func
 2450              	TIM_OC4PreloadConfig:
 2451              	.LFB142:
1308:libs/STM32F4xx_StdPeriph_Driver/src/stm32f4xx_tim.c **** 
1309:libs/STM32F4xx_StdPeriph_Driver/src/stm32f4xx_tim.c **** /**
1310:libs/STM32F4xx_StdPeriph_Driver/src/stm32f4xx_tim.c ****   * @brief  Enables or disables the TIMx peripheral Preload register on CCR4.
1311:libs/STM32F4xx_StdPeriph_Driver/src/stm32f4xx_tim.c ****   * @param  TIMx: where x can be  1, 2, 3, 4, 5 or 8 to select the TIM peripheral.
1312:libs/STM32F4xx_StdPeriph_Driver/src/stm32f4xx_tim.c ****   * @param  TIM_OCPreload: new state of the TIMx peripheral Preload register
1313:libs/STM32F4xx_StdPeriph_Driver/src/stm32f4xx_tim.c ****   *          This parameter can be one of the following values:
1314:libs/STM32F4xx_StdPeriph_Driver/src/stm32f4xx_tim.c ****   *            @arg TIM_OCPreload_Enable
1315:libs/STM32F4xx_StdPeriph_Driver/src/stm32f4xx_tim.c ****   *            @arg TIM_OCPreload_Disable
1316:libs/STM32F4xx_StdPeriph_Driver/src/stm32f4xx_tim.c ****   * @retval None
1317:libs/STM32F4xx_StdPeriph_Driver/src/stm32f4xx_tim.c ****   */
1318:libs/STM32F4xx_StdPeriph_Driver/src/stm32f4xx_tim.c **** void TIM_OC4PreloadConfig(TIM_TypeDef* TIMx, uint16_t TIM_OCPreload)
1319:libs/STM32F4xx_StdPeriph_Driver/src/stm32f4xx_tim.c **** {
 2452              		.loc 1 1319 0
 2453              		.cfi_startproc
 2454              		@ args = 0, pretend = 0, frame = 16
 2455              		@ frame_needed = 1, uses_anonymous_args = 0
 2456              		@ link register save eliminated.
 2457 0000 80B4     		push	{r7}
 2458              	.LCFI96:
 2459              		.cfi_def_cfa_offset 4
 2460              		.cfi_offset 7, -4
 2461 0002 85B0     		sub	sp, sp, #20
 2462              	.LCFI97:
 2463              		.cfi_def_cfa_offset 24
 2464 0004 00AF     		add	r7, sp, #0
 2465              	.LCFI98:
 2466              		.cfi_def_cfa_register 7
 2467 0006 7860     		str	r0, [r7, #4]
 2468 0008 0B46     		mov	r3, r1
 2469 000a 7B80     		strh	r3, [r7, #2]	@ movhi
1320:libs/STM32F4xx_StdPeriph_Driver/src/stm32f4xx_tim.c ****   uint16_t tmpccmr2 = 0;
 2470              		.loc 1 1320 0
 2471 000c 0023     		movs	r3, #0
 2472 000e FB81     		strh	r3, [r7, #14]	@ movhi
1321:libs/STM32F4xx_StdPeriph_Driver/src/stm32f4xx_tim.c **** 
1322:libs/STM32F4xx_StdPeriph_Driver/src/stm32f4xx_tim.c ****   /* Check the parameters */
1323:libs/STM32F4xx_StdPeriph_Driver/src/stm32f4xx_tim.c ****   assert_param(IS_TIM_LIST3_PERIPH(TIMx));
1324:libs/STM32F4xx_StdPeriph_Driver/src/stm32f4xx_tim.c ****   assert_param(IS_TIM_OCPRELOAD_STATE(TIM_OCPreload));
1325:libs/STM32F4xx_StdPeriph_Driver/src/stm32f4xx_tim.c **** 
1326:libs/STM32F4xx_StdPeriph_Driver/src/stm32f4xx_tim.c ****   tmpccmr2 = TIMx->CCMR2;
 2473              		.loc 1 1326 0
 2474 0010 7B68     		ldr	r3, [r7, #4]
 2475 0012 9B8B     		ldrh	r3, [r3, #28]	@ movhi
 2476 0014 FB81     		strh	r3, [r7, #14]	@ movhi
1327:libs/STM32F4xx_StdPeriph_Driver/src/stm32f4xx_tim.c **** 
1328:libs/STM32F4xx_StdPeriph_Driver/src/stm32f4xx_tim.c ****   /* Reset the OC4PE Bit */
1329:libs/STM32F4xx_StdPeriph_Driver/src/stm32f4xx_tim.c ****   tmpccmr2 &= (uint16_t)(~TIM_CCMR2_OC4PE);
 2477              		.loc 1 1329 0
 2478 0016 FB89     		ldrh	r3, [r7, #14]	@ movhi
 2479 0018 23F40063 		bic	r3, r3, #2048
 2480 001c FB81     		strh	r3, [r7, #14]	@ movhi
1330:libs/STM32F4xx_StdPeriph_Driver/src/stm32f4xx_tim.c **** 
1331:libs/STM32F4xx_StdPeriph_Driver/src/stm32f4xx_tim.c ****   /* Enable or Disable the Output Compare Preload feature */
1332:libs/STM32F4xx_StdPeriph_Driver/src/stm32f4xx_tim.c ****   tmpccmr2 |= (uint16_t)(TIM_OCPreload << 8);
 2481              		.loc 1 1332 0
 2482 001e 7B88     		ldrh	r3, [r7, #2]	@ movhi
 2483 0020 1B02     		lsls	r3, r3, #8
 2484 0022 9AB2     		uxth	r2, r3
 2485 0024 FB89     		ldrh	r3, [r7, #14]	@ movhi
 2486 0026 1343     		orrs	r3, r3, r2
 2487 0028 FB81     		strh	r3, [r7, #14]	@ movhi
1333:libs/STM32F4xx_StdPeriph_Driver/src/stm32f4xx_tim.c **** 
1334:libs/STM32F4xx_StdPeriph_Driver/src/stm32f4xx_tim.c ****   /* Write to TIMx CCMR2 register */
1335:libs/STM32F4xx_StdPeriph_Driver/src/stm32f4xx_tim.c ****   TIMx->CCMR2 = tmpccmr2;
 2488              		.loc 1 1335 0
 2489 002a 7B68     		ldr	r3, [r7, #4]
 2490 002c FA89     		ldrh	r2, [r7, #14]	@ movhi
 2491 002e 9A83     		strh	r2, [r3, #28]	@ movhi
1336:libs/STM32F4xx_StdPeriph_Driver/src/stm32f4xx_tim.c **** }
 2492              		.loc 1 1336 0
 2493 0030 1437     		adds	r7, r7, #20
 2494 0032 BD46     		mov	sp, r7
 2495              		@ sp needed
 2496 0034 5DF8047B 		ldr	r7, [sp], #4
 2497 0038 7047     		bx	lr
 2498              		.cfi_endproc
 2499              	.LFE142:
 2501 003a 00BF     		.section	.text.TIM_OC1FastConfig,"ax",%progbits
 2502              		.align	2
 2503              		.global	TIM_OC1FastConfig
 2504              		.thumb
 2505              		.thumb_func
 2507              	TIM_OC1FastConfig:
 2508              	.LFB143:
1337:libs/STM32F4xx_StdPeriph_Driver/src/stm32f4xx_tim.c **** 
1338:libs/STM32F4xx_StdPeriph_Driver/src/stm32f4xx_tim.c **** /**
1339:libs/STM32F4xx_StdPeriph_Driver/src/stm32f4xx_tim.c ****   * @brief  Configures the TIMx Output Compare 1 Fast feature.
1340:libs/STM32F4xx_StdPeriph_Driver/src/stm32f4xx_tim.c ****   * @param  TIMx: where x can be 1 to 14 except 6 and 7, to select the TIM peripheral.
1341:libs/STM32F4xx_StdPeriph_Driver/src/stm32f4xx_tim.c ****   * @param  TIM_OCFast: new state of the Output Compare Fast Enable Bit.
1342:libs/STM32F4xx_StdPeriph_Driver/src/stm32f4xx_tim.c ****   *          This parameter can be one of the following values:
1343:libs/STM32F4xx_StdPeriph_Driver/src/stm32f4xx_tim.c ****   *            @arg TIM_OCFast_Enable: TIM output compare fast enable
1344:libs/STM32F4xx_StdPeriph_Driver/src/stm32f4xx_tim.c ****   *            @arg TIM_OCFast_Disable: TIM output compare fast disable
1345:libs/STM32F4xx_StdPeriph_Driver/src/stm32f4xx_tim.c ****   * @retval None
1346:libs/STM32F4xx_StdPeriph_Driver/src/stm32f4xx_tim.c ****   */
1347:libs/STM32F4xx_StdPeriph_Driver/src/stm32f4xx_tim.c **** void TIM_OC1FastConfig(TIM_TypeDef* TIMx, uint16_t TIM_OCFast)
1348:libs/STM32F4xx_StdPeriph_Driver/src/stm32f4xx_tim.c **** {
 2509              		.loc 1 1348 0
 2510              		.cfi_startproc
 2511              		@ args = 0, pretend = 0, frame = 16
 2512              		@ frame_needed = 1, uses_anonymous_args = 0
 2513              		@ link register save eliminated.
 2514 0000 80B4     		push	{r7}
 2515              	.LCFI99:
 2516              		.cfi_def_cfa_offset 4
 2517              		.cfi_offset 7, -4
 2518 0002 85B0     		sub	sp, sp, #20
 2519              	.LCFI100:
 2520              		.cfi_def_cfa_offset 24
 2521 0004 00AF     		add	r7, sp, #0
 2522              	.LCFI101:
 2523              		.cfi_def_cfa_register 7
 2524 0006 7860     		str	r0, [r7, #4]
 2525 0008 0B46     		mov	r3, r1
 2526 000a 7B80     		strh	r3, [r7, #2]	@ movhi
1349:libs/STM32F4xx_StdPeriph_Driver/src/stm32f4xx_tim.c ****   uint16_t tmpccmr1 = 0;
 2527              		.loc 1 1349 0
 2528 000c 0023     		movs	r3, #0
 2529 000e FB81     		strh	r3, [r7, #14]	@ movhi
1350:libs/STM32F4xx_StdPeriph_Driver/src/stm32f4xx_tim.c **** 
1351:libs/STM32F4xx_StdPeriph_Driver/src/stm32f4xx_tim.c ****   /* Check the parameters */
1352:libs/STM32F4xx_StdPeriph_Driver/src/stm32f4xx_tim.c ****   assert_param(IS_TIM_LIST1_PERIPH(TIMx));
1353:libs/STM32F4xx_StdPeriph_Driver/src/stm32f4xx_tim.c ****   assert_param(IS_TIM_OCFAST_STATE(TIM_OCFast));
1354:libs/STM32F4xx_StdPeriph_Driver/src/stm32f4xx_tim.c **** 
1355:libs/STM32F4xx_StdPeriph_Driver/src/stm32f4xx_tim.c ****   /* Get the TIMx CCMR1 register value */
1356:libs/STM32F4xx_StdPeriph_Driver/src/stm32f4xx_tim.c ****   tmpccmr1 = TIMx->CCMR1;
 2530              		.loc 1 1356 0
 2531 0010 7B68     		ldr	r3, [r7, #4]
 2532 0012 1B8B     		ldrh	r3, [r3, #24]	@ movhi
 2533 0014 FB81     		strh	r3, [r7, #14]	@ movhi
1357:libs/STM32F4xx_StdPeriph_Driver/src/stm32f4xx_tim.c **** 
1358:libs/STM32F4xx_StdPeriph_Driver/src/stm32f4xx_tim.c ****   /* Reset the OC1FE Bit */
1359:libs/STM32F4xx_StdPeriph_Driver/src/stm32f4xx_tim.c ****   tmpccmr1 &= (uint16_t)~TIM_CCMR1_OC1FE;
 2534              		.loc 1 1359 0
 2535 0016 FB89     		ldrh	r3, [r7, #14]	@ movhi
 2536 0018 23F00403 		bic	r3, r3, #4
 2537 001c FB81     		strh	r3, [r7, #14]	@ movhi
1360:libs/STM32F4xx_StdPeriph_Driver/src/stm32f4xx_tim.c **** 
1361:libs/STM32F4xx_StdPeriph_Driver/src/stm32f4xx_tim.c ****   /* Enable or Disable the Output Compare Fast Bit */
1362:libs/STM32F4xx_StdPeriph_Driver/src/stm32f4xx_tim.c ****   tmpccmr1 |= TIM_OCFast;
 2538              		.loc 1 1362 0
 2539 001e FA89     		ldrh	r2, [r7, #14]	@ movhi
 2540 0020 7B88     		ldrh	r3, [r7, #2]	@ movhi
 2541 0022 1343     		orrs	r3, r3, r2
 2542 0024 FB81     		strh	r3, [r7, #14]	@ movhi
1363:libs/STM32F4xx_StdPeriph_Driver/src/stm32f4xx_tim.c **** 
1364:libs/STM32F4xx_StdPeriph_Driver/src/stm32f4xx_tim.c ****   /* Write to TIMx CCMR1 */
1365:libs/STM32F4xx_StdPeriph_Driver/src/stm32f4xx_tim.c ****   TIMx->CCMR1 = tmpccmr1;
 2543              		.loc 1 1365 0
 2544 0026 7B68     		ldr	r3, [r7, #4]
 2545 0028 FA89     		ldrh	r2, [r7, #14]	@ movhi
 2546 002a 1A83     		strh	r2, [r3, #24]	@ movhi
1366:libs/STM32F4xx_StdPeriph_Driver/src/stm32f4xx_tim.c **** }
 2547              		.loc 1 1366 0
 2548 002c 1437     		adds	r7, r7, #20
 2549 002e BD46     		mov	sp, r7
 2550              		@ sp needed
 2551 0030 5DF8047B 		ldr	r7, [sp], #4
 2552 0034 7047     		bx	lr
 2553              		.cfi_endproc
 2554              	.LFE143:
 2556 0036 00BF     		.section	.text.TIM_OC2FastConfig,"ax",%progbits
 2557              		.align	2
 2558              		.global	TIM_OC2FastConfig
 2559              		.thumb
 2560              		.thumb_func
 2562              	TIM_OC2FastConfig:
 2563              	.LFB144:
1367:libs/STM32F4xx_StdPeriph_Driver/src/stm32f4xx_tim.c **** 
1368:libs/STM32F4xx_StdPeriph_Driver/src/stm32f4xx_tim.c **** /**
1369:libs/STM32F4xx_StdPeriph_Driver/src/stm32f4xx_tim.c ****   * @brief  Configures the TIMx Output Compare 2 Fast feature.
1370:libs/STM32F4xx_StdPeriph_Driver/src/stm32f4xx_tim.c ****   * @param  TIMx: where x can be  1, 2, 3, 4, 5, 8, 9 or 12 to select the TIM 
1371:libs/STM32F4xx_StdPeriph_Driver/src/stm32f4xx_tim.c ****   *         peripheral.
1372:libs/STM32F4xx_StdPeriph_Driver/src/stm32f4xx_tim.c ****   * @param  TIM_OCFast: new state of the Output Compare Fast Enable Bit.
1373:libs/STM32F4xx_StdPeriph_Driver/src/stm32f4xx_tim.c ****   *          This parameter can be one of the following values:
1374:libs/STM32F4xx_StdPeriph_Driver/src/stm32f4xx_tim.c ****   *            @arg TIM_OCFast_Enable: TIM output compare fast enable
1375:libs/STM32F4xx_StdPeriph_Driver/src/stm32f4xx_tim.c ****   *            @arg TIM_OCFast_Disable: TIM output compare fast disable
1376:libs/STM32F4xx_StdPeriph_Driver/src/stm32f4xx_tim.c ****   * @retval None
1377:libs/STM32F4xx_StdPeriph_Driver/src/stm32f4xx_tim.c ****   */
1378:libs/STM32F4xx_StdPeriph_Driver/src/stm32f4xx_tim.c **** void TIM_OC2FastConfig(TIM_TypeDef* TIMx, uint16_t TIM_OCFast)
1379:libs/STM32F4xx_StdPeriph_Driver/src/stm32f4xx_tim.c **** {
 2564              		.loc 1 1379 0
 2565              		.cfi_startproc
 2566              		@ args = 0, pretend = 0, frame = 16
 2567              		@ frame_needed = 1, uses_anonymous_args = 0
 2568              		@ link register save eliminated.
 2569 0000 80B4     		push	{r7}
 2570              	.LCFI102:
 2571              		.cfi_def_cfa_offset 4
 2572              		.cfi_offset 7, -4
 2573 0002 85B0     		sub	sp, sp, #20
 2574              	.LCFI103:
 2575              		.cfi_def_cfa_offset 24
 2576 0004 00AF     		add	r7, sp, #0
 2577              	.LCFI104:
 2578              		.cfi_def_cfa_register 7
 2579 0006 7860     		str	r0, [r7, #4]
 2580 0008 0B46     		mov	r3, r1
 2581 000a 7B80     		strh	r3, [r7, #2]	@ movhi
1380:libs/STM32F4xx_StdPeriph_Driver/src/stm32f4xx_tim.c ****   uint16_t tmpccmr1 = 0;
 2582              		.loc 1 1380 0
 2583 000c 0023     		movs	r3, #0
 2584 000e FB81     		strh	r3, [r7, #14]	@ movhi
1381:libs/STM32F4xx_StdPeriph_Driver/src/stm32f4xx_tim.c **** 
1382:libs/STM32F4xx_StdPeriph_Driver/src/stm32f4xx_tim.c ****   /* Check the parameters */
1383:libs/STM32F4xx_StdPeriph_Driver/src/stm32f4xx_tim.c ****   assert_param(IS_TIM_LIST2_PERIPH(TIMx));
1384:libs/STM32F4xx_StdPeriph_Driver/src/stm32f4xx_tim.c ****   assert_param(IS_TIM_OCFAST_STATE(TIM_OCFast));
1385:libs/STM32F4xx_StdPeriph_Driver/src/stm32f4xx_tim.c **** 
1386:libs/STM32F4xx_StdPeriph_Driver/src/stm32f4xx_tim.c ****   /* Get the TIMx CCMR1 register value */
1387:libs/STM32F4xx_StdPeriph_Driver/src/stm32f4xx_tim.c ****   tmpccmr1 = TIMx->CCMR1;
 2585              		.loc 1 1387 0
 2586 0010 7B68     		ldr	r3, [r7, #4]
 2587 0012 1B8B     		ldrh	r3, [r3, #24]	@ movhi
 2588 0014 FB81     		strh	r3, [r7, #14]	@ movhi
1388:libs/STM32F4xx_StdPeriph_Driver/src/stm32f4xx_tim.c **** 
1389:libs/STM32F4xx_StdPeriph_Driver/src/stm32f4xx_tim.c ****   /* Reset the OC2FE Bit */
1390:libs/STM32F4xx_StdPeriph_Driver/src/stm32f4xx_tim.c ****   tmpccmr1 &= (uint16_t)(~TIM_CCMR1_OC2FE);
 2589              		.loc 1 1390 0
 2590 0016 FB89     		ldrh	r3, [r7, #14]	@ movhi
 2591 0018 23F48063 		bic	r3, r3, #1024
 2592 001c FB81     		strh	r3, [r7, #14]	@ movhi
1391:libs/STM32F4xx_StdPeriph_Driver/src/stm32f4xx_tim.c **** 
1392:libs/STM32F4xx_StdPeriph_Driver/src/stm32f4xx_tim.c ****   /* Enable or Disable the Output Compare Fast Bit */
1393:libs/STM32F4xx_StdPeriph_Driver/src/stm32f4xx_tim.c ****   tmpccmr1 |= (uint16_t)(TIM_OCFast << 8);
 2593              		.loc 1 1393 0
 2594 001e 7B88     		ldrh	r3, [r7, #2]	@ movhi
 2595 0020 1B02     		lsls	r3, r3, #8
 2596 0022 9AB2     		uxth	r2, r3
 2597 0024 FB89     		ldrh	r3, [r7, #14]	@ movhi
 2598 0026 1343     		orrs	r3, r3, r2
 2599 0028 FB81     		strh	r3, [r7, #14]	@ movhi
1394:libs/STM32F4xx_StdPeriph_Driver/src/stm32f4xx_tim.c **** 
1395:libs/STM32F4xx_StdPeriph_Driver/src/stm32f4xx_tim.c ****   /* Write to TIMx CCMR1 */
1396:libs/STM32F4xx_StdPeriph_Driver/src/stm32f4xx_tim.c ****   TIMx->CCMR1 = tmpccmr1;
 2600              		.loc 1 1396 0
 2601 002a 7B68     		ldr	r3, [r7, #4]
 2602 002c FA89     		ldrh	r2, [r7, #14]	@ movhi
 2603 002e 1A83     		strh	r2, [r3, #24]	@ movhi
1397:libs/STM32F4xx_StdPeriph_Driver/src/stm32f4xx_tim.c **** }
 2604              		.loc 1 1397 0
 2605 0030 1437     		adds	r7, r7, #20
 2606 0032 BD46     		mov	sp, r7
 2607              		@ sp needed
 2608 0034 5DF8047B 		ldr	r7, [sp], #4
 2609 0038 7047     		bx	lr
 2610              		.cfi_endproc
 2611              	.LFE144:
 2613 003a 00BF     		.section	.text.TIM_OC3FastConfig,"ax",%progbits
 2614              		.align	2
 2615              		.global	TIM_OC3FastConfig
 2616              		.thumb
 2617              		.thumb_func
 2619              	TIM_OC3FastConfig:
 2620              	.LFB145:
1398:libs/STM32F4xx_StdPeriph_Driver/src/stm32f4xx_tim.c **** 
1399:libs/STM32F4xx_StdPeriph_Driver/src/stm32f4xx_tim.c **** /**
1400:libs/STM32F4xx_StdPeriph_Driver/src/stm32f4xx_tim.c ****   * @brief  Configures the TIMx Output Compare 3 Fast feature.
1401:libs/STM32F4xx_StdPeriph_Driver/src/stm32f4xx_tim.c ****   * @param  TIMx: where x can be  1, 2, 3, 4, 5 or 8 to select the TIM peripheral.
1402:libs/STM32F4xx_StdPeriph_Driver/src/stm32f4xx_tim.c ****   * @param  TIM_OCFast: new state of the Output Compare Fast Enable Bit.
1403:libs/STM32F4xx_StdPeriph_Driver/src/stm32f4xx_tim.c ****   *          This parameter can be one of the following values:
1404:libs/STM32F4xx_StdPeriph_Driver/src/stm32f4xx_tim.c ****   *            @arg TIM_OCFast_Enable: TIM output compare fast enable
1405:libs/STM32F4xx_StdPeriph_Driver/src/stm32f4xx_tim.c ****   *            @arg TIM_OCFast_Disable: TIM output compare fast disable
1406:libs/STM32F4xx_StdPeriph_Driver/src/stm32f4xx_tim.c ****   * @retval None
1407:libs/STM32F4xx_StdPeriph_Driver/src/stm32f4xx_tim.c ****   */
1408:libs/STM32F4xx_StdPeriph_Driver/src/stm32f4xx_tim.c **** void TIM_OC3FastConfig(TIM_TypeDef* TIMx, uint16_t TIM_OCFast)
1409:libs/STM32F4xx_StdPeriph_Driver/src/stm32f4xx_tim.c **** {
 2621              		.loc 1 1409 0
 2622              		.cfi_startproc
 2623              		@ args = 0, pretend = 0, frame = 16
 2624              		@ frame_needed = 1, uses_anonymous_args = 0
 2625              		@ link register save eliminated.
 2626 0000 80B4     		push	{r7}
 2627              	.LCFI105:
 2628              		.cfi_def_cfa_offset 4
 2629              		.cfi_offset 7, -4
 2630 0002 85B0     		sub	sp, sp, #20
 2631              	.LCFI106:
 2632              		.cfi_def_cfa_offset 24
 2633 0004 00AF     		add	r7, sp, #0
 2634              	.LCFI107:
 2635              		.cfi_def_cfa_register 7
 2636 0006 7860     		str	r0, [r7, #4]
 2637 0008 0B46     		mov	r3, r1
 2638 000a 7B80     		strh	r3, [r7, #2]	@ movhi
1410:libs/STM32F4xx_StdPeriph_Driver/src/stm32f4xx_tim.c ****   uint16_t tmpccmr2 = 0;
 2639              		.loc 1 1410 0
 2640 000c 0023     		movs	r3, #0
 2641 000e FB81     		strh	r3, [r7, #14]	@ movhi
1411:libs/STM32F4xx_StdPeriph_Driver/src/stm32f4xx_tim.c ****   
1412:libs/STM32F4xx_StdPeriph_Driver/src/stm32f4xx_tim.c ****   /* Check the parameters */
1413:libs/STM32F4xx_StdPeriph_Driver/src/stm32f4xx_tim.c ****   assert_param(IS_TIM_LIST3_PERIPH(TIMx));
1414:libs/STM32F4xx_StdPeriph_Driver/src/stm32f4xx_tim.c ****   assert_param(IS_TIM_OCFAST_STATE(TIM_OCFast));
1415:libs/STM32F4xx_StdPeriph_Driver/src/stm32f4xx_tim.c **** 
1416:libs/STM32F4xx_StdPeriph_Driver/src/stm32f4xx_tim.c ****   /* Get the TIMx CCMR2 register value */
1417:libs/STM32F4xx_StdPeriph_Driver/src/stm32f4xx_tim.c ****   tmpccmr2 = TIMx->CCMR2;
 2642              		.loc 1 1417 0
 2643 0010 7B68     		ldr	r3, [r7, #4]
 2644 0012 9B8B     		ldrh	r3, [r3, #28]	@ movhi
 2645 0014 FB81     		strh	r3, [r7, #14]	@ movhi
1418:libs/STM32F4xx_StdPeriph_Driver/src/stm32f4xx_tim.c **** 
1419:libs/STM32F4xx_StdPeriph_Driver/src/stm32f4xx_tim.c ****   /* Reset the OC3FE Bit */
1420:libs/STM32F4xx_StdPeriph_Driver/src/stm32f4xx_tim.c ****   tmpccmr2 &= (uint16_t)~TIM_CCMR2_OC3FE;
 2646              		.loc 1 1420 0
 2647 0016 FB89     		ldrh	r3, [r7, #14]	@ movhi
 2648 0018 23F00403 		bic	r3, r3, #4
 2649 001c FB81     		strh	r3, [r7, #14]	@ movhi
1421:libs/STM32F4xx_StdPeriph_Driver/src/stm32f4xx_tim.c **** 
1422:libs/STM32F4xx_StdPeriph_Driver/src/stm32f4xx_tim.c ****   /* Enable or Disable the Output Compare Fast Bit */
1423:libs/STM32F4xx_StdPeriph_Driver/src/stm32f4xx_tim.c ****   tmpccmr2 |= TIM_OCFast;
 2650              		.loc 1 1423 0
 2651 001e FA89     		ldrh	r2, [r7, #14]	@ movhi
 2652 0020 7B88     		ldrh	r3, [r7, #2]	@ movhi
 2653 0022 1343     		orrs	r3, r3, r2
 2654 0024 FB81     		strh	r3, [r7, #14]	@ movhi
1424:libs/STM32F4xx_StdPeriph_Driver/src/stm32f4xx_tim.c **** 
1425:libs/STM32F4xx_StdPeriph_Driver/src/stm32f4xx_tim.c ****   /* Write to TIMx CCMR2 */
1426:libs/STM32F4xx_StdPeriph_Driver/src/stm32f4xx_tim.c ****   TIMx->CCMR2 = tmpccmr2;
 2655              		.loc 1 1426 0
 2656 0026 7B68     		ldr	r3, [r7, #4]
 2657 0028 FA89     		ldrh	r2, [r7, #14]	@ movhi
 2658 002a 9A83     		strh	r2, [r3, #28]	@ movhi
1427:libs/STM32F4xx_StdPeriph_Driver/src/stm32f4xx_tim.c **** }
 2659              		.loc 1 1427 0
 2660 002c 1437     		adds	r7, r7, #20
 2661 002e BD46     		mov	sp, r7
 2662              		@ sp needed
 2663 0030 5DF8047B 		ldr	r7, [sp], #4
 2664 0034 7047     		bx	lr
 2665              		.cfi_endproc
 2666              	.LFE145:
 2668 0036 00BF     		.section	.text.TIM_OC4FastConfig,"ax",%progbits
 2669              		.align	2
 2670              		.global	TIM_OC4FastConfig
 2671              		.thumb
 2672              		.thumb_func
 2674              	TIM_OC4FastConfig:
 2675              	.LFB146:
1428:libs/STM32F4xx_StdPeriph_Driver/src/stm32f4xx_tim.c **** 
1429:libs/STM32F4xx_StdPeriph_Driver/src/stm32f4xx_tim.c **** /**
1430:libs/STM32F4xx_StdPeriph_Driver/src/stm32f4xx_tim.c ****   * @brief  Configures the TIMx Output Compare 4 Fast feature.
1431:libs/STM32F4xx_StdPeriph_Driver/src/stm32f4xx_tim.c ****   * @param  TIMx: where x can be  1, 2, 3, 4, 5 or 8 to select the TIM peripheral.
1432:libs/STM32F4xx_StdPeriph_Driver/src/stm32f4xx_tim.c ****   * @param  TIM_OCFast: new state of the Output Compare Fast Enable Bit.
1433:libs/STM32F4xx_StdPeriph_Driver/src/stm32f4xx_tim.c ****   *          This parameter can be one of the following values:
1434:libs/STM32F4xx_StdPeriph_Driver/src/stm32f4xx_tim.c ****   *            @arg TIM_OCFast_Enable: TIM output compare fast enable
1435:libs/STM32F4xx_StdPeriph_Driver/src/stm32f4xx_tim.c ****   *            @arg TIM_OCFast_Disable: TIM output compare fast disable
1436:libs/STM32F4xx_StdPeriph_Driver/src/stm32f4xx_tim.c ****   * @retval None
1437:libs/STM32F4xx_StdPeriph_Driver/src/stm32f4xx_tim.c ****   */
1438:libs/STM32F4xx_StdPeriph_Driver/src/stm32f4xx_tim.c **** void TIM_OC4FastConfig(TIM_TypeDef* TIMx, uint16_t TIM_OCFast)
1439:libs/STM32F4xx_StdPeriph_Driver/src/stm32f4xx_tim.c **** {
 2676              		.loc 1 1439 0
 2677              		.cfi_startproc
 2678              		@ args = 0, pretend = 0, frame = 16
 2679              		@ frame_needed = 1, uses_anonymous_args = 0
 2680              		@ link register save eliminated.
 2681 0000 80B4     		push	{r7}
 2682              	.LCFI108:
 2683              		.cfi_def_cfa_offset 4
 2684              		.cfi_offset 7, -4
 2685 0002 85B0     		sub	sp, sp, #20
 2686              	.LCFI109:
 2687              		.cfi_def_cfa_offset 24
 2688 0004 00AF     		add	r7, sp, #0
 2689              	.LCFI110:
 2690              		.cfi_def_cfa_register 7
 2691 0006 7860     		str	r0, [r7, #4]
 2692 0008 0B46     		mov	r3, r1
 2693 000a 7B80     		strh	r3, [r7, #2]	@ movhi
1440:libs/STM32F4xx_StdPeriph_Driver/src/stm32f4xx_tim.c ****   uint16_t tmpccmr2 = 0;
 2694              		.loc 1 1440 0
 2695 000c 0023     		movs	r3, #0
 2696 000e FB81     		strh	r3, [r7, #14]	@ movhi
1441:libs/STM32F4xx_StdPeriph_Driver/src/stm32f4xx_tim.c **** 
1442:libs/STM32F4xx_StdPeriph_Driver/src/stm32f4xx_tim.c ****   /* Check the parameters */
1443:libs/STM32F4xx_StdPeriph_Driver/src/stm32f4xx_tim.c ****   assert_param(IS_TIM_LIST3_PERIPH(TIMx));
1444:libs/STM32F4xx_StdPeriph_Driver/src/stm32f4xx_tim.c ****   assert_param(IS_TIM_OCFAST_STATE(TIM_OCFast));
1445:libs/STM32F4xx_StdPeriph_Driver/src/stm32f4xx_tim.c **** 
1446:libs/STM32F4xx_StdPeriph_Driver/src/stm32f4xx_tim.c ****   /* Get the TIMx CCMR2 register value */
1447:libs/STM32F4xx_StdPeriph_Driver/src/stm32f4xx_tim.c ****   tmpccmr2 = TIMx->CCMR2;
 2697              		.loc 1 1447 0
 2698 0010 7B68     		ldr	r3, [r7, #4]
 2699 0012 9B8B     		ldrh	r3, [r3, #28]	@ movhi
 2700 0014 FB81     		strh	r3, [r7, #14]	@ movhi
1448:libs/STM32F4xx_StdPeriph_Driver/src/stm32f4xx_tim.c **** 
1449:libs/STM32F4xx_StdPeriph_Driver/src/stm32f4xx_tim.c ****   /* Reset the OC4FE Bit */
1450:libs/STM32F4xx_StdPeriph_Driver/src/stm32f4xx_tim.c ****   tmpccmr2 &= (uint16_t)(~TIM_CCMR2_OC4FE);
 2701              		.loc 1 1450 0
 2702 0016 FB89     		ldrh	r3, [r7, #14]	@ movhi
 2703 0018 23F48063 		bic	r3, r3, #1024
 2704 001c FB81     		strh	r3, [r7, #14]	@ movhi
1451:libs/STM32F4xx_StdPeriph_Driver/src/stm32f4xx_tim.c **** 
1452:libs/STM32F4xx_StdPeriph_Driver/src/stm32f4xx_tim.c ****   /* Enable or Disable the Output Compare Fast Bit */
1453:libs/STM32F4xx_StdPeriph_Driver/src/stm32f4xx_tim.c ****   tmpccmr2 |= (uint16_t)(TIM_OCFast << 8);
 2705              		.loc 1 1453 0
 2706 001e 7B88     		ldrh	r3, [r7, #2]	@ movhi
 2707 0020 1B02     		lsls	r3, r3, #8
 2708 0022 9AB2     		uxth	r2, r3
 2709 0024 FB89     		ldrh	r3, [r7, #14]	@ movhi
 2710 0026 1343     		orrs	r3, r3, r2
 2711 0028 FB81     		strh	r3, [r7, #14]	@ movhi
1454:libs/STM32F4xx_StdPeriph_Driver/src/stm32f4xx_tim.c **** 
1455:libs/STM32F4xx_StdPeriph_Driver/src/stm32f4xx_tim.c ****   /* Write to TIMx CCMR2 */
1456:libs/STM32F4xx_StdPeriph_Driver/src/stm32f4xx_tim.c ****   TIMx->CCMR2 = tmpccmr2;
 2712              		.loc 1 1456 0
 2713 002a 7B68     		ldr	r3, [r7, #4]
 2714 002c FA89     		ldrh	r2, [r7, #14]	@ movhi
 2715 002e 9A83     		strh	r2, [r3, #28]	@ movhi
1457:libs/STM32F4xx_StdPeriph_Driver/src/stm32f4xx_tim.c **** }
 2716              		.loc 1 1457 0
 2717 0030 1437     		adds	r7, r7, #20
 2718 0032 BD46     		mov	sp, r7
 2719              		@ sp needed
 2720 0034 5DF8047B 		ldr	r7, [sp], #4
 2721 0038 7047     		bx	lr
 2722              		.cfi_endproc
 2723              	.LFE146:
 2725 003a 00BF     		.section	.text.TIM_ClearOC1Ref,"ax",%progbits
 2726              		.align	2
 2727              		.global	TIM_ClearOC1Ref
 2728              		.thumb
 2729              		.thumb_func
 2731              	TIM_ClearOC1Ref:
 2732              	.LFB147:
1458:libs/STM32F4xx_StdPeriph_Driver/src/stm32f4xx_tim.c **** 
1459:libs/STM32F4xx_StdPeriph_Driver/src/stm32f4xx_tim.c **** /**
1460:libs/STM32F4xx_StdPeriph_Driver/src/stm32f4xx_tim.c ****   * @brief  Clears or safeguards the OCREF1 signal on an external event
1461:libs/STM32F4xx_StdPeriph_Driver/src/stm32f4xx_tim.c ****   * @param  TIMx: where x can be 1 to 14 except 6 and 7, to select the TIM peripheral.
1462:libs/STM32F4xx_StdPeriph_Driver/src/stm32f4xx_tim.c ****   * @param  TIM_OCClear: new state of the Output Compare Clear Enable Bit.
1463:libs/STM32F4xx_StdPeriph_Driver/src/stm32f4xx_tim.c ****   *          This parameter can be one of the following values:
1464:libs/STM32F4xx_StdPeriph_Driver/src/stm32f4xx_tim.c ****   *            @arg TIM_OCClear_Enable: TIM Output clear enable
1465:libs/STM32F4xx_StdPeriph_Driver/src/stm32f4xx_tim.c ****   *            @arg TIM_OCClear_Disable: TIM Output clear disable
1466:libs/STM32F4xx_StdPeriph_Driver/src/stm32f4xx_tim.c ****   * @retval None
1467:libs/STM32F4xx_StdPeriph_Driver/src/stm32f4xx_tim.c ****   */
1468:libs/STM32F4xx_StdPeriph_Driver/src/stm32f4xx_tim.c **** void TIM_ClearOC1Ref(TIM_TypeDef* TIMx, uint16_t TIM_OCClear)
1469:libs/STM32F4xx_StdPeriph_Driver/src/stm32f4xx_tim.c **** {
 2733              		.loc 1 1469 0
 2734              		.cfi_startproc
 2735              		@ args = 0, pretend = 0, frame = 16
 2736              		@ frame_needed = 1, uses_anonymous_args = 0
 2737              		@ link register save eliminated.
 2738 0000 80B4     		push	{r7}
 2739              	.LCFI111:
 2740              		.cfi_def_cfa_offset 4
 2741              		.cfi_offset 7, -4
 2742 0002 85B0     		sub	sp, sp, #20
 2743              	.LCFI112:
 2744              		.cfi_def_cfa_offset 24
 2745 0004 00AF     		add	r7, sp, #0
 2746              	.LCFI113:
 2747              		.cfi_def_cfa_register 7
 2748 0006 7860     		str	r0, [r7, #4]
 2749 0008 0B46     		mov	r3, r1
 2750 000a 7B80     		strh	r3, [r7, #2]	@ movhi
1470:libs/STM32F4xx_StdPeriph_Driver/src/stm32f4xx_tim.c ****   uint16_t tmpccmr1 = 0;
 2751              		.loc 1 1470 0
 2752 000c 0023     		movs	r3, #0
 2753 000e FB81     		strh	r3, [r7, #14]	@ movhi
1471:libs/STM32F4xx_StdPeriph_Driver/src/stm32f4xx_tim.c **** 
1472:libs/STM32F4xx_StdPeriph_Driver/src/stm32f4xx_tim.c ****   /* Check the parameters */
1473:libs/STM32F4xx_StdPeriph_Driver/src/stm32f4xx_tim.c ****   assert_param(IS_TIM_LIST1_PERIPH(TIMx));
1474:libs/STM32F4xx_StdPeriph_Driver/src/stm32f4xx_tim.c ****   assert_param(IS_TIM_OCCLEAR_STATE(TIM_OCClear));
1475:libs/STM32F4xx_StdPeriph_Driver/src/stm32f4xx_tim.c **** 
1476:libs/STM32F4xx_StdPeriph_Driver/src/stm32f4xx_tim.c ****   tmpccmr1 = TIMx->CCMR1;
 2754              		.loc 1 1476 0
 2755 0010 7B68     		ldr	r3, [r7, #4]
 2756 0012 1B8B     		ldrh	r3, [r3, #24]	@ movhi
 2757 0014 FB81     		strh	r3, [r7, #14]	@ movhi
1477:libs/STM32F4xx_StdPeriph_Driver/src/stm32f4xx_tim.c **** 
1478:libs/STM32F4xx_StdPeriph_Driver/src/stm32f4xx_tim.c ****   /* Reset the OC1CE Bit */
1479:libs/STM32F4xx_StdPeriph_Driver/src/stm32f4xx_tim.c ****   tmpccmr1 &= (uint16_t)~TIM_CCMR1_OC1CE;
 2758              		.loc 1 1479 0
 2759 0016 FB89     		ldrh	r3, [r7, #14]	@ movhi
 2760 0018 23F08003 		bic	r3, r3, #128
 2761 001c FB81     		strh	r3, [r7, #14]	@ movhi
1480:libs/STM32F4xx_StdPeriph_Driver/src/stm32f4xx_tim.c **** 
1481:libs/STM32F4xx_StdPeriph_Driver/src/stm32f4xx_tim.c ****   /* Enable or Disable the Output Compare Clear Bit */
1482:libs/STM32F4xx_StdPeriph_Driver/src/stm32f4xx_tim.c ****   tmpccmr1 |= TIM_OCClear;
 2762              		.loc 1 1482 0
 2763 001e FA89     		ldrh	r2, [r7, #14]	@ movhi
 2764 0020 7B88     		ldrh	r3, [r7, #2]	@ movhi
 2765 0022 1343     		orrs	r3, r3, r2
 2766 0024 FB81     		strh	r3, [r7, #14]	@ movhi
1483:libs/STM32F4xx_StdPeriph_Driver/src/stm32f4xx_tim.c **** 
1484:libs/STM32F4xx_StdPeriph_Driver/src/stm32f4xx_tim.c ****   /* Write to TIMx CCMR1 register */
1485:libs/STM32F4xx_StdPeriph_Driver/src/stm32f4xx_tim.c ****   TIMx->CCMR1 = tmpccmr1;
 2767              		.loc 1 1485 0
 2768 0026 7B68     		ldr	r3, [r7, #4]
 2769 0028 FA89     		ldrh	r2, [r7, #14]	@ movhi
 2770 002a 1A83     		strh	r2, [r3, #24]	@ movhi
1486:libs/STM32F4xx_StdPeriph_Driver/src/stm32f4xx_tim.c **** }
 2771              		.loc 1 1486 0
 2772 002c 1437     		adds	r7, r7, #20
 2773 002e BD46     		mov	sp, r7
 2774              		@ sp needed
 2775 0030 5DF8047B 		ldr	r7, [sp], #4
 2776 0034 7047     		bx	lr
 2777              		.cfi_endproc
 2778              	.LFE147:
 2780 0036 00BF     		.section	.text.TIM_ClearOC2Ref,"ax",%progbits
 2781              		.align	2
 2782              		.global	TIM_ClearOC2Ref
 2783              		.thumb
 2784              		.thumb_func
 2786              	TIM_ClearOC2Ref:
 2787              	.LFB148:
1487:libs/STM32F4xx_StdPeriph_Driver/src/stm32f4xx_tim.c **** 
1488:libs/STM32F4xx_StdPeriph_Driver/src/stm32f4xx_tim.c **** /**
1489:libs/STM32F4xx_StdPeriph_Driver/src/stm32f4xx_tim.c ****   * @brief  Clears or safeguards the OCREF2 signal on an external event
1490:libs/STM32F4xx_StdPeriph_Driver/src/stm32f4xx_tim.c ****   * @param  TIMx: where x can be  1, 2, 3, 4, 5, 8, 9 or 12 to select the TIM 
1491:libs/STM32F4xx_StdPeriph_Driver/src/stm32f4xx_tim.c ****   *         peripheral.
1492:libs/STM32F4xx_StdPeriph_Driver/src/stm32f4xx_tim.c ****   * @param  TIM_OCClear: new state of the Output Compare Clear Enable Bit.
1493:libs/STM32F4xx_StdPeriph_Driver/src/stm32f4xx_tim.c ****   *          This parameter can be one of the following values:
1494:libs/STM32F4xx_StdPeriph_Driver/src/stm32f4xx_tim.c ****   *            @arg TIM_OCClear_Enable: TIM Output clear enable
1495:libs/STM32F4xx_StdPeriph_Driver/src/stm32f4xx_tim.c ****   *            @arg TIM_OCClear_Disable: TIM Output clear disable
